(dp0
S'forget'
p1
(lp2
(S'better'
p3
S'mieux'
p4
tp5
a(S'mountain'
p6
S'montagne'
p7
tp8
a(S'slytherin'
p9
S'serpentard'
p10
tp11
a(S'green'
p12
S'vert'
p13
tp14
a(S'trolls'
p15
S'trolls'
p16
tp17
a(S'quidditch'
p18
S'quidditch'
p19
tp20
a(S'than'
p21
S'que'
p22
tp23
a(S'evening'
p24
S'soir\xc3\xa9e'
p25
tp26
a(S'ever'
p27
S'jamais'
p28
tp29
a(S'christmas'
p30
S'no\xc3\xabl'
p31
tp32
asS'ron'
p33
(lp34
(S'normal'
p35
S'normal'
p36
tp37
a(S'last'
p38
S'dernier'
p39
tp40
a(S'owl'
p41
S'hibou'
p42
tp43
a(S'next'
p44
S'prochaine'
p45
tp46
a(S'word'
p47
S'mot'
p48
tp49
a(S'horrible'
p50
S'horrible'
p51
tp52
a(S'forced'
p53
S'forc\xc3\xa9'
p54
tp55
a(S'sight'
p56
S'vue'
p57
tp58
a(S'carrying'
p59
S'portant'
p60
tp61
a(S'potter'
p62
g62
tp63
asS'forbidden'
p64
(lp65
(S'ink'
p66
S'encre'
p67
tp68
a(S'patil'
p69
S'patil'
p70
tp71
a(S'interest'
p72
S'int\xc3\xa9r\xc3\xaat'
p73
tp74
a(S'homework'
p75
S'devoirs'
p76
tp77
a(S'perfectly'
p78
S'parfaitement'
p79
tp80
a(S'months'
p81
S'mois'
p82
tp83
a(S'sun'
p84
S'soleil'
p85
tp86
a(S'obviously'
p87
S'\xc3\xa9videmment'
p88
tp89
a(S'parvati'
p90
g90
tp91
a(S'stool'
p92
S'tabouret'
p93
tp94
asS'results'
p95
(lp96
(S'ahead'
p97
S'devant'
p98
tp99
a(S'reckon'
p100
S'compter'
p101
tp102
a(S'covered'
p103
S'couvert'
p104
tp105
a(S'high'
p106
S'\xc3\xa9lev\xc3\xa9'
p107
tp108
a(S'sound'
p109
S'sonner'
p110
tp111
a(S'snitch'
p112
S'vif'
p113
tp114
a(S'forever'
p115
S'toujours'
p116
tp117
a(S'row'
p118
S'rang\xc3\xa9e'
p119
tp120
a(S'knows'
p121
S'sait'
p122
tp123
a(S'heavy'
p124
S'lourd'
p125
tp126
asS'yellow'
p127
(lp128
(S'figg'
p129
S'figg'
p130
tp131
ag68
a(S'curious'
p132
S'curieux'
p133
tp134
a(S'james'
p135
g135
tp136
a(S'knuts'
p137
S'noises'
p138
tp139
a(S'friar'
p140
S'moine'
p141
tp142
a(S'bike'
p143
S'v\xc3\xa9lo'
p144
tp145
a(S'motorcycle'
p146
S'moto'
p147
tp148
a(S'phoenix'
p149
S'ph\xc3\xa9nix'
p150
tp151
ag94
asS'four'
p152
(lp153
(S'done'
p154
S'fini'
p155
tp156
a(S'chocolate'
p157
S'chocolat'
p158
tp159
a(S'tomorrow'
p160
S'demain'
p161
tp162
a(S'room'
p163
S'salle'
p164
tp165
a(S'hundred'
p166
S'cent'
p167
tp168
a(S'third'
p169
S'troisi\xc3\xa8me'
p170
tp171
a(S'purple'
p172
S'pourpre'
p173
tp174
a(S'however'
p175
S'cependant'
p176
tp177
a(S'exactly'
p178
S'exactement'
p179
tp180
ag120
asS'known'
p181
(lp182
(S'nobody'
p183
S'personne'
p184
tp185
a(S'sense'
p186
S'sens'
p187
tp188
a(S'norbert'
p189
S'norbert'
p190
tp191
a(S'plan'
p192
S'plan'
p193
tp194
a(S'letter'
p195
S'lettre'
p196
tp197
a(S'worse'
p198
S'pire'
p199
tp200
a(S'appeared'
p201
S'apparu'
p202
tp203
a(S'tail'
p204
S'queue'
p205
tp206
a(S'mcgonagall'
p207
g207
tp208
a(S'study'
p209
S'\xc3\xa9tude'
p210
tp211
asS'woods'
p212
(lp213
(S'frogs'
p214
S'grenouilles'
p215
tp216
ag89
a(S'train'
p217
S'train'
p218
tp219
a(S'hat'
p220
S'chapeau'
p221
tp222
a(S'wearing'
p223
S'porter'
p224
tp225
a(S'pink'
p226
S'rose'
p227
tp228
a(S'laughter'
p229
S'rire'
p230
tp231
a(S'girls'
p232
S'filles'
p233
tp234
a(S'eat'
p235
S'manger'
p236
tp237
a(S'box'
p238
S'bo\xc3\xaete'
p239
tp240
asS'sleep'
p241
(lp242
(S'give'
p243
S'donner'
p244
tp245
a(S'pain'
p246
S'douleur'
p247
tp248
a(S'pair'
p249
S'paire'
p250
tp251
a(S'half'
p252
S'moiti\xc3\xa9'
p253
tp254
a(S'grabbed'
p255
S'saisi'
p256
tp257
a(S'neck'
p258
S'cou'
p259
tp260
a(S'fool'
p261
S'tromper'
p262
tp263
a(S'snarled'
p264
S'gronda'
p265
tp266
a(S'listen'
p267
S'\xc3\xa9couter'
p268
tp269
a(S'glasses'
p270
S'lunettes'
p271
tp272
asS'skin'
p273
(lp274
(S'why'
p275
S'pourquoi'
p276
tp277
a(S'things'
p278
S'choses'
p279
tp280
a(S'want'
p281
S'vouloir'
p282
tp283
a(S'save'
p284
S'sauver'
p285
tp286
a(S'stop'
p287
S'arr\xc3\xaater'
p288
tp289
a(S'touch'
p290
S'toucher'
p291
tp292
a(S'sir'
p293
S'monsieur'
p294
tp295
a(S'kill'
p296
S'tuer'
p297
tp298
a(S'ah'
p299
S'ah'
p300
tp301
a(S'leave'
p302
S'laisser'
p303
tp304
asS'follow'
p305
(lp306
(S'ropes'
p307
S'cordes'
p308
tp309
a(S'quietly'
p310
S'tranquillement'
p311
tp312
a(S'careful'
p313
S'prudent'
p314
tp315
a(S'watch'
p316
S'regarder'
p317
tp318
a(S'ghost'
p319
S'fant\xc3\xb4me'
p320
tp321
a(S'interesting'
p322
S'int\xc3\xa9ressant'
p323
tp324
a(S'certainly'
p325
S's\xc3\xbbrement'
p326
tp327
a(S'wait'
p328
S'attendre'
p329
tp330
a(S'mistake'
p331
S'erreur'
p332
tp333
a(S'lord'
p334
S'seigneur'
p335
tp336
asS'chair'
p337
(lp338
g131
ag68
a(S'confused'
p339
S'confus'
p340
tp341
ag134
a(S'remembrall'
p342
S'rapeltout'
p343
tp344
ag139
ag151
ag145
ag148
a(S'fluttered'
p345
S'flottaient'
p346
tp347
asS'captain'
p348
(lp349
g131
ag68
a(S'sausages'
p350
S'saucisses'
p351
tp352
ag134
a(S'decide'
p353
S'd\xc3\xa9cider'
p354
tp355
ag139
a(S'difference'
p356
S'diff\xc3\xa9rence'
p357
tp358
a(S'sick'
p359
S'malade'
p360
tp361
a(S'list'
p362
S'liste'
p363
tp364
ag94
asS'hate'
p365
(lp366
(S'broom'
p367
S'balai'
p368
tp369
a(S'late'
p370
S'tard'
p371
tp372
a(S'twitching'
p373
S'tremblement'
p374
tp375
a(S'nor'
p376
S'ni'
p377
tp378
a(S'doubt'
p379
S'doute'
p380
tp381
a(S'rushed'
p382
S'pr\xc3\xa9cipit\xc3\xa9'
p383
tp384
a(S'ask'
p385
S'demander'
p386
tp387
a(S'size'
p388
S'taille'
p389
tp390
a(S'hear'
p391
S'entendre'
p392
tp393
a(S'seconds'
p394
S'secondes'
p395
tp396
asS'seemed'
p397
(lp398
(S'toward'
p399
S'vers'
p400
tp401
ag37
a(S'ceiling'
p402
S'plafond'
p403
tp404
a(S'stars'
p405
S'\xc3\xa9toiles'
p406
tp407
a(S'percy'
p408
S'percy'
p409
tp410
a(S'worry'
p411
S'inqui\xc3\xa9ter'
p412
tp413
ag52
a(S'bewitched'
p414
S'enchant\xc3\xa9'
p415
tp416
ag55
a(S'raised'
p417
S'relev\xc3\xa9'
p418
tp419
asS'extra'
p420
(lp421
(S'team'
p422
S'\xc3\xa9quipe'
p423
tp424
a(S'ball'
p425
S'balle'
p426
tp427
a(S'quaffle'
p428
S'souafle'
p429
tp430
a(S'weasleys'
p431
S'weasley'
p432
tp433
a(S'keeper'
p434
S'gardien'
p435
tp436
a(S'rage'
p437
S'rage'
p438
tp439
a(S'beaters'
p440
S'batteurs'
p441
tp442
a(S'player'
p443
S'joueur'
p444
tp445
a(S'six'
p446
S'six'
p447
tp448
a(S'brothers'
p449
S'fr\xc3\xa8res'
p450
tp451
asg325
(lp452
(S'halloween'
p453
g453
tp454
a(S'troll'
p455
S'troll'
p456
tp457
ag315
a(S'board'
p458
S'conseil'
p459
tp460
a(S'crashed'
p461
S'\xc3\xa9cras\xc3\xa9'
p462
tp463
a(S'passageway'
p464
S'passage'
p465
tp466
ag321
ag330
ag333
a(S'listening'
p467
S'\xc3\xa9coute'
p468
tp469
asS'baron'
p470
(lp471
(S'emptied'
p472
S'vide'
p473
tp474
a(S'business'
p475
S'entreprise'
p476
tp477
a(S'lets'
p478
S'laisse'
p479
tp480
ag390
a(S'stairs'
p481
S'escaliers'
p482
tp483
a(S'afford'
p484
S'permettre'
p485
tp486
ag203
a(S'portrait'
p487
S'portrait'
p488
tp489
a(S'clock'
p490
S'horloge'
p491
tp492
a(S'foot'
p493
S'pied'
p494
tp495
asg440
(lp496
g424
a(g420
S'suppl\xc3\xa9mentaire'
p497
tp498
ag430
a(S'bludgers'
p499
S'cognards'
p500
tp501
ag436
ag427
ag433
ag445
a(S'win'
p502
S'victoire'
p503
tp504
ag448
asS'wizard'
p505
(lp506
(S'dragon'
p507
S'dragon'
p508
tp509
a(S'leaves'
p510
S'feuilles'
p511
tp512
a(S'jumped'
p513
S'saut\xc3\xa9'
p514
tp515
a(S'robes'
p516
S'robes'
p517
tp518
a(S'hidden'
p519
S'cach\xc3\xa9'
p520
tp521
a(S'happens'
p522
S'arrive'
p523
tp524
a(S'leg'
p525
S'jambe'
p526
tp527
a(S'pocket'
p528
S'poche'
p529
tp530
a(S'against'
p531
S'contre'
p532
tp533
a(S'feet'
p534
S'pieds'
p535
tp536
asS'father'
p537
(lp538
g277
ag280
a(S'has'
p539
S'a'
p540
tp541
a(S'heads'
p542
S't\xc3\xaates'
p543
tp544
a(S'did'
p545
S'fait'
p546
tp547
a(S'rather'
p548
S'plut\xc3\xb4t'
p549
tp550
a(S'forgive'
p551
S'pardonner'
p552
tp553
ag301
a(S'true'
p554
S'vrai'
p555
tp556
a(S'mother'
p557
S'm\xc3\xa8re'
p558
tp559
asS'wizardry'
p560
(lp561
g131
ag68
ag139
ag358
ag142
a(S'johnson'
p562
S'johnson'
p563
tp564
ag145
a(S'dad'
p565
S'papa'
p566
tp567
ag151
ag94
asS'presents'
p568
(lp569
(S'joking'
p570
S'plaisanterie'
p571
tp572
a(S'writing'
p573
S'\xc3\xa9criture'
p574
tp575
a(S'completely'
p576
S'compl\xc3\xa8tement'
p577
tp578
a(S'throat'
p579
S'gorge'
p580
tp581
a(S'lent'
p582
S'pr\xc3\xaat\xc3\xa9'
p583
tp584
a(S'binoculars'
p585
S'jumelles'
p586
tp587
a(S'angelina'
p588
S'angelina'
p589
tp590
a(S'finnigan'
p591
S'finnigan'
p592
tp593
a(S'control'
p594
S'contr\xc3\xb4le'
p595
tp596
a(S'crowd'
p597
S'foule'
p598
tp599
asS'answered'
p600
(lp601
(S'waved'
p602
S'agita'
p603
tp604
a(S'horror'
p605
S'horreur'
p606
tp607
a(S'queen'
p608
S'reine'
p609
tp610
a(S'flames'
p611
S'flammes'
p612
tp613
a(S'struck'
p614
S'frapp\xc3\xa9'
p615
tp616
a(S'side'
p617
S'c\xc3\xb4t\xc3\xa9'
p618
tp619
a(S'spell'
p620
S'sortil\xc3\xa8ge'
p621
tp622
a(S'bloody'
p623
S'sanglant'
p624
tp625
a(S'leapt'
p626
S'bondit'
p627
tp628
a(S'cold'
p629
S'froid'
p630
tp631
asg204
(lp632
(S'week'
p633
S'semaine'
p634
tp635
a(S'malfoys'
p636
S'malefoy'
p637
tp638
a(S'curtains'
p639
S'rideaux'
p640
tp641
ag194
a(S'during'
p642
S'pendant'
p643
tp644
a(S'following'
p645
S'suivant'
p646
tp647
a(S'smoke'
p648
S'fum\xc3\xa9e'
p649
tp650
a(S'keeping'
p651
S'garde'
p652
tp653
a(S'cut'
p654
S'coupe'
p655
tp656
a(S'morning'
p657
S'matin'
p658
tp659
asg143
(lp660
g131
a(S'lights'
p661
S'lumi\xc3\xa8res'
p662
tp663
ag136
a(S'drills'
p664
S'perceuses'
p665
tp666
a(S'drove'
p667
S'conduite'
p668
tp669
a(S'town'
p670
S'ville'
p671
tp672
a(S'boa'
p673
S'boa'
p674
tp675
a(S'lemon'
p676
S'citron'
p677
tp678
ag148
a(S'tabby'
p679
S'tigr\xc3\xa9'
p680
tp681
asS'those'
p682
(lp683
(g152
S'quatre'
p684
tp685
ag165
a(S'courage'
p686
S'courage'
p687
tp688
a(S'yes'
p689
S'oui'
p690
tp691
ag171
ag174
a(S'points'
p692
S'points'
p693
tp694
a(S'house'
p695
S'maison'
p696
tp697
a(S'award'
p698
S'prix'
p699
tp700
ag63
asS'under'
p701
(lp702
(S'sure'
p703
S's\xc3\xbbr'
p704
tp705
a(S'turban'
p706
S'turban'
p707
tp708
a(S'woman'
p709
S'femme'
p710
tp711
a(S'pile'
p712
S'pile'
p713
tp714
a(S'disappeared'
p715
S'disparu'
p716
tp717
a(S'quirrells'
p718
S'quirrell'
p719
tp720
a(S'everything'
p721
S'tout'
p722
tp723
a(S'shock'
p724
S'choc'
p725
tp726
a(S'nice'
p727
S'agr\xc3\xa9able'
p728
tp729
a(S'five'
p730
S'cinq'
p731
tp732
asg334
(lp733
g312
a(S'erised'
p734
S'ris\xc3\xa9d'
p735
tp736
ag324
a(S'air'
p737
S'air'
p738
tp739
ag619
a(S'thin'
p740
S'mince'
p741
tp742
a(S'showed'
p743
S'montr\xc3\xa9'
p744
tp745
ag625
ag631
a(S'wrapped'
p746
S'envelopp\xc3\xa9'
p747
tp748
asS'sorry'
p749
(lp750
(S'lady'
p751
S'dame'
p752
tp753
a(S'ran'
p754
S'courut'
p755
tp756
a(S'arts'
p757
S'lettres'
p758
tp759
a(S'hit'
p760
S'frapper'
p761
tp762
a(S'flitwick'
p763
S'flitwick'
p764
tp765
ag197
ag206
ag211
a(S'corridor'
p766
S'couloir'
p767
tp768
a(S'matter'
p769
S'question'
p770
tp771
asS'worth'
p772
(lp773
g131
ag68
a(S'scabbers'
p774
S'cro\xc3\xbbtard'
p775
tp776
ag358
a(S'dreamed'
p777
S'r\xc3\xaav\xc3\xa9'
p778
tp779
ag225
a(S'prefect'
p780
S'pr\xc3\xa9fet'
p781
tp782
a(g568
S'cadeaux'
p783
tp784
ag94
a(S'tore'
p785
S'd\xc3\xa9chira'
p786
tp787
asg129
(lp788
g663
ag136
ag666
ag669
ag672
ag675
ag678
ag145
ag148
ag681
asS'breathing'
p789
(lp790
(S'leaned'
p791
S'pencha'
p792
tp793
a(S'saturday'
p794
S'samedi'
p795
tp796
a(S'clearing'
p797
S'clairi\xc3\xa8re'
p798
tp799
a(S'silently'
p800
S'silencieusement'
p801
tp802
a(S'dive'
p803
S'plongeon'
p804
tp805
a(S'earth'
p806
S'terre'
p807
tp808
a(S'castle'
p809
S'ch\xc3\xa2teau'
p810
tp811
a(S'nimbus'
p812
S'nimbus'
p813
tp814
a(S'midnight'
p815
S'minuit'
p816
tp817
a(S'thousand'
p818
S'mille'
p819
tp820
asS'garden'
p821
(lp822
g131
a(S'enormous'
p823
S'\xc3\xa9norme'
p824
tp825
a(S'tired'
p826
S'fatigu\xc3\xa9'
p827
tp828
ag358
a(S'guess'
p829
S'deviner'
p830
tp831
ag567
ag68
ag80
ag564
ag94
asS'sitting'
p832
(lp833
(S'hole'
p834
S'trou'
p835
tp836
a(S'flute'
p837
S'fl\xc3\xbbte'
p838
tp839
ag396
a(S'twitched'
p840
S'remua'
p841
tp842
a(S'growled'
p843
S'grogna'
p844
tp845
a(S'trapdoor'
p846
S'trappe'
p847
tp848
a(S'bottom'
p849
S'bas'
p850
tp851
a(S'soft'
p852
S'doux'
p853
tp854
a(S'dog'
p855
S'chien'
p856
tp857
a(S'okay'
p858
S'bien'
p859
tp860
asg605
(lp861
g613
ag610
a(S'rounded'
p862
S'arrondie'
p863
tp864
ag616
ag619
ag622
ag625
a(g600
S'r\xc3\xa9pondu'
p865
tp866
ag628
ag631
asg516
(lp867
(S'lake'
p868
S'lac'
p869
tp870
ag245
a(S'us'
p871
S'nous'
p872
tp873
a(S'warning'
p874
S'avertissement'
p875
tp876
a(S'filled'
p877
S'rempli'
p878
tp879
a(S'notes'
p880
S'notes'
p881
tp882
a(S'students'
p883
S'\xc3\xa9tudiants'
p884
tp885
a(S'beans'
p886
S'haricots'
p887
tp888
a(S'boats'
p889
S'bateaux'
p890
tp891
a(S'quite'
p892
S'assez'
p893
tp894
asS'none'
p895
(lp896
(S'others'
p897
S'autres'
p898
tp899
a(S'direction'
p900
S'direction'
p901
tp902
a(S'note'
p903
S'note'
p904
tp905
a(S'part'
p906
S'partie'
p907
tp908
a(S'steps'
p909
S'mesures'
p910
tp911
a(S'frantically'
p912
S'fr\xc3\xa9n\xc3\xa9tiquement'
p913
tp914
a(S'flew'
p915
S'vol\xc3\xa9'
p916
tp917
a(S'coldly'
p918
S'froidement'
p919
tp920
a(S'ministry'
p921
S'minist\xc3\xa8re'
p922
tp923
a(S'received'
p924
S're\xc3\xa7u'
p925
tp926
asS'choice'
p927
(lp928
(S'run'
p929
S'course'
p930
tp931
ag635
ag656
a(S'feathers'
p932
S'plumes'
p933
tp934
a(S'probably'
p935
S'probablement'
p936
tp937
a(S'lose'
p938
S'perdre'
p939
tp940
a(S'hide'
p941
S'cacher'
p942
tp943
ag659
a(S'danger'
p944
S'danger'
p945
tp946
a(S'century'
p947
S'si\xc3\xa8cle'
p948
tp949
asS'every'
p950
(lp951
g870
a(S'waving'
p952
S'agitant'
p953
tp954
a(S'sudden'
p955
S'soudain'
p956
tp957
ag873
a(S'smiling'
p958
S'souriant'
p959
tp960
a(S'missed'
p961
S'manqu\xc3\xa9'
p962
tp963
a(S'match'
p964
S'match'
p965
tp966
ag888
ag891
a(S'without'
p967
S'sans'
p968
tp969
asS'foul'
p970
(lp971
g68
ag341
a(S'seats'
p972
S'si\xc3\xa8ges'
p973
tp974
a(S'toast'
p975
S'toast'
p976
tp977
a(S'purpose'
p978
S'but'
p979
tp980
a(S'entered'
p981
S'entr\xc3\xa9'
p982
tp983
a(S'speed'
p984
S'vitesse'
p985
tp986
a(S'houses'
p987
S'maisons'
p988
tp989
ag347
ag94
asg353
(lp990
g131
ag68
ag134
ag139
ag142
a(S'hungry'
p991
S'avide'
p992
tp993
ag148
ag145
ag151
ag94
asS'animals'
p994
(lp995
(S'dangerous'
p996
S'dangereux'
p997
tp998
a(S'shadows'
p999
S'ombres'
p1000
tp1001
a(S'eleven'
p1002
S'onze'
p1003
tp1004
a(S'crabbe'
p1005
S'crabbe'
p1006
tp1007
a(S'centaur'
p1008
S'centaure'
p1009
tp1010
a(S'fangs'
p1011
S'crocs'
p1012
tp1013
a(S'crossbow'
p1014
S'arbal\xc3\xa8te'
p1015
tp1016
a(S'warn'
p1017
S'pr\xc3\xa9venir'
p1018
tp1019
a(S'practice'
p1020
S'pratique'
p1021
tp1022
a(S'furiously'
p1023
S'furieusement'
p1024
tp1025
asS'trouble'
p1026
(lp1027
(S'goes'
p1028
S'va'
p1029
tp1030
a(S'feast'
p1031
S'f\xc3\xaate'
p1032
tp1033
a(S'loudly'
p1034
S'fort'
p1035
tp1036
a(S'arrived'
p1037
S'arriv\xc3\xa9e'
p1038
tp1039
a(S'started'
p1040
S'commenc\xc3\xa9'
p1041
tp1042
a(S'slipped'
p1043
S'gliss\xc3\xa9'
p1044
tp1045
ag723
a(S'another'
p1046
S'autre'
p1047
tp1048
a(S'moments'
p1049
S'moments'
p1050
tp1051
a(S'before'
p1052
S'avant'
p1053
tp1054
asg356
(lp1055
(S'thirty'
p1056
S'trente'
p1057
tp1058
ag131
ag68
ag134
a(g970
S'faute'
p1059
tp1060
ag139
ag980
ag145
ag151
ag94
asS'fireplace'
p1061
(lp1062
g131
ag663
ag68
ag672
ag136
a(S'goblins'
p1063
S'gobelins'
p1064
tp1065
a(S'mystery'
p1066
S'myst\xc3\xa8re'
p1067
tp1068
ag148
ag145
ag681
asS'minute'
p1069
(lp1070
(S'lock'
p1071
S'bloquer'
p1072
tp1073
a(S'impossible'
p1074
S'impossible'
p1075
tp1076
a(S'birds'
p1077
S'oiseaux'
p1078
tp1079
ag802
a(S'trembling'
p1080
S'tremblant'
p1081
tp1082
a(S'broomsticks'
p1083
S'balais'
p1084
tp1085
a(S'bright'
p1086
S'clair'
p1087
tp1088
a(S'blue'
p1089
S'bleu'
p1090
tp1091
a(S'several'
p1092
S'plusieurs'
p1093
tp1094
a(S'snatched'
p1095
S'arrach\xc3\xa9'
p1096
tp1097
asS'wore'
p1098
(lp1099
(S'floors'
p1100
S'\xc3\xa9tages'
p1101
tp1102
ag131
ag68
ag578
a(S'tall'
p1103
S'grand'
p1104
tp1105
a(S'usually'
p1106
S'habituellement'
p1107
tp1108
a(S'bought'
p1109
S'achet\xc3\xa9'
p1110
tp1111
ag358
a(S'plastic'
p1112
S'plastique'
p1113
tp1114
ag94
asS'believed'
p1115
(lp1116
(S'having'
p1117
S'ayant'
p1118
tp1119
a(S'mine'
p1120
S'mine'
p1121
tp1122
ag71
a(S'middle'
p1123
S'milieu'
p1124
tp1125
ag91
a(S'norwegian'
p1126
S'norv\xc3\xa9gien'
p1127
tp1128
a(S'twenty'
p1129
S'vingt'
p1130
tp1131
ag86
ag89
a(S'tap'
p1132
S'robinet'
p1133
tp1134
asg780
(lp1135
g572
ag578
ag587
ag590
a(S'cleared'
p1136
S'd\xc3\xa9gag\xc3\xa9'
p1137
tp1138
ag581
ag68
ag596
ag784
ag599
asS'sighed'
p1139
(lp1140
(S'long'
p1141
S'longue'
p1142
tp1143
a(S'agreed'
p1144
S'convenu'
p1145
tp1146
ag108
a(S'complete'
p1147
S'complet'
p1148
tp1149
a(S'secret'
p1150
S'secret'
p1151
tp1152
a(S'lay'
p1153
S'poser'
p1154
tp1155
a(S'such'
p1156
S'tel'
p1157
tp1158
a(S'words'
p1159
S'paroles'
p1160
tp1161
a(S'bed'
p1162
S'lit'
p1163
tp1164
ag254
asg545
(lp1165
g277
ag280
ag541
ag544
a(g537
S'p\xc3\xa8re'
p1166
tp1167
ag550
ag553
ag301
ag556
ag559
asS'die'
p1168
(lp1169
(S'alive'
p1170
S'vivant'
p1171
tp1172
a(S'softly'
p1173
S'doucement'
p1174
tp1175
a(S'pale'
p1176
S'p\xc3\xa2le'
p1177
tp1178
a(S'noticed'
p1179
S'remarqu\xc3\xa9'
p1180
tp1181
a(S'grab'
p1182
S'saisir'
p1183
tp1184
a(S'hang'
p1185
S'pendre'
p1186
tp1187
a(S'body'
p1188
S'corps'
p1189
tp1190
a(S'shoulder'
p1191
S'\xc3\xa9paule'
p1192
tp1193
a(S'legs'
p1194
S'jambes'
p1195
tp1196
a(S'left'
p1197
S'gauche'
p1198
tp1199
asg880
(lp1200
g876
a(S'chamber'
p1201
S'chambre'
p1202
tp1203
a(S'chapter'
p1204
S'chapitre'
p1205
tp1206
a(S'straight'
p1207
S'droit'
p1208
tp1209
a(S'picked'
p1210
S'choisi'
p1211
tp1212
a(S'repeated'
p1213
S'r\xc3\xa9p\xc3\xa9t\xc3\xa9'
p1214
tp1215
a(S'feel'
p1216
S'sentir'
p1217
tp1218
ag885
a(S'knees'
p1219
S'genoux'
p1220
tp1221
a(S'bottle'
p1222
S'bouteille'
p1223
tp1224
asg724
(lp1225
(S'outside'
p1226
S'ext\xc3\xa9rieur'
p1227
tp1228
ag717
ag714
a(S'longbottom'
p1229
S'londubat'
p1230
tp1231
a(S'end'
p1232
S'fin'
p1233
tp1234
a(S'alone'
p1235
S'seul'
p1236
tp1237
a(S'stand'
p1238
S'supporter'
p1239
tp1240
a(S'yell'
p1241
S'crier'
p1242
tp1243
a(S'standing'
p1244
S'debout'
p1245
tp1246
a(S'white'
p1247
S'blanc'
p1248
tp1249
asg362
(lp1250
g1058
ag131
ag68
ag134
ag355
a(S'whistle'
p1251
S'sifflet'
p1252
tp1253
ag361
a(S'rattled'
p1254
S'secou\xc3\xa9'
p1255
tp1256
ag993
ag94
asS'brother'
p1257
(lp1258
(S'my'
p1259
S'ma'
p1260
tp1261
ag404
ag407
a(S'heard'
p1262
S'entendu'
p1263
tp1264
a(S'prefects'
p1265
S'pr\xc3\xa9fets'
p1266
tp1267
a(S'past'
p1268
S'pass\xc3\xa9'
p1269
tp1270
ag416
ag410
a(S'giant'
p1271
S'g\xc3\xa9ant'
p1272
tp1273
a(S'chess'
p1274
S'\xc3\xa9checs'
p1275
tp1276
asg302
(lp1277
g277
ag280
a(g273
S'peau'
p1278
tp1279
ag283
ag286
ag289
ag292
ag295
ag298
ag301
asS'these'
p1280
(lp1281
g245
ag876
ag873
a(S'interested'
p1282
S'int\xc3\xa9ress\xc3\xa9'
p1283
tp1284
a(S'sign'
p1285
S'signe'
p1286
tp1287
a(S'start'
p1288
S'd\xc3\xa9but'
p1289
tp1290
a(S'make'
p1291
S'faire'
p1292
tp1293
ag882
ag885
a(S'deeply'
p1294
S'profond\xc3\xa9ment'
p1295
tp1296
asS'walked'
p1297
(lp1298
(S'ordinary'
p1299
S'ordinaire'
p1300
tp1301
a(S'away'
p1302
S'loin'
p1303
tp1304
ag43
a(S'cage'
p1305
S'cage'
p1306
tp1307
a(S'family'
p1308
S'famille'
p1309
tp1310
a(S'boy'
p1311
S'gar\xc3\xa7on'
p1312
tp1313
ag58
ag61
a(S'full'
p1314
S'plein'
p1315
tp1316
a(S'day'
p1317
S'jour'
p1318
tp1319
asS'red'
p1320
(lp1321
(S'fingers'
p1322
S'doigts'
p1323
tp1324
ag607
ag616
ag318
ag864
ag619
ag625
ag866
ag631
ag336
asg422
(lp1325
(S'offered'
p1326
S'pr\xc3\xa9sent\xc3\xa9'
p1327
tp1328
ag439
ag445
a(S'stomach'
p1329
S'estomac'
p1330
tp1331
ag436
ag1128
a(S'gives'
p1332
S'donne'
p1333
tp1334
a(g1115
S'cru'
p1335
tp1336
ag448
ag1134
asS'small'
p1337
(lp1338
g454
a(S'gringotts'
p1339
S'gringotts'
p1340
tp1341
a(S'swooping'
p1342
S'plongeant'
p1343
tp1344
a(S'glass'
p1345
S'verre'
p1346
tp1347
ag1212
a(S'strangely'
p1348
S'\xc3\xa9trangement'
p1349
tp1350
a(S'smell'
p1351
S'odeur'
p1352
tp1353
a(S'cauldron'
p1354
S'chaudron'
p1355
tp1356
a(S'deep'
p1357
S'profond'
p1358
tp1359
ag1224
asS'clothes'
p1360
(lp1361
(S'kitchen'
p1362
S'cuisine'
p1363
tp1364
ag663
ag136
a(S'ate'
p1365
S'mang\xc3\xa9'
p1366
tp1367
ag666
ag672
ag675
ag678
ag148
ag681
asS'work'
p1368
(lp1369
(S'invisibility'
p1370
S'invisibilit\xc3\xa9'
p1371
tp1372
a(S'powerful'
p1373
S'puissant'
p1374
tp1375
ag1287
a(g365
S'haine'
p1376
tp1377
a(S'scar'
p1378
S'cicatrice'
p1379
tp1380
a(S'return'
p1381
S'retour'
p1382
tp1383
a(S'hurt'
p1384
S'blesser'
p1385
tp1386
ag393
a(S'may'
p1387
S'peut'
p1388
tp1389
a(S'reason'
p1390
S'raison'
p1391
tp1392
asS'force'
p1393
(lp1394
g131
ag216
ag68
ag139
ag358
ag142
ag145
ag564
ag151
ag94
asS'ten'
p1395
(lp1396
g1228
ag156
a(S'way'
p1397
S'fa\xc3\xa7on'
p1398
tp1399
ag1231
ag1234
ag174
ag1237
ag1240
ag1246
a(S'noise'
p1400
S'bruit'
p1401
tp1402
asg826
(lp1403
g131
ag68
ag578
a(S'nicholas'
p1404
S'nicholas'
p1405
tp1406
a(S'rain'
p1407
S'pluie'
p1408
tp1409
a(S'flaming'
p1410
S'flamboyant'
p1411
tp1412
a(S'marcus'
p1413
S'marcus'
p1414
tp1415
a(S'staying'
p1416
S'rester'
p1417
tp1418
a(S'chuckled'
p1419
S'ricana'
p1420
tp1421
ag94
asS'tea'
p1422
(lp1423
g131
a(S'sandwiches'
p1424
S'sandwiches'
p1425
tp1426
ag828
ag1409
a(S'imagining'
p1427
S'imaginant'
p1428
tp1429
a(S'buy'
p1430
S'acheter'
p1431
tp1432
ag222
ag68
ag1406
ag94
asS'bacon'
p1433
(lp1434
g1102
ag131
ag68
ag1105
ag1108
ag1111
ag358
a(g1098
S'portait'
p1435
tp1436
ag1114
ag94
asS'boots'
p1437
(lp1438
g131
ag68
ag134
ag139
ag983
ag1068
ag142
ag148
ag145
ag151
asg1285
(lp1439
(S'amazement'
p1440
S'stup\xc3\xa9faction'
p1441
tp1442
ag248
a(S'days'
p1443
S'journ\xc3\xa9es'
p1444
tp1445
ag387
ag1377
ag1380
ag393
a(S'london'
p1446
S'londres'
p1447
tp1448
a(S'reached'
p1449
S'atteint'
p1450
tp1451
ag1296
asg1268
(lp1452
g404
ag407
ag1264
ag1267
ag416
ag410
ag1273
ag419
a(g1257
S'fr\xc3\xa8re'
p1453
tp1454
ag1276
asS'griphook'
p1455
(lp1456
g131
a(S'coins'
p1457
S'pi\xc3\xa8ces'
p1458
tp1459
a(S'bartender'
p1460
S'barman'
p1461
tp1462
a(S'dedalus'
p1463
S'dedalus'
p1464
tp1465
a(S'country'
p1466
S'pays'
p1467
tp1468
ag68
ag1068
a(S'newspaper'
p1469
S'journal'
p1470
tp1471
ag148
ag681
asS'second'
p1472
(lp1473
(S'silence'
p1474
S'silence'
p1475
tp1476
ag102
ag105
ag108
ag162
a(S'miss'
p1477
S'manquer'
p1478
tp1479
a(S'wrist'
p1480
S'poignet'
p1481
tp1482
ag120
ag123
a(S'granger'
p1483
S'granger'
p1484
tp1485
asS'street'
p1486
(lp1487
g131
ag663
ag68
a(S'mum'
p1488
S'maman'
p1489
tp1490
ag136
ag1068
ag145
ag148
ag681
a(S'lily'
p1491
g1491
tp1492
asS'roof'
p1493
(lp1494
g663
ag675
ag669
ag666
ag672
ag136
a(S'son'
p1495
S'fils'
p1496
tp1497
ag678
ag148
ag681
asg1210
(lp1498
(S'slightly'
p1499
S'l\xc3\xa9g\xc3\xa8rement'
p1500
tp1501
a(S'shot'
p1502
S'coup'
p1503
tp1504
a(S'horse'
p1505
S'cheval'
p1506
tp1507
a(S'important'
p1508
S'important'
p1509
tp1510
a(S'flying'
p1511
S'volant'
p1512
tp1513
ag1073
ag793
a(g1069
S'minute'
p1514
tp1515
a(S'dived'
p1516
S'plong\xc3\xa9'
p1517
tp1518
ag1094
asS'pass'
p1519
(lp1520
g1119
ag131
ag68
a(S'shout'
p1521
S'cri'
p1522
tp1523
ag94
a(S'cakes'
p1524
S'g\xc3\xa2teaux'
p1525
tp1526
ag358
a(S'silvery'
p1527
S'argent\xc3\xa9'
p1528
tp1529
ag564
ag83
asS'umbrella'
p1530
(lp1531
g131
ag68
ag828
ag1429
ag358
a(S'recognized'
p1532
S'reconnu'
p1533
tp1534
ag564
ag1418
a(S'excuse'
p1535
S'excuse'
p1536
tp1537
ag94
asS'dumbledores'
p1538
(lp1539
(S'meant'
p1540
S'signifiait'
p1541
tp1542
a(S'entrance'
p1543
S'entr\xc3\xa9e'
p1544
tp1545
a(S'eyes'
p1546
S'yeux'
p1547
tp1548
a(S'terrible'
p1549
S'terrible'
p1550
tp1551
a(S'hurtled'
p1552
S'fon\xc3\xa7ait'
p1553
tp1554
a(S'floor'
p1555
S'\xc3\xa9tage'
p1556
tp1557
a(S'sneaking'
p1558
S'faufiler'
p1559
tp1560
a(S'useful'
p1561
S'utile'
p1562
tp1563
ag171
a(S'already'
p1564
S'd\xc3\xa9j\xc3\xa0'
p1565
tp1566
asS'quill'
p1567
(lp1568
g424
a(S'drawing'
p1569
S'dessin'
p1570
tp1571
a(S'grinned'
p1572
S'sourit'
p1573
tp1574
a(S'bludger'
p1575
S'cognard'
p1576
tp1577
a(S'teams'
p1578
S'\xc3\xa9quipes'
p1579
tp1580
ag1007
a(S'championship'
p1581
S'championnat'
p1582
tp1583
a(S'notice'
p1584
S'avis'
p1585
tp1586
a(S'windows'
p1587
S'fen\xc3\xaatres'
p1588
tp1589
a(S'magical'
p1590
S'magique'
p1591
tp1592
asg1089
(lp1593
(S'sky'
p1594
S'ciel'
p1595
tp1596
ag1571
ag1574
ag1577
a(S'herbs'
p1597
S'herbes'
p1598
tp1599
ag1007
ag1586
ag1589
a(g1567
S'plume'
p1600
tp1601
ag1592
asg941
(lp1602
(S'badly'
p1603
S'mal'
p1604
tp1605
a(S'peas'
p1606
S'pois'
p1607
tp1608
a(S'stranger'
p1609
S'\xc3\xa9tranger'
p1610
tp1611
a(g927
S'choix'
p1612
tp1613
ag905
ag1507
a(S'office'
p1614
S'bureau'
p1615
tp1616
a(S'boys'
p1617
S'gar\xc3\xa7ons'
p1618
tp1619
ag946
a(S'cards'
p1620
S'cartes'
p1621
tp1622
asS'darkness'
p1623
(lp1624
(S'complain'
p1625
S'plaindre'
p1626
tp1627
a(S'lead'
p1628
S'conduire'
p1629
tp1630
a(g1422
S'th\xc3\xa9'
p1631
tp1632
ag1426
a(S'goblin'
p1633
S'gobelin'
p1634
tp1635
a(S'handkerchief'
p1636
S'mouchoir'
p1637
tp1638
a(S'romania'
p1639
S'roumanie'
p1640
tp1641
a(S'spells'
p1642
S'sorts'
p1643
tp1644
a(S'marched'
p1645
S'marcha'
p1646
tp1647
ag1429
asg490
(lp1648
g474
ag899
a(S'enchantments'
p1649
S'enchantements'
p1650
tp1651
a(g895
S'aucun'
p1652
tp1653
ag902
ag908
ag911
ag486
ag923
ag489
asS'giving'
p1654
(lp1655
g245
a(S'usual'
p1656
S'habituel'
p1657
tp1658
a(S'mirror'
p1659
S'miroir'
p1660
tp1661
ag873
a(S'help'
p1662
S'aider'
p1663
tp1664
a(S'stopped'
p1665
S'arr\xc3\xaat\xc3\xa9'
p1666
tp1667
ag1237
a(S'night'
p1668
S'nuit'
p1669
tp1670
a(S'crying'
p1671
S'pleurs'
p1672
tp1673
a(S'spoke'
p1674
S'rayon'
p1675
tp1676
asS'saved'
p1677
(lp1678
(S'speak'
p1679
S'parler'
p1680
tp1681
a(S'beard'
p1682
S'barbe'
p1683
tp1684
a(S'name'
p1685
S'nom'
p1686
tp1687
a(S'nose'
p1688
S'nez'
p1689
tp1690
a(S'stone'
p1691
S'pierre'
p1692
tp1693
a(S'don'
p1694
S'don'
p1695
tp1696
a(S'gave'
p1697
S'donn\xc3\xa9'
p1698
tp1699
a(S'met'
p1700
S'rencontr\xc3\xa9'
p1701
tp1702
a(S'weak'
p1703
S'faible'
p1704
tp1705
a(S'fred'
p1706
S'fred'
p1707
tp1708
asS'section'
p1709
(lp1710
(S'seekers'
p1711
S'attrapeurs'
p1712
tp1713
a(S'floating'
p1714
S'flottant'
p1715
tp1716
a(S'leviosa'
p1717
S'leviosa'
p1718
tp1719
a(S'seamus'
p1720
S'seamus'
p1721
tp1722
a(S'wide'
p1723
S'large'
p1724
tp1725
a(S'screaming'
p1726
S'hurlement'
p1727
tp1728
ag501
ag504
a(S'library'
p1729
S'biblioth\xc3\xa8que'
p1730
tp1731
a(S'difficult'
p1732
S'difficile'
p1733
tp1734
asg92
(lp1735
g131
a(S'sea'
p1736
S'mer'
p1737
tp1738
ag68
ag134
a(S'rat'
p1739
S'rat'
p1740
tp1741
ag139
ag142
ag148
ag151
a(S'starting'
p1742
S'd\xc3\xa9part'
p1743
tp1744
asg1322
(lp1745
(S'key'
p1746
S'cl\xc3\xa9'
p1747
tp1748
a(S'peeves'
p1749
S'peeves'
p1750
tp1751
ag1347
ag1215
a(S'pinned'
p1752
S'\xc3\xa9pingl\xc3\xa9'
p1753
tp1754
a(S'nasty'
p1755
S'm\xc3\xa9chant'
p1756
tp1757
a(S'edge'
p1758
S'bord'
p1759
tp1760
a(S'seven'
p1761
S'sept'
p1762
tp1763
ag1224
a(S'figure'
p1764
S'figure'
p1765
tp1766
asS'uniform'
p1767
(lp1768
g131
ag1462
ag1465
ag1468
ag139
a(g1455
S'gripsec'
p1769
tp1770
ag68
ag1068
ag1471
ag148
asg661
(lp1771
g675
ag669
ag666
ag672
ag136
ag1497
a(g1493
S'toit'
p1772
tp1773
ag678
ag148
ag681
asS'twins'
p1774
(lp1775
(S'lots'
p1776
S'beaucoup'
p1777
tp1778
ag439
ag445
a(S'baby'
p1779
S'b\xc3\xa9b\xc3\xa9'
p1780
tp1781
a(S'rats'
p1782
S'rats'
p1783
tp1784
a(S'snout'
p1785
S'museau'
p1786
tp1787
a(S'lesson'
p1788
S'le\xc3\xa7on'
p1789
tp1790
ag448
a(S'bell'
p1791
S'cloche'
p1792
tp1793
ag451
asS'above'
p1794
(lp1795
(S'feeling'
p1796
S'sentiment'
p1797
tp1798
a(S'sorcerers'
p1799
S'sorciers'
p1800
tp1801
a(S'meet'
p1802
S'rencontrer'
p1803
tp1804
a(S'turned'
p1805
S'tourn\xc3\xa9'
p1806
tp1807
a(S'slowly'
p1808
S'lentement'
p1809
tp1810
a(S'hissed'
p1811
S'siffla'
p1812
tp1813
ag1196
ag266
ag263
a(S'forest'
p1814
S'for\xc3\xaat'
p1815
tp1816
asS'new'
p1817
(lp1818
(S'water'
p1819
S'eau'
p1820
tp1821
a(S'oak'
p1822
S'ch\xc3\xaane'
p1823
tp1824
a(S'thick'
p1825
S'\xc3\xa9pais'
p1826
tp1827
ag1088
a(S'werewolf'
p1828
S'garou'
p1829
tp1830
a(S'narrow'
p1831
S'\xc3\xa9troit'
p1832
tp1833
a(S'moon'
p1834
S'lune'
p1835
tp1836
a(S'holding'
p1837
S'tenue'
p1838
tp1839
a(S'branches'
p1840
S'branches'
p1841
tp1842
a(S'potion'
p1843
S'potion'
p1844
tp1845
asg1717
(lp1846
g498
ag1713
ag1722
ag427
ag501
ag442
ag430
ag504
ag433
ag1734
asg1404
(lp1847
g131
ag68
ag578
ag1421
a(S'soccer'
p1848
S'football'
p1849
tp1850
ag139
ag358
ag1415
ag564
ag94
asS'ginny'
p1851
(lp1852
(S'rude'
p1853
S'grossier'
p1854
tp1855
a(S'muggle'
p1856
S'moldu'
p1857
tp1858
a(S'called'
p1859
S'appel\xc3\xa9'
p1860
tp1861
a(S'younger'
p1862
S'jeune'
p1863
tp1864
a(S'world'
p1865
S'monde'
p1866
tp1867
a(S'sister'
p1868
S'soeur'
p1869
tp1870
a(S'year'
p1871
S'ann\xc3\xa9e'
p1872
tp1873
ag63
a(S'together'
p1874
S'ensemble'
p1875
tp1876
a(S'some'
p1877
S'certains'
p1878
tp1879
asg877
(lp1880
g610
ag191
a(S'damp'
p1881
S'humide'
p1882
tp1883
ag1203
ag321
a(S'witch'
p1884
S'sorci\xc3\xa8re'
p1885
tp1886
a(S'leaning'
p1887
S'pench\xc3\xa9'
p1888
tp1889
a(S'flat'
p1890
S'plat'
p1891
tp1892
a(S'mad'
p1893
S'fou'
p1894
tp1895
a(S'rustling'
p1896
S'bruissement'
p1897
tp1898
asS'told'
p1899
(lp1900
g705
a(S'lost'
p1901
S'perdu'
p1902
tp1903
ag708
a(g701
S'sous'
p1904
tp1905
ag720
ag711
ag723
ag729
ag732
a(S'wild'
p1906
S'sauvage'
p1907
tp1908
asg1188
(lp1909
(S'bottles'
p1910
S'bouteilles'
p1911
tp1912
ag1193
a(S'read'
p1913
S'lire'
p1914
tp1915
a(S'carefully'
p1916
S'soigneusement'
p1917
tp1918
a(S'whispered'
p1919
S'murmura'
p1920
tp1921
a(S'voldemorts'
p1922
S'voldemort'
p1923
tp1924
ag257
ag1196
a(S'share'
p1925
S'part'
p1926
tp1927
a(S'breathe'
p1928
S'respirer'
p1929
tp1930
asS'lessons'
p1931
(lp1932
g1571
ag1574
ag1577
ag1599
ag1586
ag1589
ag1601
ag1592
a(S'warm'
p1933
S'chaud'
p1934
tp1935
a(S'fungi'
p1936
S'champignons'
p1937
tp1938
asg588
(lp1939
(S'sharply'
p1940
S'nettement'
p1941
tp1942
ag564
ag352
ag581
a(S'roared'
p1943
S'rugit'
p1944
tp1945
ag68
a(S'twin'
p1946
S'double'
p1947
tp1948
a(S'gray'
p1949
S'gris'
p1950
tp1951
ag1138
ag94
asS'lee'
p1952
(lp1953
(S'cause'
p1954
S'cause'
p1955
tp1956
a(S'hey'
p1957
S'h\xc3\xa9'
p1958
tp1959
ag905
a(S'easy'
p1960
S'facile'
p1961
tp1962
a(S'jordan'
p1963
g1963
tp1964
a(S'hoping'
p1965
S'esp\xc3\xa9rant'
p1966
tp1967
a(S'expelled'
p1968
S'exclu'
p1969
tp1970
a(S'twisted'
p1971
S'tordu'
p1972
tp1973
ag920
ag926
asg525
(lp1974
g1143
a(S'keep'
p1975
S'garder'
p1976
tp1977
ag515
a(S'exams'
p1978
S'examens'
p1979
tp1980
a(S'dreams'
p1981
S'r\xc3\xaaves'
p1982
tp1983
a(S'tell'
p1984
S'dire'
p1985
tp1986
a(S'trying'
p1987
S'essayer'
p1988
tp1989
a(S'underneath'
p1990
S'dessous'
p1991
tp1992
a(S'often'
p1993
S'souvent'
p1994
tp1995
ag254
asg379
(lp1996
g378
ag191
ag1883
ag1203
ag321
ag1886
ag1889
ag1892
ag1895
ag1898
asS'human'
p1997
(lp1998
(S'hair'
p1999
S'cheveux'
p2000
tp2001
a(S'trees'
p2002
S'arbres'
p2003
tp2004
a(S'clutching'
p2005
S'serrant'
p2006
tp2007
a(S'unicorns'
p2008
S'licornes'
p2009
tp2010
a(S'knowing'
p2011
S'connaissance'
p2012
tp2013
a(S'dead'
p2014
S'mort'
p2015
tp2016
a(S'firenze'
p2017
S'firenze'
p2018
tp2019
a(S'desperate'
p2020
S'd\xc3\xa9sesp\xc3\xa9r\xc3\xa9'
p2021
tp2022
a(S'tree'
p2023
S'arbre'
p2024
tp2025
a(S'joke'
p2026
S'blague'
p2027
tp2028
asg1887
(lp2029
(S'stamp'
p2030
S'timbre'
p2031
tp2032
a(S'dormitory'
p2033
S'dortoir'
p2034
tp2035
ag905
a(S'looks'
p2036
S'regards'
p2037
tp2038
ag1964
a(g1952
S'lee'
p2039
tp2040
ag1970
ag1973
ag923
ag1967
asS'stared'
p2041
(lp2042
g1324
a(S'lips'
p2043
S'l\xc3\xa8vres'
p2044
tp2045
a(S'ground'
p2046
S'terrain'
p2047
tp2048
a(S'nostrils'
p2049
S'narines'
p2050
tp2051
a(S'times'
p2052
S'fois'
p2053
tp2054
a(S'lies'
p2055
S'mensonges'
p2056
tp2057
a(S'dare'
p2058
S'oser'
p2059
tp2060
a(S'move'
p2061
S'mouvement'
p2062
tp2063
ag111
ag1221
asS'hours'
p2064
(lp2065
g1119
ag131
a(g64
S'interdit'
p2066
tp2067
ag1638
ag74
ag358
ag77
ag68
ag83
ag94
asg1700
(lp2068
(S'places'
p2069
S'lieux'
p2070
tp2071
ag1684
ag1661
ag873
ag963
a(S'owlery'
p2072
S'voli\xc3\xa8re'
p2073
tp2074
ag1545
a(S'adventure'
p2075
S'aventure'
p2076
tp2077
a(S'contact'
p2078
S'contact'
p2079
tp2080
a(S'mind'
p2081
S'esprit'
p2082
tp2083
asg1884
(lp2084
g2032
ag2035
ag1883
ag2038
ag1964
ag2040
ag1970
ag1895
ag1889
ag1967
asS'cart'
p2085
(lp2086
g131
ag68
a(S'eight'
p2087
S'huit'
p2088
tp2089
ag136
ag139
a(S'car'
p2090
S'voiture'
p2091
tp2092
a(S'television'
p2093
S't\xc3\xa9l\xc3\xa9vision'
p2094
tp2095
ag1068
ag148
ag681
asg1802
(lp2096
g1798
ag1801
ag1807
ag1810
ag1813
ag1196
ag266
ag263
a(S'cursed'
p2097
S'maudit'
p2098
tp2099
ag1816
asg1235
(lp2100
(S'different'
p2101
S'diff\xc3\xa9rent'
p2102
tp2103
ag1658
a(S'opened'
p2104
S'ouvert'
p2105
tp2106
ag1399
ag1667
a(S'book'
p2107
S'livre'
p2108
tp2109
a(S'food'
p2110
S'nourriture'
p2111
tp2112
ag1234
ag1673
ag1676
asS'path'
p2113
(lp2114
(g789
S'respiration'
p2115
tp2116
ag796
ag799
ag808
ag811
ag817
a(S'particularly'
p2117
S'particuli\xc3\xa8rement'
p2118
tp2119
a(S'walk'
p2120
S'marcher'
p2121
tp2122
ag211
a(S'warned'
p2123
S'averti'
p2124
tp2125
asg892
(lp2126
g870
ag245
a(S'finally'
p2127
S'enfin'
p2128
tp2129
ag518
ag876
ag882
ag885
ag888
ag891
a(S'impressed'
p2130
S'impressionn\xc3\xa9'
p2131
tp2132
asg1014
(lp2133
(S'lap'
p2134
S'tour'
p2135
tp2136
ag998
ag1025
a(g212
S'bois'
p2137
tp2138
ag1007
a(S'problem'
p2139
S'probl\xc3\xa8me'
p2140
tp2141
a(S'happening'
p2142
S'\xc3\xa9v\xc3\xa9nement'
p2143
tp2144
ag1013
ag1019
ag1022
asS'change'
p2145
(lp2146
g180
ag162
a(S'little'
p2147
S'peu'
p2148
tp2149
a(S'hands'
p2150
S'mains'
p2151
tp2152
ag960
a(S'silent'
p2153
S'silencieux'
p2154
tp2155
a(S'scarlet'
p2156
S'\xc3\xa9carlate'
p2157
tp2158
a(S'fell'
p2159
S'abattre'
p2160
tp2161
a(S'storm'
p2162
S'temp\xc3\xaate'
p2163
tp2164
a(S'celebrating'
p2165
S'c\xc3\xa9l\xc3\xa9brer'
p2166
tp2167
asS'squashy'
p2168
(lp2169
g131
ag68
a(S'favorite'
p2170
S'favori'
p2171
tp2172
ag134
ag139
a(S'tables'
p2173
S'tableaux'
p2174
tp2175
ag142
a(S'bald'
p2176
S'chauve'
p2177
tp2178
a(S'crowded'
p2179
S'bond\xc3\xa9'
p2180
tp2181
ag347
asg238
(lp2182
g216
ag237
a(S'fixed'
p2183
S'fix\xc3\xa9'
p2184
tp2185
ag587
ag599
a(S'moaned'
p2186
S'g\xc3\xa9mit'
p2187
tp2188
ag228
ag1415
a(S'fighting'
p2189
S'combat'
p2190
tp2191
ag89
asg1311
(lp2192
g1301
a(S'corner'
p2193
S'coin'
p2194
tp2195
ag1304
a(S'shame'
p2196
S'honte'
p2197
tp2198
ag43
ag1307
a(g1297
S'march\xc3\xa9'
p2199
tp2200
ag61
ag1316
ag1319
asS'neville'
p2201
(lp2202
(S'stunned'
p2203
S'\xc3\xa9tourdi'
p2204
tp2205
a(S'first'
p2206
S'premier'
p2207
tp2208
a(S'mark'
p2209
S'marque'
p2210
tp2211
ag714
a(S'years'
p2212
S'ans'
p2213
tp2214
a(S'course'
p2215
S'cours'
p2216
tp2217
a(S'marks'
p2218
S'marques'
p2219
tp2220
a(S'put'
p2221
S'mettre'
p2222
tp2223
a(S'best'
p2224
S'meilleur'
p2225
tp2226
a(S'goyle'
p2227
S'goyle'
p2228
tp2229
asg1056
(lp2230
g131
ag68
ag134
ag136
ag139
ag151
ag142
ag145
ag148
ag347
asS'brilliant'
p2231
(lp2232
(g1320
S'rouge'
p2233
tp2234
a(S'relieved'
p2235
S'soulag\xc3\xa9'
p2236
tp2237
a(S'calm'
p2238
S'calme'
p2239
tp2240
a(S'throw'
p2241
S'jeter'
p2242
tp2243
a(S'extremely'
p2244
S'extr\xc3\xaamement'
p2245
tp2246
a(S'quick'
p2247
S'rapide'
p2248
tp2249
ag2048
ag745
ag1221
a(S'howling'
p2250
S'hurlant'
p2251
tp2252
asg229
(lp2253
g216
ag237
ag587
ag599
ag225
ag228
a(g560
S'magie'
p2254
tp2255
ag2191
ag89
ag240
asg510
(lp2256
g515
ag1372
ag1389
ag521
ag524
ag527
ag530
ag1986
ag1375
ag536
asg1572
(lp2257
(S'excitedly'
p2258
S'excit\xc3\xa9'
p2259
tp2260
ag1580
a(S'reading'
p2261
S'lecture'
p2262
tp2263
ag1007
ag1583
ag779
ag448
a(S'mumbled'
p2264
S'marmonn\xc3\xa9'
p2265
tp2266
ag451
a(g772
S'valeur'
p2267
tp2268
asg1390
(lp2269
g1380
ag1372
ag1389
a(S'case'
p2270
S'cas'
p2271
tp2272
ag1287
ag1986
a(S'asked'
p2273
S'demand\xc3\xa9'
p2274
tp2275
ag1383
a(S'hard'
p2276
S'dur'
p2277
tp2278
ag1375
asS'sparks'
p2279
(lp2280
(S'needed'
p2281
S'n\xc3\xa9cessaire'
p2282
tp2283
ag1004
a(S'finds'
p2284
S'd\xc3\xa9couvertes'
p2285
tp2286
a(S'sorts'
p2287
S'sortes'
p2288
tp2289
a(S'wands'
p2290
S'baguettes'
p2291
tp2292
a(S'names'
p2293
S'noms'
p2294
tp2295
a(S'eh'
p2296
S'hein'
p2297
tp2298
ag1016
a(S'lines'
p2299
S'lignes'
p2300
tp2301
a(S'learn'
p2302
S'apprendre'
p2303
tp2304
asg1978
(lp2305
(S'dark'
p2306
S'sombre'
p2307
tp2308
ag1983
a(S'roughly'
p2309
S'grossi\xc3\xa8rement'
p2310
tp2311
a(S'expected'
p2312
S'attendu'
p2313
tp2314
a(S'awake'
p2315
S'\xc3\xa9veill\xc3\xa9'
p2316
tp2317
a(S'shook'
p2318
S'secoua'
p2319
tp2320
a(S'pulled'
p2321
S'tir\xc3\xa9'
p2322
tp2323
ag1992
ag254
a(S'common'
p2324
S'commun'
p2325
tp2326
asg648
(lp2327
g638
ag641
a(S'window'
p2328
S'fen\xc3\xaatre'
p2329
tp2330
ag653
a(S'color'
p2331
S'couleur'
p2332
tp2333
ag1962
a(g1931
S'le\xc3\xa7ons'
p2334
tp2335
ag644
ag1938
ag1935
asg1106
(lp2336
g131
a(S'pumpkin'
p2337
S'citrouille'
p2338
tp2339
ag578
ag1111
ag139
ag68
ag1412
ag1114
ag358
ag94
asg673
(lp2340
g663
ag669
ag666
ag672
ag136
ag1497
ag1773
ag678
ag148
ag681
asg1831
(lp2341
g424
ag1827
ag1004
ag2289
ag504
ag2295
ag2283
a(S'lamp'
p2342
S'lampe'
p2343
tp2344
a(S'sleeve'
p2345
S'manche'
p2346
tp2347
ag1328
asS'glittering'
p2348
(lp2349
(S'show'
p2350
S'spectacle'
p2351
tp2352
ag1611
a(S'written'
p2353
S'\xc3\xa9crit'
p2354
tp2355
a(S'pretend'
p2356
S'pr\xc3\xa9tendre'
p2357
tp2358
ag1970
a(S'temper'
p2359
S'humeur'
p2360
tp2361
a(g2279
S'\xc3\xa9tincelles'
p2362
tp2363
a(S'shoulders'
p2364
S'\xc3\xa9paules'
p2365
tp2366
ag1842
a(S'blocked'
p2367
S'bloqu\xc3\xa9'
p2368
tp2369
asS'eyebrows'
p2370
(lp2371
(S'thousands'
p2372
S'milliers'
p2373
tp2374
a(g1774
S'jumeaux'
p2375
tp2376
ag1125
a(g2064
S'heures'
p2377
tp2378
a(g1519
S'passer'
p2379
tp2380
ag1529
a(S'gotta'
p2381
S'dois'
p2382
tp2383
a(S'map'
p2384
S'carte'
p2385
tp2386
a(S'happily'
p2387
S'heureusement'
p2388
tp2389
a(S'poking'
p2390
S'piquer'
p2391
tp2392
asS'beautiful'
p2393
(lp2394
g1143
a(S'seems'
p2395
S'semble'
p2396
tp2397
ag1155
a(S'possession'
p2398
S'possession'
p2399
tp2400
ag1158
ag1161
a(S'answer'
p2401
S'r\xc3\xa9ponse'
p2402
tp2403
a(S'time'
p2404
S'temps'
p2405
tp2406
a(g1139
S'soupira'
p2407
tp2408
a(S'shall'
p2409
S'doit'
p2410
tp2411
asS'followed'
p2412
(lp2413
(S'sixteen'
p2414
S'seize'
p2415
tp2416
a(S'transfiguration'
p2417
S'm\xc3\xa9tamorphose'
p2418
tp2419
a(S'unusual'
p2420
S'inhabituel'
p2421
tp2422
a(g2370
S'sourcils'
p2423
tp2424
a(S'jump'
p2425
S'sauter'
p2426
tp2427
ag2380
ag2283
ag1016
a(S'wake'
p2428
S'r\xc3\xa9veiller'
p2429
tp2430
a(S'opposite'
p2431
S'oppos\xc3\xa9'
p2432
tp2433
asg1308
(lp2434
(S'fudge'
p2435
S'caramel'
p2436
tp2437
a(g95
S'r\xc3\xa9sultats'
p2438
tp2439
ag43
a(g1395
S'dix'
p2440
tp2441
a(S'forgotten'
p2442
S'oubli\xc3\xa9'
p2443
tp2444
ag99
ag174
ag58
ag61
a(S'famous'
p2445
S'c\xc3\xa9l\xc3\xa8bre'
p2446
tp2447
asg1083
(lp2448
g131
ag68
ag1079
ag358
ag2424
ag2380
a(S'warmth'
p2449
S'chaleur'
p2450
tp2451
ag564
ag2433
ag94
asg502
(lp2452
g424
ag1328
ag427
ag1713
ag501
ag436
ag498
ag433
ag442
ag430
asg740
(lp2453
(S'amazed'
p2454
S'\xc3\xa9tonn\xc3\xa9'
p2455
tp2456
a(S'stuck'
p2457
S'coll\xc3\xa9'
p2458
tp2459
a(S'muttering'
p2460
S'murmurant'
p2461
tp2462
ag736
a(S'luck'
p2463
S'chance'
p2464
tp2465
a(S'roll'
p2466
S'rouleau'
p2467
tp2468
a(S'paper'
p2469
S'papier'
p2470
tp2471
ag739
a(S'line'
p2472
S'ligne'
p2473
tp2474
ag748
asS'explained'
p2475
(lp2476
g131
ag68
ag672
ag2089
ag136
ag139
ag1068
ag148
ag145
ag681
asS'gryffindor'
p2477
(lp2478
g685
a(S'fifty'
p2479
S'cinquante'
p2480
tp2481
a(g682
S'ceux'
p2482
tp2483
ag165
ag688
ag168
ag697
ag694
ag700
ag63
asg623
(lp2484
g604
ag610
ag616
ag613
ag619
ag622
ag866
ag628
ag631
a(g749
S'd\xc3\xa9sol\xc3\xa9'
p2485
tp2486
asS'brought'
p2487
(lp2488
g1175
a(S'two'
p2489
S'deux'
p2490
tp2491
ag1184
ag1187
ag1178
a(S'thinks'
p2492
S'pense'
p2493
tp2494
ag1664
a(g1168
S'mourir'
p2495
tp2496
ag2129
ag2132
asS'severus'
p2497
(lp2498
(S'whether'
p2499
S'si'
p2500
tp2501
ag1510
ag1513
a(S'seem'
p2502
S'para\xc3\xaetre'
p2503
tp2504
a(S'sharp'
p2505
S'net'
p2506
tp2507
ag1206
ag1212
ag1359
ag1094
ag1224
asS'addressed'
p2508
(lp2509
g663
ag675
ag669
ag666
ag672
ag136
ag1497
ag1773
ag678
ag681
asS'send'
p2510
(lp2511
(S'thrown'
p2512
S'jet\xc3\xa9'
p2513
tp2514
a(S'thanks'
p2515
S'merci'
p2516
tp2517
ag1399
a(S'need'
p2518
S'besoin'
p2519
tp2520
a(S'surprise'
p2521
S'surprise'
p2522
tp2523
ag882
a(S'barrier'
p2524
S'barri\xc3\xa8re'
p2525
tp2526
ag2220
ag894
a(S'ticket'
p2527
S'billet'
p2528
tp2529
asg1132
(lp2530
g131
ag89
ag71
ag831
ag358
ag68
ag86
ag564
ag91
ag94
asg1594
(lp2531
(S'helped'
p2532
S'aid\xc3\xa9'
p2533
tp2534
a(S'rid'
p2535
S'd\xc3\xa9barrasser'
p2536
tp2537
a(S'shed'
p2538
S'hangar'
p2539
tp2540
ag2383
ag2376
a(S'turning'
p2541
S'tournant'
p2542
tp2543
a(S'icy'
p2544
S'glac\xc3\xa9'
p2545
tp2546
a(S'marble'
p2547
S'marbre'
p2548
tp2549
ag2389
a(S'early'
p2550
S't\xc3\xb4t'
p2551
tp2552
asg1244
(lp2553
g1228
a(S'draco'
p2554
S'drago'
p2555
tp2556
ag2106
ag1399
ag1231
ag2109
ag1234
ag1237
ag1240
ag1402
asg1674
(lp2557
g1798
a(g1794
S'dessus'
p2558
tp2559
ag1196
ag162
ag102
ag1813
ag1804
ag1658
ag266
a(S'albus'
p2560
S'albus'
p2561
tp2562
asS'would'
p2563
(lp2564
(g1
S'oublier'
p2565
tp2566
ag5
ag8
ag17
ag20
ag23
ag26
a(S'life'
p2567
S'vie'
p2568
tp2569
ag29
ag32
asS'hospital'
p2570
(lp2571
g2249
a(S'weeks'
p2572
S'semaines'
p2573
tp2574
ag2240
ag616
ag1353
a(S'blood'
p2575
S'sang'
p2576
tp2577
ag619
ag879
a(S'wing'
p2578
S'aile'
p2579
tp2580
a(S'unicorn'
p2581
S'licorne'
p2582
tp2583
asg1457
(lp2584
g131
a(S'witchcraft'
p2585
S'sorcellerie'
p2586
tp2587
ag663
ag68
a(S'telephone'
p2588
S't\xc3\xa9l\xc3\xa9phone'
p2589
tp2590
ag136
ag1068
a(S'stare'
p2591
S'regard'
p2592
tp2593
ag148
ag681
asS'visit'
p2594
(lp2595
g1122
ag1526
ag1429
a(S'socks'
p2596
S'chaussettes'
p2597
tp2598
ag240
ag68
ag1641
a(S'news'
p2599
S'nouvelles'
p2600
tp2601
ag1537
a(S'single'
p2602
S'unique'
p2603
tp2604
asg2489
(lp2605
g1324
ag248
ag260
ag309
ag864
ag2048
ag1215
a(S'rolled'
p2606
S'roul\xc3\xa9'
p2607
tp2608
a(S'arm'
p2609
S'bras'
p2610
tp2611
ag1221
asS'privet'
p2612
(lp2613
g131
ag68
a(S'oliver'
p2614
S'olivier'
p2615
tp2616
ag134
a(S'squeezed'
p2617
S'comprim\xc3\xa9'
p2618
tp2619
ag139
ag358
ag989
ag151
ag94
asg44
(lp2620
g99
ag269
a(g2393
S'beau'
p2621
tp2622
ag2397
ag1161
ag2411
ag1155
ag2406
ag2408
ag2403
asg1002
(lp2623
g424
ag1328
ag1331
ag1128
ag2144
ag1334
ag1336
ag504
ag2295
ag1134
asS'live'
p2624
(lp2625
(S'made'
p2626
S'fabriqu\xc3\xa9'
p2627
tp2628
ag509
a(S'cant'
p2629
S'pente'
p2630
tp2631
a(S'candy'
p2632
S'bonbons'
p2633
tp2634
a(S'funny'
p2635
S'dr\xc3\xb4le'
p2636
tp2637
ag1664
a(S'man'
p2638
S'homme'
p2639
tp2640
a(g2487
S'apport\xc3\xa9'
p2641
tp2642
a(S'should'
p2643
S'devrait'
p2644
tp2645
ag1858
asS'unpleasant'
p2646
(lp2647
(S'oh'
p2648
S'oh'
p2649
tp2650
ag1307
a(S'after'
p2651
S'apr\xc3\xa8s'
p2652
tp2653
a(S'looking'
p2654
S'recherche'
p2655
tp2656
a(S'good'
p2657
S'bon'
p2658
tp2659
a(S'terrified'
p2660
S'terrifi\xc3\xa9'
p2661
tp2662
a(S'shocked'
p2663
S'choqu\xc3\xa9'
p2664
tp2665
ag58
a(S'vernon'
p2666
g2666
tp2667
ag1316
asS'call'
p2668
(lp2669
(S'friend'
p2670
S'ami'
p2671
tp2672
a(S'destroyed'
p2673
S'd\xc3\xa9truit'
p2674
tp2675
ag2051
ag2054
ag2063
a(g2041
S'regard\xc3\xa9'
p2676
tp2677
a(S'flamel'
p2678
S'flamel'
p2679
tp2680
ag111
ag260
ag263
asg2238
(lp2681
g610
ag2249
ag2574
ag1353
ag616
ag2577
ag619
ag879
ag2580
ag2583
asS'wondering'
p2682
(lp2683
g131
a(g821
S'jardin'
p2684
tp2685
ag825
ag828
ag831
ag358
ag77
ag68
ag80
ag94
asS'teeth'
p2686
(lp2687
g2628
a(S'delicious'
p2688
S'd\xc3\xa9licieux'
p2689
tp2690
a(g2624
S'vivre'
p2691
tp2692
ag1033
a(g1026
S'difficult\xc3\xa9'
p2693
tp2694
ag1036
ag1039
a(S'found'
p2695
S'trouv\xc3\xa9'
p2696
tp2697
a(S'old'
p2698
S'vieux'
p2699
tp2700
ag1054
asS'mysterious'
p2701
(lp2702
g68
ag575
a(g2612
g2612
tp2703
a(S'shelves'
p2704
S'\xc3\xa9tag\xc3\xa8res'
p2705
tp2706
ag2619
ag584
ag593
ag2616
ag564
ag94
asS'armchairs'
p2707
(lp2708
g131
a(S'welcome'
p2709
S'bienvenue'
p2710
tp2711
ag68
a(S'armor'
p2712
S'armure'
p2713
tp2714
ag71
ag94
ag358
a(S'broken'
p2715
S'cass\xc3\xa9'
p2716
tp2717
ag564
a(S'duel'
p2718
S'duel'
p2719
tp2720
asS'bowl'
p2721
(lp2722
g2355
a(S'mars'
p2723
S'mars'
p2724
tp2725
ag1010
a(S'liked'
p2726
S'aim\xc3\xa9'
p2727
tp2728
a(S'wants'
p2729
S'veut'
p2730
tp2731
a(S'anger'
p2732
S'col\xc3\xa8re'
p2733
tp2734
a(S'history'
p2735
S'histoire'
p2736
tp2737
a(S'ronan'
p2738
S'ronan'
p2739
tp2740
a(S'simply'
p2741
S'simplement'
p2742
tp2743
a(S'onto'
p2744
S'sur'
p2745
tp2746
asg1984
(lp2747
g1143
ag1977
ag1190
ag1983
ag254
a(S'truth'
p2748
S'v\xc3\xa9rit\xc3\xa9'
p2749
tp2750
ag1924
ag1927
ag1995
a(S'nicolas'
p2751
S'nicolas'
p2752
tp2753
asS'more'
p2754
(lp2755
(S'saying'
p2756
S'disant'
p2757
tp2758
a(S'wanted'
p2759
S'voulu'
p2760
tp2761
a(S'pointed'
p2762
S'pointu'
p2763
tp2764
ag2205
a(S'since'
p2765
S'depuis'
p2766
tp2767
a(S'rest'
p2768
S'reste'
p2769
tp2770
a(S'worried'
p2771
S'inquiet'
p2772
tp2773
a(S'afraid'
p2774
S'peur'
p2775
tp2776
a(S'really'
p2777
S'vraiment'
p2778
tp2779
a(S'strange'
p2780
S'\xc3\xa9trange'
p2781
tp2782
asg2398
(lp2783
g2397
a(S'thing'
p2784
S'chose'
p2785
tp2786
ag1161
ag2622
ag2411
ag177
ag1155
ag2406
ag2408
ag2403
asg1943
(lp2787
g131
ag1942
ag68
ag134
ag139
ag1948
ag148
ag94
ag151
ag1744
asg1543
(lp2788
g2071
a(S'headmaster'
p2789
S'directeur'
p2790
tp2791
a(S'steal'
p2792
S'voler'
p2793
tp2794
ag1554
ag2103
ag2074
ag1566
ag2077
ag2080
ag2083
asS'door'
p2795
(lp2796
g2129
ag1661
ag1284
ag1377
ag269
ag2773
ag393
ag2779
ag2782
ag2132
asg121
(lp2797
(g2570
S'h\xc3\xb4pital'
p2798
tp2799
a(S'hold'
p2800
S'tenir'
p2801
tp2802
ag2249
ag2240
ag2063
ag2580
a(S'master'
p2803
S'ma\xc3\xaetre'
p2804
tp2805
a(S'shop'
p2806
S'boutique'
p2807
tp2808
a(S'finding'
p2809
S'd\xc3\xa9couverte'
p2810
tp2811
a(S'desperately'
p2812
S'd\xc3\xa9sesp\xc3\xa9r\xc3\xa9ment'
p2813
tp2814
asg1040
(lp2815
(S'table'
p2816
S'table'
p2817
tp2818
ag957
ag873
a(g950
S'chaque'
p2819
tp2820
ag1036
ag963
ag966
ag1045
a(S'seat'
p2821
S'si\xc3\xa8ge'
p2822
tp2823
ag969
asg1925
(lp2824
g2051
ag1190
ag2063
ag1924
ag257
ag111
ag266
ag263
a(S'snake'
p2825
S'serpent'
p2826
tp2827
ag2608
asg1893
(lp2828
g2032
ag2035
ag1883
ag2038
ag1964
ag2040
ag1970
ag1886
ag1889
ag1967
asg2218
(lp2829
g102
ag126
ag114
a(S'three'
p2830
S'trois'
p2831
tp2832
ag111
ag159
ag2523
ag2057
ag123
a(S'twelve'
p2833
S'douze'
p2834
tp2835
asS'envelope'
p2836
(lp2837
g663
ag136
ag669
ag666
ag672
ag675
ag1773
ag678
ag148
ag681
asg1691
(lp2838
g1681
ag1684
ag1687
ag1690
ag1696
ag1702
a(g2795
S'porte'
p2839
tp2840
ag1705
ag1708
a(g1677
S'sauv\xc3\xa9'
p2841
tp2842
asg698
(lp2843
g2481
ag2483
ag165
ag688
ag171
ag1485
ag694
ag697
ag63
a(S'fire'
p2844
S'feu'
p2845
tp2846
asg1384
(lp2847
g1172
a(S'top'
p2848
S'haut'
p2849
tp2850
a(S'close'
p2851
S'pr\xc3\xa8s'
p2852
tp2853
ag1190
a(S'tight'
p2854
S'serr\xc3\xa9'
p2855
tp2856
ag1921
ag1383
ag295
ag2496
ag1199
asg1017
(lp2857
g1013
ag998
ag1025
ag2138
ag2144
ag2386
ag2136
ag448
ag2392
a(g1623
S'obscurit\xc3\xa9'
p2858
tp2859
asg1535
(lp2860
g131
ag68
ag1421
ag139
ag358
ag1412
ag564
ag1418
ag151
ag94
asg1933
(lp2861
g1571
ag1574
ag1577
ag1599
ag1007
ag1586
ag1589
ag1601
ag1592
ag1938
asS'everywhere'
p2862
(lp2863
g131
ag216
ag68
ag139
ag358
ag77
ag145
ag564
ag151
ag94
asg1922
(lp2864
g2045
ag1810
ag2051
ag2057
ag2063
ag257
ag111
ag263
ag2827
ag2608
asg1940
(lp2865
g131
ag68
ag134
ag139
a(S'ends'
p2866
S'extr\xc3\xa9mit\xc3\xa9s'
p2867
tp2868
ag142
ag1948
ag148
ag94
ag1744
asS'excellent'
p2869
(lp2870
g825
ag94
ag2598
a(S'eagerly'
p2871
S'avidement'
p2872
tp2873
a(S'becoming'
p2874
S'devenir'
p2875
tp2876
ag68
a(S'pairs'
p2877
S'paires'
p2878
tp2879
ag567
ag2601
ag2604
asg1779
(lp2880
g1778
a(g2869
S'excellent'
p2881
tp2882
ag1784
ag77
ag825
ag1793
ag234
ag1787
ag1790
a(S'braver'
p2883
S'courageux'
p2884
tp2885
asg834
(lp2886
(S'playing'
p2887
S'jouer'
p2888
tp2889
ag604
ag848
ag839
a(S'dogs'
p2890
S'chiens'
p2891
tp2892
ag396
ag845
ag851
ag857
ag842
asg2800
(lp2893
(S'racing'
p2894
S'courses'
p2895
tp2896
a(S'easily'
p2897
S'facilement'
p2898
tp2899
a(S'breath'
p2900
S'souffle'
p2901
tp2902
ag2048
ag2063
a(S'yelled'
p2903
S'hurla'
p2904
tp2905
ag2805
ag1221
ag2811
ag2814
asS'parchment'
p2906
(lp2907
g131
a(S'rule'
p2908
S'r\xc3\xa8gle'
p2909
tp2910
ag68
a(g1393
S'force'
p2911
tp2912
ag2374
ag358
ag2380
a(S'asking'
p2913
S'demandant'
p2914
tp2915
ag564
ag94
asg670
(lp2916
g663
ag136
ag669
ag666
ag675
ag1497
ag1773
ag678
ag148
ag681
asg2738
(lp2917
g2286
a(S'hour'
p2918
S'heure'
p2919
tp2920
a(g994
S'animaux'
p2921
tp2922
ag2725
ag1010
ag2292
ag2363
ag1016
ag2743
ag2301
asg651
(lp2923
g638
ag641
ag2330
ag650
ag2333
ag1962
ag2335
ag644
ag1938
ag1935
asg47
(lp2924
(g33
S'ron'
p2925
tp2926
ag37
ag40
ag43
ag46
ag2444
ag55
ag1310
ag58
ag61
asg163
(lp2927
g688
ag156
ag180
ag2155
ag168
ag171
ag174
ag177
ag2161
ag120
asg2918
(lp2928
g2422
a(S'cauldrons'
p2929
S'chaudrons'
p2930
tp2931
a(S'happy'
p2932
S'heureux'
p2933
tp2934
a(S'class'
p2935
S'classe'
p2936
tp2937
ag2304
a(S'frightened'
p2938
S'effray\xc3\xa9'
p2939
tp2940
ag2283
ag2743
ag2725
ag1016
asg443
(lp2941
g131
ag439
ag68
ag2714
a(g2707
S'fauteuils'
p2942
tp2943
ag358
a(S'package'
p2944
S'paquet'
p2945
tp2946
ag448
ag451
ag94
asg2090
(lp2947
g131
ag663
ag68
ag2089
ag136
ag2095
ag1068
a(S'coat'
p2948
S'manteau'
p2949
tp2950
ag148
ag681
asg2356
(lp2951
g1611
ag2931
ag2740
ag2286
ag1970
ag2292
ag2301
ag2363
ag2366
ag2369
asg2072
(lp2952
g2071
ag2791
ag2794
ag2103
ag1545
ag2112
ag2077
a(S'vol'
p2953
S'vol'
p2954
tp2955
ag2080
ag2083
asS'cat'
p2956
(lp2957
g131
ag68
ag134
ag139
a(S'fierce'
p2958
S'f\xc3\xa9roce'
p2959
tp2960
ag1068
a(S'wave'
p2961
S'vague'
p2962
tp2963
ag148
ag151
a(S'dream'
p2964
S'r\xc3\xaaver'
p2965
tp2966
asg2290
(lp2967
g424
ag1328
ag1004
ag2286
ag2289
ag504
ag2295
ag2298
ag2301
ag2304
asg955
(lp2968
(g2231
S'brillant'
p2969
tp2970
ag873
ag2237
ag2240
ag963
ag2246
ag2249
ag120
ag966
ag2808
asS'nine'
p2971
(lp2972
g870
ag245
ag518
ag873
ag876
a(g1280
S'ces'
p2973
tp2974
a(S'cross'
p2975
S'traverser'
p2976
tp2977
ag888
ag891
ag894
asS'hermione'
p2978
(lp2979
g2926
ag2650
a(S'where'
p2980
S'o\xc3\xb9'
p2981
tp2982
a(g2646
S'd\xc3\xa9sagr\xc3\xa9able'
p2983
tp2984
ag708
ag2653
ag2659
ag720
ag2665
ag1905
asg2302
(lp2985
g424
ag1328
a(S'glancing'
p2986
S'regardant'
p2987
tp2988
ag998
ag1025
ag1334
ag2295
ag1013
ag2386
ag2392
asg645
(lp2989
g638
ag641
ag2330
ag650
ag2333
ag1962
ag2335
ag644
ag653
ag1935
asS'making'
p2990
(lp2991
(S'even'
p2992
S'm\xc3\xaame'
p2993
tp2994
a(S'elixir'
p2995
S'\xc3\xa9lixir'
p2996
tp2997
ag2208
ag2211
a(S'potions'
p2998
S'potions'
p2999
tp3000
a(S'gold'
p3001
S'or'
p3002
tp3003
ag2214
ag2226
ag2229
a(g2201
g2201
tp3004
asg1259
(lp3005
g3003
ag2997
ag1264
ag1267
ag1270
ag410
ag1273
a(S'sometimes'
p3006
S'parfois'
p3007
tp3008
ag1454
ag1276
asg2547
(lp3009
(S'term'
p3010
S'terme'
p3011
tp3012
ag2537
a(g1433
S'bacon'
p3013
tp3014
ag1436
ag2543
ag2546
a(S'report'
p3015
S'rapport'
p3016
tp3017
ag2540
ag2552
ag2266
asg2735
(lp3018
g2422
ag2934
ag2725
ag1010
ag2731
ag2734
ag2743
ag2937
ag1016
ag2746
asg594
(lp3019
g131
ag1942
ag68
ag590
ag358
ag581
ag1945
ag1951
ag1138
ag94
asS'heart'
p3020
(lp3021
g1821
ag2419
ag2422
a(S'piece'
p3022
S'pi\xc3\xa8ce'
p3023
tp3024
ag2920
a(S'cake'
p3025
S'g\xc3\xa2teau'
p3026
tp3027
ag2725
ag2304
ag2743
a(S'walls'
p3028
S'murs'
p3029
tp3030
asS'hagrid'
p3031
(lp3032
g2628
ag1681
ag1684
ag1687
ag1693
ag1699
ag1702
ag1705
ag1708
ag2842
asS'hamburger'
p3033
(lp3034
g131
ag663
ag68
ag136
a(g1486
S'rue'
p3035
tp3036
ag1068
a(S'shops'
p3037
S'boutiques'
p3038
tp3039
ag148
ag145
ag681
asg1764
(lp3040
g1821
ag2352
a(g1817
S'nouveau'
p3041
tp3042
ag1824
ag1088
ag1830
ag1836
ag1839
ag1842
ag1845
asg243
(lp3043
g876
ag873
ag2794
ag117
ag2063
ag2112
ag257
ag882
ag885
ag260
asg214
(lp3044
g237
ag2185
ag587
ag599
ag2188
ag228
ag1415
ag2191
ag89
ag240
asg1071
(lp3045
g68
ag1076
ag1097
a(S'halt'
p3046
S'arr\xc3\xaat'
p3047
tp3048
ag1518
ag2451
a(S'least'
p3049
S'moins'
p3050
tp3051
ag2430
ag2433
ag1079
asg186
(lp3052
g191
ag194
ag197
ag200
ag203
ag206
ag208
ag211
ag656
ag659
asg453
(lp3053
g457
ag765
ag460
ag463
ag469
ag811
ag466
a(S'unfortunately'
p3054
S'malheureusement'
p3055
tp3056
a(S'number'
p3057
S'nombre'
p3058
tp3059
a(S'keys'
p3060
S'cl\xc3\xa9s'
p3061
tp3062
asg339
(lp3063
g131
ag68
ag134
ag344
ag139
a(S'perfect'
p3064
S'parfait'
p3065
tp3066
ag151
ag148
ag145
ag347
asS'dragons'
p3067
(lp3068
g1821
ag1599
ag905
ag1938
ag2335
a(S'ears'
p3069
S'ou\xc3\xafe'
p3070
tp3071
ag1592
ag3030
a(g3020
S'coeur'
p3072
tp3073
ag1935
asg106
(lp3074
g248
ag105
ag251
ag1152
ag1149
ag120
ag272
ag260
ag254
ag257
asg1262
(lp3075
g404
ag407
ag410
a(S'cup'
p3076
S'tasse'
p3077
tp3078
ag1267
a(S'seen'
p3079
S'vu'
p3080
tp3081
ag416
ag419
a(S'nearly'
p3082
S'presque'
p3083
tp3084
a(S'game'
p3085
S'jeu'
p3086
tp3087
asg709
(lp3088
g1903
ag1284
ag2767
a(S'believe'
p3089
S'croire'
p3090
tp3091
ag2776
ag1293
ag1290
ag888
ag2974
ag729
asg281
(lp3092
g1279
ag2496
ag298
ag289
ag1383
ag292
ag295
ag286
ag1389
ag1386
asS'allowed'
p3093
(lp3094
g2517
ag2520
ag2523
a(g2971
S'neuf'
p3095
tp3096
ag2977
ag2220
a(S'moved'
p3097
S'd\xc3\xa9m\xc3\xa9nag\xc3\xa9'
p3098
tp3099
a(g2510
S'envoyer'
p3100
tp3101
a(S'surprised'
p3102
S'surpris'
p3103
tp3104
ag43
asg2505
(lp3105
g1510
ag1513
ag2504
ag1206
ag1515
ag1212
ag1359
ag1094
ag1224
a(g2497
S'severus'
p3106
tp3107
asg1378
(lp3108
g1983
ag1977
ag387
ag1287
ag1377
ag254
ag393
ag1448
ag1451
ag1296
asg198
(lp3109
g635
ag194
ag197
ag203
ag647
ag206
ag650
ag211
ag656
ag659
asg226
(lp3110
g599
ag2185
a(g348
S'capitaine'
p3111
tp3112
ag587
ag590
ag2188
ag1415
ag564
ag2191
ag89
asg293
(lp3113
g1172
ag2970
ag1190
a(S'dry'
p3114
S'sec'
p3115
tp3116
a(S'thinking'
p3117
S'r\xc3\xa9flexion'
p3118
tp3119
ag1383
ag2496
ag2753
ag1386
ag1199
asg1232
(lp3120
g1798
ag2559
ag1196
ag2106
ag1399
ag162
ag2109
ag1813
ag1804
ag2562
asg548
(lp3121
g277
ag280
ag1279
ag283
ag541
ag292
ag301
ag556
ag304
ag559
asg446
(lp3122
g2260
ag439
ag776
ag2263
ag2943
ag779
ag2946
ag2266
ag451
ag2268
asg2390
(lp3123
g131
ag1638
ag1630
ag358
ag1635
ag2882
ag68
ag2386
ag1644
ag94
asg2264
(lp3124
g1102
ag1105
ag3012
ag776
ag3014
ag779
ag225
ag1436
ag3017
ag787
asS'grass'
p3125
(lp3126
(S'youknowwho'
p3127
S'tusaisqui'
p3128
tp3129
ag131
ag1627
a(S'bring'
p3130
S'apporter'
p3131
tp3132
ag358
ag68
ag2366
ag1016
ag2859
ag94
asg373
(lp3133
g1501
ag1504
a(S'stuff'
p3134
S'truc'
p3135
tp3136
a(S'taking'
p3137
S'prise'
p3138
tp3139
a(S'tiny'
p3140
S'minuscule'
p3141
tp3142
ag940
a(S'threw'
p3143
S'jeta'
p3144
tp3145
a(S'explain'
p3146
S'expliquer'
p3147
tp3148
a(S'soon'
p3149
S'bient\xc3\xb4t'
p3150
tp3151
a(S'invisible'
p3152
S'invisible'
p3153
tp3154
asg1856
(lp3155
g2631
ag2634
a(S'take'
p3156
S'prendre'
p3157
tp3158
ag1861
ag2637
ag1867
ag2640
ag2645
ag1876
ag1879
asg1814
(lp3159
g2308
ag1798
ag1801
ag1807
ag1810
ag2013
a(g1997
S'humain'
p3160
tp3161
a(S'asleep'
p3162
S'endormi'
p3163
tp3164
ag2010
ag263
asg2401
(lp3165
g1143
ag2397
ag1146
ag1155
ag2622
ag1158
ag1161
ag1164
ag2406
ag2408
asg478
(lp3166
g474
ag1651
ag1653
ag194
ag908
ag483
ag486
ag489
ag492
ag495
asg1299
(lp3167
g1307
ag717
ag2662
a(S'petunia'
p3168
S'p\xc3\xa9tunia'
p3169
tp3170
ag714
ag1316
a(S'stood'
p3171
S'r\xc3\xa9sist\xc3\xa9'
p3172
tp3173
ag726
a(S'behind'
p3174
S'derri\xc3\xa8re'
p3175
tp3176
a(S'aunt'
p3177
S'tante'
p3178
tp3179
asg2435
(lp3180
g876
ag381
ag2794
ag2246
ag2465
ag2112
a(S'black'
p3181
S'noir'
p3182
tp3183
a(S'ice'
p3184
S'glace'
p3185
tp3186
ag885
ag2447
asg602
(lp3187
g2889
a(S'staircase'
p3188
S'escalier'
p3189
tp3190
ag762
a(S'wind'
p3191
S'vent'
p3192
tp3193
ag1751
ag1344
ag2892
a(S'nervous'
p3194
S'nerveux'
p3195
tp3196
ag1218
ag2486
asg1603
(lp3197
g1596
ag2416
ag2534
ag2537
ag2937
a(S'nerves'
p3198
S'nerfs'
p3199
tp3200
ag2988
ag2546
a(g2906
S'parchemin'
p3201
tp3202
ag2549
asS'plant'
p3203
(lp3204
(g832
S's\xc3\xa9ance'
p3205
tp3206
ag836
ag848
a(S'faces'
p3207
S'visages'
p3208
tp3209
ag842
ag839
ag851
ag854
a(S'chest'
p3210
S'poitrine'
p3211
tp3212
ag860
asg1023
(lp3213
g2138
ag1632
ag1426
ag2263
ag2144
ag448
a(S'also'
p3214
S'aussi'
p3215
tp3216
ag2136
ag2386
ag2392
asS'cupboard'
p3217
(lp3218
g131
ag663
ag672
ag136
ag1068
ag678
a(g2836
S'enveloppe'
p3219
tp3220
ag145
ag148
ag681
asg1853
(lp3221
g509
ag512
ag2441
ag533
ag530
a(g505
S'sorcier'
p3222
tp3223
a(S'busy'
p3224
S'occup\xc3\xa9'
p3225
tp3226
a(S'point'
p3227
S'point'
p3228
tp3229
ag521
ag1873
asg1387
(lp3230
g1172
ag1372
ag1375
ag2856
ag1383
ag2850
ag295
ag2496
ag1386
ag1199
asg316
(lp3231
g309
ag607
ag312
a(g305
S'suivre'
p3232
tp3233
ag864
ag324
ag619
ag625
ag866
ag336
asg803
(lp3234
g1716
ag1719
ag1722
a(S'panic'
p3235
S'panique'
p3236
tp3237
a(S'drive'
p3238
S'drive'
p3239
tp3240
ag1728
ag1731
ag3030
ag1725
a(g1709
S'section'
p3241
tp3242
asg2651
(lp3243
g2195
ag2650
ag1307
ag2982
ag2984
ag2659
ag2665
ag58
ag894
ag1316
asg2101
(lp3244
g2791
ag114
ag2794
ag2955
ag739
ag2112
ag742
ag745
ag748
ag336
asg425
(lp3245
g424
ag439
ag445
ag433
ag436
ag2943
ag2946
ag68
ag448
ag451
asg461
(lp3246
g68
ag1079
a(g3067
S'dragons'
p3247
tp3248
ag905
ag811
a(g2412
S'suivi'
p3249
tp3250
a(S'pay'
p3251
S'payer'
p3252
tp3253
ag1085
ag3071
ag469
asS'birthday'
p3254
(lp3255
g131
ag68
ag134
ag1850
ag139
ag145
a(S'touched'
p3256
S'touch\xc3\xa9'
p3257
tp3258
ag148
ag151
ag94
asS'snape'
p3259
(lp3260
(S'being'
p3261
S'\xc3\xa9tant'
p3262
tp3263
a(S'hand'
p3264
S'main'
p3265
tp3266
a(S'place'
p3267
S'lieu'
p3268
tp3269
ag544
ag691
a(S'professor'
p3270
S'professeur'
p3271
tp3272
ag547
ag553
ag1167
ag2846
asg2575
(lp3273
g610
ag2574
ag1203
ag616
ag321
ag1209
ag879
ag1353
ag1892
ag2583
asg464
(lp3274
g940
ag937
ag3248
ag905
ag460
ag463
ag811
ag3253
ag3071
ag469
asg1156
(lp3275
g248
ag1146
ag251
ag1152
ag1149
ag272
ag260
ag1164
ag254
ag257
asg2961
(lp3276
g131
ag68
ag672
ag134
ag136
ag139
ag1068
ag148
ag145
ag2966
asg2134
(lp3277
g216
ag2138
ag219
ag222
ag225
ag228
ag231
ag234
ag237
ag240
asg2638
(lp3278
g2491
ag1187
ag1178
ag2494
ag1664
ag2637
ag2496
ag2642
ag2129
ag2132
asS'short'
p3279
(lp3280
g131
ag68
ag672
ag134
ag136
ag139
ag1068
ag145
ag148
ag151
asg1840
(lp3281
g1821
ag1824
ag1827
ag2740
ag1836
ag2920
ag2922
ag2363
ag1830
ag1839
asg258
(lp3282
g2045
ag1810
ag2051
ag2057
ag2060
ag2063
ag2048
ag111
ag263
ag1221
asg562
(lp3283
g131
ag68
ag2616
ag352
ag134
ag139
ag581
ag1945
ag1138
ag94
asg2179
(lp3284
(S'boat'
p3285
S'bateau'
p3286
tp3287
a(S'compartment'
p3288
S'compartiment'
p3289
tp3290
ag68
ag131
ag134
ag136
ag139
ag1068
ag145
ag148
asS'light'
p3291
(lp3292
g477
ag486
ag480
ag390
ag483
a(g470
S'baron'
p3293
tp3294
ag203
ag489
ag492
ag495
asg2299
(lp3295
g424
ag1328
ag1004
ag2289
ag1334
ag1336
ag504
ag2295
ag2298
ag1134
asS'knew'
p3296
(lp3297
(S'owls'
p3298
S'hiboux'
p3299
tp3300
a(S'fer'
p3301
S'fer'
p3302
tp3303
ag2217
a(S'friends'
p3304
S'amis'
p3305
tp3306
ag1690
a(S'parents'
p3307
S'parents'
p3308
tp3309
ag1699
a(S'yesterday'
p3310
S'hier'
p3311
tp3312
a(S'school'
p3313
S'\xc3\xa9cole'
p3314
tp3315
ag2700
asg1936
(lp3316
g1571
ag1574
ag1577
ag1599
ag1580
ag1007
ag1586
ag1589
ag1601
ag1592
asg507
(lp3317
g512
ag515
ag2634
ag521
ag524
ag527
ag530
ag3223
ag533
ag536
asg3298
(lp3318
g954
ag1687
ag1551
ag2786
ag1690
ag1696
ag3312
ag2840
a(g1538
S'dumbledore'
p3319
tp3320
ag2217
asg12
(lp3321
g2164
ag2149
ag2152
ag960
ag11
ag2158
ag26
ag2155
a(g2145
S'changement'
p3322
tp3323
ag2167
asg2986
(lp3324
g1638
ag1632
ag1426
ag1432
ag2378
ag68
a(S'charlie'
p3325
S'charlie'
p3326
tp3327
ag1647
ag2859
ag1429
asg3251
(lp3328
g131
ag68
ag3248
ag905
ag358
ag2380
ag3071
ag564
ag151
ag94
asS'furious'
p3329
(lp3330
g2198
a(S'dear'
p3331
S'cher'
p3332
tp3333
a(S'ready'
p3334
S'pr\xc3\xaat'
p3335
tp3336
ag2529
ag1867
ag3226
a(S'nothing'
p3337
S'rien'
p3338
tp3339
a(S'too'
p3340
S'trop'
p3341
tp3342
ag1876
ag1873
asg1103
(lp3343
g1102
ag131
ag68
ag578
ag1108
ag1111
ag358
ag1436
ag1114
ag94
asg1720
(lp3344
g424
ag498
ag1713
ag501
ag427
ag433
ag442
ag430
ag504
ag1734
asg69
(lp3345
g131
ag68
ag2717
a(S'serious'
p3346
S'grave'
p3347
tp3348
ag3112
a(S'age'
p3349
S'\xc3\xa2ge'
p3350
tp3351
a(S'cats'
p3352
S'chats'
p3353
tp3354
ag89
ag91
ag94
asg3191
(lp3355
g1651
ag756
a(S'mixture'
p3356
S'm\xc3\xa9lange'
p3357
tp3358
ag460
ag1751
ag1344
a(S'jus'
p3359
S'jus'
p3360
tp3361
ag2038
ag3196
a(g2721
S'bol'
p3362
tp3363
asg1427
(lp3364
g578
ag1406
a(S'excitement'
p3365
S'excitation'
p3366
tp3367
ag1409
ag828
a(g2701
S'myst\xc3\xa9rieux'
p3368
tp3369
ag1432
ag593
ag1534
ag1537
asg862
(lp3370
g607
ag610
ag616
ag613
ag619
ag622
ag625
ag866
ag628
ag631
asg1662
(lp3371
g1175
ag2491
ag1184
ag1187
ag1178
ag2494
ag2496
ag2642
ag2129
ag2132
asg1614
(lp3372
g1827
ag998
ag1001
ag2922
ag1725
ag1010
ag1013
ag1019
ag1022
ag1025
asg777
(lp3373
g572
ag578
ag776
ag587
ag225
ag68
ag782
ag784
ag596
ag787
asg591
(lp3374
g131
ag68
ag2616
ag2703
ag2706
ag2619
ag584
ag358
ag575
ag94
asg2061
(lp3375
g2045
ag2896
ag2899
ag2051
ag2902
ag2057
ag2060
ag111
ag2811
ag2814
asg815
(lp3376
g799
ag802
ag805
ag3237
ag3240
ag793
ag814
ag820
ag3030
ag3242
asg1639
(lp3377
g2685
ag825
ag831
ag1526
ag2598
ag80
ag2255
ag2601
ag1537
ag2604
asg2212
(lp3378
g2205
ag2208
ag2211
a(g2754
S'plus'
p3379
tp3380
ag2217
ag2220
ag2223
ag2226
ag2229
ag3004
asg1011
(lp3381
g998
ag1025
ag2138
ag2144
ag448
ag2136
ag2386
ag2392
ag2859
ag1019
asg2215
(lp3382
g2764
ag2773
a(S'ravenclaw'
p3383
S'serdaigle'
p3384
tp3385
ag2523
ag2786
ag3380
ag1696
ag2840
ag2220
a(S'hufflepuff'
p3386
S'poufsouffle'
p3387
tp3388
asg2469
(lp3389
g931
ag2456
ag1359
ag2468
ag1754
ag1757
ag1763
ag934
a(S'immediately'
p3390
S'imm\xc3\xa9diatement'
p3391
tp3392
ag949
asg1446
(lp3393
g1445
ag2896
ag2802
ag2902
ag2063
ag123
ag2805
ag1451
ag2811
ag2814
asg146
(lp3394
g663
ag675
ag669
ag666
ag672
ag136
ag1497
ag1773
ag678
ag681
asS'hell'
p3395
(lp3396
(g3203
S'plante'
p3397
tp3398
ag3209
a(S'music'
p3399
S'musique'
p3400
tp3401
ag1912
ag619
ag1930
ag1915
ag857
ag3212
ag3183
asg629
(lp3402
g604
ag610
ag613
ag616
ag619
ag622
ag625
ag866
ag628
ag2486
asg2527
(lp3403
g2514
ag2045
ag3186
ag2802
ag2902
ag2465
ag1215
ag2526
ag882
ag1221
asg1052
(lp3404
g2628
ag2690
ag2692
ag1033
ag2694
ag1036
ag1039
ag2697
ag2700
a(g2686
S'dents'
p3405
tp3406
asg785
(lp3407
g572
ag578
ag587
ag599
ag225
ag68
ag782
ag784
ag596
ag94
asg1726
(lp3408
g1713
ag1716
ag1719
ag1722
ag1725
ag501
ag442
ag430
ag504
ag1734
asg367
(lp3409
g2501
ag3136
ag3250
ag1510
ag384
ag1507
ag940
ag3154
ag3148
ag946
asg2342
(lp3410
g424
ag1328
ag1331
ag1004
ag1833
ag2289
ag504
ag2295
ag2283
ag2347
asg573
(lp3411
g131
ag68
ag2616
ag2703
ag2706
ag2619
ag584
ag358
ag593
ag94
asg2673
(lp3412
g2057
ag2672
ag2051
a(g2668
S'appel'
p3413
tp3414
ag2054
ag2063
ag2677
ag2680
ag111
ag260
asg2328
(lp3415
g1571
ag641
ag1599
ag2333
ag1962
ag2335
ag1601
ag1592
ag1935
ag1938
asg706
(lp3416
g705
ag1903
ag1905
ag2776
ag720
ag711
ag723
ag729
ag732
ag1908
asS'mail'
p3417
(lp3418
g131
ag68
ag672
ag134
ag136
ag139
ag1068
ag145
ag148
ag151
asg519
(lp3419
g1143
ag512
ag515
ag533
ag524
ag527
ag530
ag3223
ag1986
ag536
asg1848
(lp3420
g131
ag68
ag134
ag977
ag139
ag983
ag986
ag148
ag3258
ag94
asS'might'
p3421
(lp3422
g1228
a(g1368
S'travail'
p3423
tp3424
ag1548
a(S'thought'
p3425
S'pens\xc3\xa9e'
p3426
tp3427
ag1560
ag2275
ag1563
ag1392
ag1246
ag1402
asg3383
(lp3428
g957
ag873
ag963
ag2155
ag3388
ag966
ag2167
ag2161
ag2164
ag969
asg1005
(lp3429
g2260
ag1580
ag2263
ag1583
ag2144
ag2136
ag448
ag2266
ag451
ag2268
asg565
(lp3430
(S'piercing'
p3431
S'per\xc3\xa7ant'
p3432
tp3433
ag68
a(g127
S'jaune'
p3434
tp3435
ag2619
ag2873
ag2879
ag1256
ag364
a(S'whispering'
p3436
S'chuchotement'
p3437
tp3438
ag94
asg2657
(lp3439
g2208
ag2211
a(g2990
S'fabrication'
p3440
tp3441
ag2653
ag3000
ag2214
ag2217
ag2226
ag2229
ag3004
asg1381
(lp3442
g1172
ag2853
ag1190
ag2856
ag1482
ag2850
ag2496
a(S'clean'
p3443
S'propre'
p3444
tp3445
ag1927
ag1199
asS'woken'
p3446
(lp3447
g2116
a(S'planets'
p3448
S'plan\xc3\xa8tes'
p3449
tp3450
a(S'except'
p3451
S'sauf'
p3452
tp3453
ag808
ag2122
ag208
ag2119
a(g2113
S'chemin'
p3454
tp3455
a(S'centaurs'
p3456
S'centaures'
p3457
tp3458
ag2125
asg2110
(lp3459
g369
ag114
ag2794
ag1513
ag2243
ag2955
ag1212
ag384
ag1748
ag1224
asg1254
(lp3460
g1058
ag131
ag68
ag134
ag983
ag139
ag1253
ag148
ag151
ag94
asg620
(lp3461
g604
ag756
ag759
ag610
ag762
ag765
ag613
ag628
ag771
ag2486
asg3313
(lp3462
g3300
ag3303
ag1687
ag3306
ag1693
ag3309
ag1699
ag3312
ag2217
ag2700
asg915
(lp3463
g1596
ag1605
ag1608
ag2920
ag1962
ag2937
ag1956
ag3200
ag2940
ag926
asg1990
(lp3464
g2308
ag1983
ag1980
ag2314
ag2311
ag2320
ag2323
ag3164
ag2317
ag2326
asg889
(lp3465
g870
ag131
ag68
ag384
ag358
ag2380
ag145
ag564
ag151
ag94
asg3028
(lp3466
g1821
ag2419
ag1716
ag1719
ag3024
ag3027
ag1725
ag1728
ag1731
ag3242
asg2825
(lp3467
g309
ag126
ag2051
ag3233
a(S'drop'
p3468
S'tomber'
p3469
tp3470
ag318
ag2234
a(S'break'
p3471
S'pause'
p3472
tp3473
ag111
ag2814
asg252
(lp3474
g1983
ag1980
ag251
ag2314
ag2311
ag2320
ag2323
ag272
ag2317
ag1992
asg493
(lp3475
g474
ag1651
ag1653
ag194
ag908
ag911
ag483
ag486
ag489
ag492
asg3127
(lp3476
g131
ag1627
ag3132
ag358
ag1635
ag68
ag2366
ag1644
ag2859
ag94
asg2414
(lp3477
g131
ag68
a(g2682
S'demande'
p3478
tp3479
ag358
ag2380
ag145
ag564
a(S'fair'
p3480
S'juste'
p3481
tp3482
ag151
ag94
asg1305
(lp3483
g2195
ag2437
ag2514
ag2198
ag2529
ag2447
ag2526
ag3342
ag1316
ag894
asg1625
(lp3484
g131
ag68
ag1635
ag3479
ag1432
ag358
ag1630
ag1641
ag1644
ag94
asg376
(lp3485
g1611
ag1613
ag905
ag1507
a(S'clearly'
p3486
S'clairement'
p3487
tp3488
ag1619
ag943
ag1616
ag946
ag1622
asg999
(lp3489
g1638
ag998
ag1025
ag1128
ag1334
ag68
ag1013
ag3327
ag1019
ag94
asg2897
(lp3490
g312
ag2902
ag2504
ag2507
ag1206
ag1209
ag3186
ag1748
a(S'books'
p3491
S'livres'
p3492
tp3493
ag3107
asg3010
(lp3494
g1102
ag131
ag68
ag1105
ag3014
ag1111
ag1436
ag1114
ag1108
ag94
asS'shouted'
p3495
(lp3496
(S'walking'
p3497
S'marche'
p3498
tp3499
ag3473
a(S'snare'
p3500
S'pi\xc3\xa8ge'
p3501
tp3502
ag2317
ag3470
ag2308
ag1921
ag126
ag2827
ag2326
asg1685
(lp3503
g1681
ag1684
ag2786
ag1693
ag1696
ag1702
ag2840
ag1705
ag1708
ag2842
asg1419
(lp3504
g1060
ag2616
ag1850
ag977
a(g337
S'chaise'
p3505
tp3506
ag980
ag361
ag986
ag364
ag989
asg135
(lp3507
g663
ag669
ag666
ag672
ag675
ag1497
ag1773
ag678
ag148
ag681
asg2052
(lp3508
g1807
ag2051
ag2022
ag2013
ag2016
ag111
ag3161
ag2063
ag3164
ag2010
asg3468
(lp3509
g309
ag126
ag312
ag3233
ag318
ag324
ag864
ag3473
ag336
ag2814
asg1031
(lp3510
g2628
ag2690
ag2692
ag1036
ag2694
ag1039
ag1042
ag3406
ag2645
ag1054
asg2457
(lp3511
g2456
ag1757
ag2462
ag2471
ag1754
ag2474
ag1763
ag2468
ag3392
ag949
asg912
(lp3512
g3129
ag1956
ag1608
ag1611
ag3132
ag1962
a(g3125
S'herbe'
p3513
tp3514
ag920
a(S'lived'
p3515
S'v\xc3\xa9cu'
p3516
tp3517
ag926
asg1665
(lp3518
g2970
ag1658
ag3116
ag3119
a(S'quickly'
p3519
S'rapidement'
p3520
tp3521
ag1237
a(S'voice'
p3522
S'voix'
p3523
tp3524
ag2753
ag1673
ag1676
asg791
(lp3525
g1076
ag1097
ag805
ag3237
ag3240
ag814
ag1518
ag820
ag3030
ag3242
asg2748
(lp3526
g2672
ag1190
a(S'delighted'
p3527
S'ravi'
p3528
tp3529
ag2680
ag1924
ag257
ag1927
ag2753
ag1164
a(S'pull'
p3530
S'tirer'
p3531
tp3532
asg2695
(lp3533
g2195
ag2514
ag2198
ag2770
ag963
ag2167
ag1048
ag3342
ag969
a(S'toad'
p3534
S'crapaud'
p3535
tp3536
asg617
(lp3537
g604
ag610
ag613
ag616
ag327
ag622
ag625
ag866
ag628
ag631
asg270
(lp3538
g248
ag2051
ag251
ag2057
ag2063
ag257
ag111
ag260
ag263
ag2827
asg124
(lp3539
g309
ag312
ag3233
ag3470
ag318
ag324
ag864
ag3473
ag336
ag2814
asg2296
(lp3540
g424
ag1328
ag1004
ag2289
ag1128
ag1334
ag1336
ag504
ag2295
ag1134
asg2384
(lp3541
g131
ag1638
ag1635
ag358
ag1630
ag2882
ag68
ag1644
ag2392
ag94
asg695
(lp3542
g2481
ag2483
ag165
ag688
ag171
ag1485
ag694
ag700
ag63
ag2846
asg2075
(lp3543
g2071
ag1175
ag1181
ag2791
ag1184
ag1187
ag2794
ag1178
ag2103
ag2083
asg2276
(lp3544
g2272
ag1383
ag1190
ag1986
ag2750
ag1924
ag1927
ag2753
ag1164
ag1296
asg1416
(lp3545
g131
ag68
ag139
ag358
ag1412
ag142
ag364
ag145
ag151
ag94
asg2165
(lp3546
g1442
ag248
ag3473
ag162
ag180
ag2155
ag2832
ag120
ag2835
ag2161
asg3491
(lp3547
g3151
ag1073
ag1507
ag1501
ag937
ag914
ag940
ag3250
ag2427
a(S'reminded'
p3548
S'rappel\xc3\xa9'
p3549
tp3550
asg310
(lp3551
g454
ag457
ag315
a(S'bite'
p3552
S'mordre'
p3553
tp3554
ag463
ag327
ag466
ag3186
ag330
a(S'trust'
p3555
S'confiance'
p3556
tp3557
asg1871
(lp3558
g509
ag512
ag2441
ag1855
ag533
ag530
ag3223
ag3229
ag3226
ag521
asg858
(lp3559
g3206
ag836
ag839
ag396
ag845
ag848
ag851
ag854
ag857
ag842
asS'girl'
p3560
(lp3561
g68
a(S'witches'
p3562
S'sorci\xc3\xa8res'
p3563
tp3564
a(S'plate'
p3565
S'plaque'
p3566
tp3567
a(S'ha'
p3568
S'ha'
p3569
tp3570
ag980
a(S'doors'
p3571
S'portes'
p3572
tp3573
a(g2168
S'moelleux'
p3574
tp3575
a(S'pockets'
p3576
S'poches'
p3577
tp3578
a(S'pig'
p3579
S'cochon'
p3580
tp3581
ag94
asg657
(lp3582
g635
ag638
ag641
ag2330
ag650
ag2333
ag2335
ag647
ag644
ag653
asg794
(lp3583
g799
ag802
ag805
ag808
ag3240
ag793
ag3148
ag814
ag817
ag820
asg1799
(lp3584
g309
ag2060
ag864
ag1347
ag1215
ag1353
ag1356
ag3056
ag1341
ag2099
asg455
(lp3585
g811
ag460
ag454
ag384
a(S'beat'
p3586
S'battre'
p3587
tp3588
ag463
ag1209
ag466
ag1359
ag469
asg2196
(lp3589
g372
ag114
ag2794
ag2514
ag2955
ag2112
ag126
ag882
ag3342
ag2529
asg3188
(lp3590
g1651
ag756
ag3358
ag765
ag3193
ag460
ag1751
ag1344
ag3361
ag3196
asg2712
(lp3591
g131
a(g3560
S'fille'
p3592
tp3593
ag2711
ag68
ag2717
ag94
ag2873
ag567
ag3578
ag2720
asg1552
(lp3594
g2071
ag1542
ag1557
ag2103
ag2074
ag1545
ag1566
ag2077
ag2080
ag2083
asg2765
(lp3595
g2758
ag2761
ag1146
ag2970
ag2770
ag3091
ag2776
ag1293
ag295
a(S'order'
p3596
S'ordre'
p3597
tp3598
asg160
(lp3599
g1798
ag2559
ag1804
ag1810
ag1813
ag1196
ag266
ag263
ag1816
ag2562
asg2654
(lp3600
g2650
a(g3329
S'furieux'
p3601
tp3602
ag3336
ag2984
ag3333
ag2653
ag2659
ag2665
ag3339
ag2667
asg1173
(lp3603
g3206
ag3398
ag836
a(S'happen'
p3604
S'arriver'
p3605
tp3606
ag1184
ag851
ag854
ag3473
ag1181
ag860
asg2521
(lp3607
g2045
ag102
ag114
ag111
ag159
ag2057
ag2063
ag1810
ag123
ag126
asg3386
(lp3608
g1442
ag248
ag1658
ag2832
ag180
ag2103
ag162
ag2835
ag2167
ag1676
asg1954
(lp3609
g1596
ag1605
ag1608
a(S'bin'
p3610
S'coffre'
p3611
tp3612
ag2537
ag2937
ag3200
ag2534
ag2940
ag3202
asg2560
(lp3613
g1798
ag2559
ag1804
ag1810
ag1813
ag1196
ag1801
ag266
ag263
ag1816
asg428
(lp3614
g424
ag427
ag445
ag501
ag436
ag498
ag433
ag442
ag504
ag448
asg484
(lp3615
g474
ag899
ag1651
ag1653
ag902
ag905
ag908
ag911
ag917
ag923
asg2591
(lp3616
g663
ag68
ag1367
ag669
ag672
ag675
ag678
ag148
ag136
ag681
asg2541
(lp3617
g1102
ag68
ag1105
ag3012
ag3014
ag1436
ag3017
ag2540
ag2266
ag94
asg2524
(lp3618
g876
ag2045
ag2802
ag2529
ag2465
ag1215
ag3186
ag882
ag885
ag1221
asS'harry'
p3619
(lp3620
g401
ag2926
ag1304
ag40
ag49
a(g2563
S'voudrais'
p3621
tp3622
ag413
a(g397
S'semblait'
p3623
tp3624
ag2200
a(S'he'
p3625
S'il'
p3626
tp3627
asg551
(lp3628
g277
ag280
ag541
ag544
ag1167
ag547
ag550
ag301
ag556
ag304
asg718
(lp3629
g705
ag1903
ag708
ag1905
ag2776
ag711
ag723
ag729
ag732
ag1908
asg1706
(lp3630
g245
ag1681
ag1684
ag1661
ag2071
ag873
ag1687
ag963
ag1702
ag1705
asg987
(lp3631
g131
a(S'stick'
p3632
S'b\xc3\xa2ton'
p3633
tp3634
ag68
ag341
ag134
ag344
ag3506
ag2175
ag347
ag94
asg576
(lp3635
g596
ag1421
ag1850
ag590
ag581
ag1945
ag2339
ag986
ag1951
ag1138
asS'hogwarts'
p3636
(lp3637
(S'bad'
p3638
S'mauvais'
p3639
tp3640
ag99
ag46
ag2556
ag108
ag2634
ag3081
ag2132
ag3087
ag269
asS'imagine'
p3641
(lp3642
g131
ag663
ag68
ag1490
ag136
ag3036
ag1068
ag148
ag681
ag1492
asg2221
(lp3643
g2764
ag2205
ag1670
ag1667
ag3380
ag1237
ag1673
a(g1654
S'donnant'
p3644
tp3645
a(S'which'
p3646
S'qui'
p3647
tp3648
ag1402
asg1440
(lp3649
g248
ag1810
ag2051
ag2063
ag3473
ag111
ag260
ag263
ag2827
ag266
asg2759
(lp3650
g2758
ag2970
ag2237
ag2243
ag2246
ag2234
ag2112
ag2794
ag1221
ag3598
asg2512
(lp3651
g372
ag2802
ag114
ag2054
ag2677
ag2063
ag2112
ag882
ag2805
ag3342
asg823
(lp3652
g94
ag68
ag3351
ag831
ag2598
ag567
ag2879
ag2873
ag2601
ag2604
asg1365
(lp3653
g663
ag675
ag669
ag666
ag672
ag136
ag1773
ag678
ag148
ag681
asg2704
(lp3654
g131
ag68
ag2616
ag2703
ag134
ag2619
ag139
ag358
ag989
ag94
asg2929
(lp3655
g424
ag2416
ag1004
ag2934
ag2920
ag2937
ag504
ag2940
ag2283
ag1328
asg2792
(lp3656
g114
ag1203
ag2243
ag2955
ag2112
ag3186
ag1356
ag3056
ag3059
ag3493
asg385
(lp3657
g369
ag372
ag375
ag378
ag381
ag396
ag390
ag3488
ag384
ag943
asg1549
(lp3658
g2622
ag1542
ag1554
ag1557
ag2074
ag2400
ag1545
ag2411
ag1566
ag2080
asg1896
(lp3659
g2040
ag2032
ag2035
ag1883
ag2038
ag1964
ag321
ag1895
ag1889
ag1886
asg1975
(lp3660
g1983
ag1980
ag2314
ag2311
ag2320
ag2323
ag1989
ag2317
ag1992
ag254
asg2784
(lp3661
g2397
ag1161
ag2622
ag2400
ag2840
ag2411
ag177
ag2406
ag2408
ag2403
asg3267
(lp3662
g3263
a(g3421
S'puissance'
p3663
tp3664
ag3266
ag2786
ag2622
ag2400
ag168
ag691
ag177
ag3427
asg1480
(lp3665
g3499
ag3502
a(g3495
S'cria'
p3666
tp3667
ag2827
ag2853
ag3470
ag1921
ag2850
ag126
ag3445
asg809
(lp3668
g799
ag3248
ag802
ag805
ag814
ag793
ag3253
ag3071
ag820
ag905
asg2998
(lp3669
g2208
ag2211
ag2217
a(S'hoped'
p3670
S'esp\xc3\xa9r\xc3\xa9'
p3671
tp3672
ag2659
ag2214
ag3441
ag2226
ag2229
ag3004
asS'footsteps'
p3673
(lp3674
g185
ag2001
ag188
ag191
a(g181
S'connu'
p3675
tp3676
ag200
ag203
ag208
ag211
a(S'poor'
p3677
S'pauvres'
p3678
tp3679
asg2848
(lp3680
g3499
ag3502
ag3667
ag2827
ag2853
ag3470
ag1482
ag1921
ag126
ag3445
asS'silver'
p3681
(lp3682
g957
ag11
ag963
ag2158
ag2167
ag966
ag1042
ag1045
ag3388
ag969
asg2206
(lp3683
g2205
ag2211
ag3380
ag2214
ag2217
ag2220
ag2223
ag2226
ag2229
ag3004
asS'rang'
p3684
(lp3685
g131
ag2988
ag1331
ag358
ag68
ag2378
ag2380
ag564
ag151
ag94
asg1564
(lp3686
g2071
ag2791
ag1554
ag2103
ag2074
ag1545
ag2077
a(S'mouth'
p3687
S'bouche'
p3688
tp3689
ag2080
ag2083
asg1043
(lp3690
g957
ag873
a(S'between'
p3691
S'entre'
p3692
tp3693
ag1036
ag969
ag963
ag2823
ag1042
ag966
ag2818
asg1216
(lp3694
g2892
ag1651
ag756
ag3190
ag762
ag3193
ag460
ag1751
ag1344
ag3196
asS'threatening'
p3695
(lp3696
g309
ag454
ag457
ag312
ag2016
ag324
ag327
ag330
ag619
ag336
asg62
(lp3697
g156
ag159
ag2437
ag165
ag2109
ag120
ag171
ag174
ag177
ag2447
asg3057
(lp3698
g2352
ag3062
ag3139
ag765
a(g2348
S'\xc3\xa9tincelant'
p3699
tp3700
ag3151
ag2355
ag2361
ag1842
ag946
asg534
(lp3701
g1143
ag1977
ag515
ag1980
ag1983
ag524
ag1986
ag1995
ag527
ag254
asS'merrily'
p3702
(lp3703
g131
ag68
ag139
ag358
ag2876
ag83
ag145
ag564
ag151
ag94
asg1100
(lp3704
g131
ag68
ag578
ag358
ag1108
ag139
ag1111
ag1114
ag564
ag94
asg154
(lp3705
g102
a(S'wish'
p3706
S'souhaiter'
p3707
tp3708
a(S'obvious'
p3709
S'\xc3\xa9vident'
p3710
tp3711
ag159
ag2109
ag120
ag2323
ag123
a(S'gotten'
p3712
S'obtenu'
p3713
tp3714
a(S'real'
p3715
S'r\xc3\xa9el'
p3716
tp3717
asg2688
(lp3718
g2628
ag2692
ag1033
ag2694
ag1039
ag2697
ag2700
ag3406
ag2645
ag1054
asg1074
(lp3719
g131
ag2376
ag1097
ag2424
ag68
ag2422
ag2451
ag2389
ag358
ag94
asg840
(lp3720
g2889
ag604
ag848
ag839
ag2892
ag396
ag3190
ag845
ag857
ag1218
asg667
(lp3721
g663
ag675
ag666
ag672
ag136
ag1497
ag1773
ag678
ag148
ag681
asg1477
(lp3722
g1476
ag102
ag105
ag108
ag162
a(S'george'
p3723
S'george'
p3724
tp3725
a(g1472
S'deuxi\xc3\xa8me'
p3726
tp3727
ag120
ag123
ag1485
asg3723
(lp3728
g2896
ag2899
ag2237
ag2902
ag1813
ag123
ag1989
ag2814
ag2811
ag2808
asg388
(lp3729
g477
ag378
ag480
ag3488
ag483
ag3294
ag489
ag492
a(g3291
S'lumi\xc3\xa8re'
p3730
tp3731
ag495
asS'idea'
p3732
(lp3733
g1143
ag2278
ag1284
ag1287
a(S'moment'
p3734
S'moment'
p3735
tp3736
ag1290
ag1380
ag1293
ag2974
ag1296
asg1505
(lp3737
g2419
ag1079
ag3024
ag2934
ag3027
ag1085
ag2451
ag2940
ag3051
ag2433
asg1063
(lp3738
g131
ag663
ag68
ag672
ag136
a(S'dirty'
p3739
S'sale'
p3740
tp3741
ag1068
ag148
ag145
ag681
asg542
(lp3742
g277
ag280
ag541
ag1167
ag547
ag550
ag553
ag301
ag556
ag304
asg2153
(lp3743
g102
ag2791
ag162
ag180
ag2103
ag2832
ag120
ag123
ag2835
ag2161
asg3198
(lp3744
g2910
ag2534
ag2537
ag2540
ag2937
ag2543
ag2546
ag3202
ag2549
ag2552
asg1129
(lp3745
g131
ag216
ag68
ag139
ag358
ag1537
ag145
ag564
ag151
ag94
asg3552
(lp3746
g937
ag384
ag802
ag3588
ag1082
ag1209
ag1515
ag1359
ag1094
ag3557
asg232
(lp3747
g216
ag89
ag219
ag222
ag225
ag228
ag231
ag2191
ag237
ag240
asg1971
(lp3748
g1959
ag1605
ag1956
ag3200
ag2422
ag2304
ag3202
ag2366
ag2734
ag2746
asg3049
(lp3749
g2416
ag2419
ag2988
ag998
ag1025
ag3024
ag3048
ag3027
ag2376
ag2389
asg1112
(lp3750
g131
ag2339
ag1108
ag139
ag1111
ag68
ag1412
ag358
ag151
ag94
asg1752
(lp3751
g931
ag1970
ag934
ag937
ag1962
ag940
a(S'rules'
p3752
S'r\xc3\xa8gles'
p3753
tp3754
ag1757
ag3154
ag949
asg2281
(lp3755
g424
ag1328
ag1122
ag1331
ag1125
ag1128
ag1131
ag1336
ag2295
ag1134
asg3359
(lp3756
g3358
ag2355
ag1010
ag2728
ag2731
ag2734
ag2737
ag2743
ag3363
ag2746
asS'seeker'
p3757
(lp3758
g2422
ag3612
ag3132
ag2920
ag2725
ag2304
ag1013
ag2743
ag1019
ag1022
asg2803
(lp3759
g312
ag2896
ag2802
ag2902
ag324
ag2063
ag619
ag2899
ag2811
ag2814
asg3340
(lp3760
g3598
ag123
ag2514
ag2198
ag963
ag1199
ag882
ag1658
ag3532
ag1676
asg2162
(lp3761
g1658
ag2556
ag162
ag180
ag2155
ag120
ag1234
ag2161
ag2167
ag1676
asg746
(lp3762
g2456
ag2459
ag2462
ag736
ag2465
ag2471
ag739
ag742
ag2474
ag2468
asg1247
(lp3763
g1228
ag717
ag714
ag1231
ag1234
ag1237
ag726
ag1240
ag1243
ag1246
asg3288
(lp3764
g131
ag68
a(S'tape'
p3765
S'bande'
p3766
tp3767
a(S'crash'
p3768
S'fracas'
p3769
tp3770
ag139
ag3036
ag1068
a(g3641
S'imaginer'
p3771
tp3772
ag148
ag681
asg2777
(lp3773
g1284
ag387
ag251
ag1152
ag1377
ag1149
ag2773
ag393
ag272
ag2782
asg2890
(lp3774
g2889
ag756
ag3190
ag762
ag3193
ag460
ag1751
ag1344
ag3196
ag1218
asg2670
(lp3775
g2675
ag3414
ag2054
ag2063
ag2677
ag2680
ag257
ag260
ag263
ag2608
asg1682
(lp3776
g2071
ag248
ag1661
ag873
ag1152
ag963
ag1149
ag1702
ag269
ag3689
asg639
(lp3777
g638
ag2330
ag1599
ag2333
ag1962
ag2335
ag1601
ag1592
ag1938
ag1935
asg402
(lp3778
g407
ag410
ag3078
ag3081
ag416
ag1264
ag419
ag3084
ag3087
a(S'understand'
p3779
S'comprendre'
p3780
tp3781
asg1329
(lp3782
g1119
ag131
ag2067
ag1638
ag1122
ag1125
ag1131
ag68
ag1336
ag94
asg1397
(lp3783
g1442
ag248
ag1181
ag2106
ag1184
ag1175
ag2109
ag1234
ag3473
ag3606
asg1782
(lp3784
g1778
ag2882
ag1781
ag1128
ag3327
ag825
ag1790
ag1787
ag1793
ag2885
asg2235
(lp3785
g2902
ag2896
ag2899
ag3725
ag2243
ag123
ag312
ag2808
ag2811
ag2814
asg932
(lp3786
g931
ag1970
ag1959
ag937
ag1962
ag940
ag3550
ag3754
ag3154
ag949
asg178
(lp3787
(g1337
S'petit'
p3788
tp3789
ag114
ag2794
a(S'yet'
p3790
S'encore'
p3791
tp3792
ag2060
ag1350
ag2112
ag1353
ag2099
ag2252
asg359
(lp3793
g1058
ag131
ag68
ag134
ag355
ag139
ag993
ag148
ag151
ag94
asS'punished'
p3794
(lp3795
g369
ag375
ag1209
ag1341
ag2501
a(S'decided'
p3796
S'd\xc3\xa9cid\xc3\xa9'
p3797
tp3798
ag1748
ag1359
ag3557
ag3145
asg906
(lp3799
g899
ag902
ag905
ag1962
ag911
ag914
ag917
ag920
ag923
ag926
asg1963
(lp3800
g1959
ag905
ag1962
ag2040
ag926
ag1970
ag1973
ag914
ag920
ag1967
asg15
(lp3801
g2566
ag5
ag8
ag11
ag14
ag20
ag23
ag26
ag29
ag32
asg3089
(lp3802
g3598
ag2970
ag2237
ag3725
ag1813
ag1293
ag123
ag1989
ag1445
ag2808
asg481
(lp3803
g474
ag1651
ag1653
ag480
ag194
ag908
ag486
ag489
ag492
ag495
asg21
(lp3804
g5
ag8
ag2149
ag2152
ag11
ag14
ag20
ag26
ag3323
ag32
asg2425
(lp3805
g131
ag2419
ag2422
ag358
ag2380
ag2424
ag68
ag564
ag2430
ag94
asg2093
(lp3806
g131
ag1459
ag68
ag2089
ag136
ag663
ag1068
ag2950
ag148
ag681
asg78
(lp3807
g131
ag68
ag831
ag139
ag358
ag564
ag145
ag567
ag151
ag94
asg169
(lp3808
g156
ag1542
ag174
ag1554
ag1557
ag2074
ag1545
ag1566
ag2077
ag2080
asg743
(lp3809
g2459
ag848
ag2462
ag736
ag2465
ag748
ag739
ag742
ag2474
ag336
asg3712
(lp3810
g1215
ag3453
ag3708
ag3711
ag1347
a(S'forehead'
p3811
S'front'
p3812
tp3813
ag2060
a(g3446
S'r\xc3\xa9veill\xc3\xa9'
p3814
tp3815
ag3717
ag1353
asg2381
(lp3816
g131
ag216
ag68
ag139
ag358
ag142
ag145
ag564
ag151
ag94
asg2147
(lp3817
g156
ag2164
ag2152
ag960
ag2155
ag2158
ag2161
ag3323
ag2167
ag180
asg2023
(lp3818
g185
ag2001
ag188
ag191
ag3676
a(g3673
S'traces'
p3819
tp3820
ag203
ag208
ag3679
ag2028
asg1162
(lp3821
g1442
ag248
ag1146
ag251
ag1152
ag1149
ag1158
ag272
ag260
ag254
asg769
(lp3822
g753
ag1611
ag759
ag765
ag914
ag902
ag920
ag3517
ag768
ag1967
asg3796
(lp3823
g369
ag375
a(g3794
S'puni'
p3824
tp3825
ag1209
ag1341
ag2501
ag3145
ag1748
ag1359
ag3557
asg2948
(lp3826
g131
ag2587
ag663
ag68
ag136
ag1459
ag1068
ag145
ag148
ag681
asg1620
(lp3827
g1596
ag131
ag2419
ag68
ag3612
ag358
ag2380
ag564
ag151
ag94
asg399
(lp3828
g2517
ag954
ag52
ag2820
ag2520
ag413
ag3624
ag55
ag3099
ag3101
asg1474
(lp3829
g102
ag105
ag1479
ag162
ag2794
ag108
ag3727
ag117
ag120
ag123
asg2020
(lp3830
g185
ag2001
ag2004
ag3676
ag2007
ag2019
ag3820
ag2025
ag3679
ag2028
asg1636
(lp3831
g2882
ag2598
ag74
ag77
ag825
ag68
ag1534
ag89
ag2601
ag94
asg754
(lp3832
g753
ag1651
ag759
ag3358
ag765
ag3361
ag2728
ag768
ag771
ag3363
asg2420
(lp3833
g2988
ag998
ag1025
ag2424
ag2376
ag2304
ag1013
ag2389
ag1019
ag1022
asg1805
(lp3834
g1801
ag2004
ag2010
ag2013
ag2016
ag2019
ag3161
ag3164
ag2022
ag2099
asg1546
(lp3835
g1380
ag512
ag3424
ag1372
ag1375
ag1560
ag2275
ag1563
ag1389
ag1392
asg1590
(lp3836
g1571
ag1574
ag1577
ag1599
ag1580
ag1007
ag1583
ag1586
ag1589
ag1601
asg1739
(lp3837
g3290
ag131
ag68
ag3767
ag134
ag136
ag139
ag1068
ag145
ag148
asg487
(lp3838
g474
ag899
ag1651
ag1653
ag902
ag908
ag911
ag486
ag923
ag492
asg2518
(lp3839
g3323
ag2517
ag2149
ag2526
ag2220
ag3099
ag3101
ag2529
ag2164
ag43
asg3079
(lp3840
g3640
ag248
ag126
ag2556
ag2832
ag2835
ag2611
ag3087
ag269
ag3689
asg2502
(lp3841
g1510
ag1513
ag2507
ag1206
ag1515
ag1212
ag1359
ag1094
ag1224
ag3107
asg1080
(lp3842
g2416
ag2422
ag1076
ag1097
ag802
ag2424
ag1085
ag1091
ag2433
ag1079
asg3486
(lp3843
g1501
ag1073
ag378
ag1613
ag905
ag1518
ag3151
ag1619
ag943
ag946
asS'ollivander'
p3844
(lp3845
g131
a(g1767
S'uniforme'
p3846
tp3847
ag1462
ag1465
a(S'road'
p3848
S'route'
p3849
tp3850
ag1770
ag3066
ag68
a(S'underground'
p3851
S'souterrain'
p3852
tp3853
ag151
asg53
(lp3854
g2764
ag2556
ag1399
ag159
ag52
ag2523
ag3388
ag2832
ag2835
ag2167
asg2774
(lp3855
g2758
ag2761
ag1903
ag2970
ag2767
ag2770
ag3091
ag1293
ag295
ag3598
asg1811
(lp3856
g1798
ag1801
ag1804
ag1807
ag1810
ag1196
ag266
ag263
ag2099
ag1816
asg2055
(lp3857
g369
ag2045
ag2462
ag3825
ag2507
ag1209
ag1341
ag375
ag3798
ag1748
asg1410
(lp3858
g1058
ag131
ag68
ag134
ag139
ag361
ag1256
ag364
ag151
ag94
asS'able'
p3859
(lp3860
(S'find'
p3861
S'trouver'
p3862
tp3863
ag280
ag1548
ag3664
a(S'head'
p3864
S't\xc3\xaate'
p3865
tp3866
ag1560
ag2275
ag1563
ag3320
ag1392
asg2663
(lp3867
g2195
ag2650
ag1307
ag2198
ag2437
ag2984
ag2653
ag2662
ag58
ag1316
asS'zoo'
p3868
(lp3869
g131
ag68
ag134
ag3850
ag139
a(g3844
S'ollivander'
p3870
tp3871
ag3066
ag1068
ag3853
ag151
asg1785
(lp3872
g825
ag1429
ag77
ag2882
ag1793
a(g1530
S'parapluie'
p3873
tp3874
ag1790
ag2885
ag240
ag1537
asg2387
(lp3875
g1778
ag2376
ag1781
ag1784
ag3482
ag1790
ag1529
ag1787
ag1793
ag2885
asg3210
(lp3876
g477
a(S'distant'
p3877
S'lointain'
p3878
tp3879
ag839
ag3209
ag480
ag3401
ag3294
ag857
ag390
ag3731
asg967
(lp3880
g1451
ag957
ag873
ag1287
ag963
ag1290
ag1293
ag966
ag1448
ag2974
asg2331
(lp3881
g1571
ag1599
ag1962
ag1586
ag2335
ag1589
ag1601
ag1592
ag1935
ag1938
asg3156
(lp3882
g245
ag876
ag102
ag873
ag2799
ag2974
ag882
ag885
ag891
ag2808
asg3646
(lp3883
g2764
ag2205
ag1670
a(S'means'
p3884
S'moyens'
p3885
tp3886
ag1667
ag3380
ag1237
ag2223
ag1673
ag3645
asg87
(lp3887
g564
ag2185
ag3112
ag3348
ag587
ag590
ag2188
ag1415
ag2191
ag599
asg2809
(lp3888
g2896
ag312
ag2902
ag2507
ag2465
ag3186
ag2899
ag1748
ag3493
ag3107
asg1491
(lp3889
g131
ag663
ag68
ag1367
ag136
ag1068
ag2593
ag148
ag145
ag681
asg2992
(lp3890
g2997
ag2208
ag2211
a(S'questions'
p3891
g3891
tp3892
ag3003
a(g3859
S'capable'
p3893
tp3894
ag3008
ag3441
ag3004
ag2214
asg183
(lp3895
g188
ag3676
ag191
ag194
ag197
ag200
ag203
ag206
ag208
ag211
asg246
(lp3896
g1442
ag2051
a(g3695
S'mena\xc3\xa7ant'
p3897
tp3898
ag2063
ag257
ag3473
ag111
ag260
ag263
ag266
asg2431
(lp3899
g131
ag216
ag68
ag3048
ag358
ag2380
ag145
ag564
ag151
ag94
asg100
(lp3900
g2501
ag378
ag390
ag2955
ag3554
ag123
ag1356
ag3488
ag1760
ag3107
asg2789
(lp3901
g114
ag2794
ag2955
ag739
ag2112
ag742
ag745
ag748
ag2103
ag336
asg837
(lp3902
g2889
ag604
ag842
ag848
ag2892
ag396
ag3190
ag845
ag857
ag1218
asg2087
(lp3903
g131
ag663
ag68
ag136
ag1459
ag1068
ag681
ag145
ag148
ag2950
asg192
(lp3904
g635
ag638
ag641
ag2330
ag650
ag644
ag647
ag653
ag656
ag659
asg195
(lp3905
g635
ag194
ag644
ag647
ag206
ag650
ag211
ag653
ag656
ag659
asg3337
(lp3906
g2514
ag2198
ag3602
ag3336
ag3333
ag1867
ag2526
ag3342
ag2529
ag1873
asS'knee'
p3907
(lp3908
g1058
ag131
ag68
a(S'brown'
p3909
S'brun'
p3910
tp3911
ag134
ag1060
ag139
ag974
ag148
ag94
asg3235
(lp3912
g1713
ag1716
ag1719
ag1722
ag1725
ag1728
ag504
ag1731
ag3242
ag1734
asg2244
(lp3913
g375
ag191
ag381
ag2462
ag1203
ag321
ag1209
ag3186
ag1892
ag1898
asg2935
(lp3914
g424
ag2534
ag1004
ag2537
ag2934
ag504
ag2546
ag2940
ag2283
ag2549
asg115
(lp3915
g2899
ag312
ag315
ag2902
ag3488
ag1613
ag2465
ag1215
ag3186
ag2474
asg1694
(lp3916
g2129
ag1661
a(S'holidays'
p3917
S'f\xc3\xaates'
p3918
tp3919
ag2786
ag2773
ag2840
ag2779
ag2782
ag2132
ag1676
asg1617
(lp3920
g1596
ag2419
ag1605
ag1608
ag3024
ag3027
ag1616
ag3200
ag1725
ag1622
asg1587
(lp3921
g2260
ag1580
ag1574
ag1577
ag2263
ag1007
ag1583
ag1586
ag448
ag2268
asg2321
(lp3922
g2308
ag1807
ag2311
ag2314
ag2317
ag2320
ag3164
ag1992
ag1816
ag2326
asg3270
(lp3923
(S'realize'
p3924
S'r\xc3\xa9aliser'
p3925
tp3926
ag3263
a(S'stiffly'
p3927
S'raide'
p3928
tp3929
ag3266
ag3269
a(g3259
S'rogue'
p3930
tp3931
ag691
ag553
a(S'pomfrey'
p3932
S'pomfresh'
p3933
tp3934
ag2846
asS'proud'
p3935
(lp3936
g131
ag68
ag1060
ag139
ag358
ag980
ag1412
a(S'concentrate'
p3937
S'concentrer'
p3938
tp3939
ag151
ag94
asg3238
(lp3940
g1716
ag1719
ag1722
ag3237
ag1725
ag1728
ag1731
ag3030
ag3242
ag1734
asg2887
(lp3941
g2892
ag756
ag3190
ag762
ag3193
ag460
ag1751
ag1344
ag3196
ag1218
asg961
(lp3942
g3598
ag2071
ag2559
ag873
ag162
ag1813
ag3532
ag2808
ag1199
ag2562
asg692
(lp3943
g2481
ag2483
ag165
ag688
ag171
ag1485
ag697
ag700
ag63
ag2846
asg3177
(lp3944
g1301
ag717
ag2662
ag3170
ag714
ag3173
ag726
ag3176
a(S'people'
p3945
S'personnes'
p3946
tp3947
ag1316
asS'mustache'
p3948
(lp3949
g663
ag136
ag669
ag666
ag672
ag675
ag1773
ag678
ag148
ag681
asg3443
(lp3950
g3499
ag3502
ag3667
ag2853
ag3470
ag1482
ag1921
ag2850
ag126
ag2827
asg1294
(lp3951
g1442
ag248
ag1164
ag2051
ag2063
ag1196
ag260
ag263
ag2827
ag266
asg1656
(lp3952
g3789
ag102
ag114
ag2794
ag2955
ag1350
ag2112
ag123
ag2099
ag1676
asg2806
(lp3953
g2799
ag2896
ag2249
ag2574
ag2240
ag2577
ag2580
ag2583
ag2811
ag2814
asg2756
(lp3954
g3598
ag2761
ag2970
ag2237
ag2243
ag2246
ag2234
ag2048
ag1221
ag2252
asg3497
(lp3955
g607
ag1810
ag631
ag318
ag864
ag2234
ag619
ag625
ag866
ag2827
asg1502
(lp3956
g2422
ag1079
ag2740
ag3132
ag2920
ag2725
ag3612
ag1085
ag2743
a(g3757
S'attrapeur'
p3957
tp3958
asg2203
(lp3959
g2764
ag2106
ag162
ag3380
ag2832
ag2109
ag1234
ag2835
ag269
ag1402
asg2350
(lp3960
g1821
ag2355
ag1836
ag2920
ag2922
ag2740
ag2363
ag1830
ag1842
ag1016
asg1144
(lp3961
g248
ag251
ag1152
ag1149
ag1158
ag272
ag260
ag1164
ag254
ag257
asg608
(lp3962
g604
ag756
ag759
ag762
ag765
ag613
ag628
ag622
ag771
ag2486
asg2479
(lp3963
g1476
ag416
ag1479
ag3081
ag3727
ag419
ag1485
ag3087
ag2846
ag404
asg408
(lp3964
g404
ag407
ag1264
ag3078
ag1267
ag3081
ag416
ag419
ag3084
ag3087
asg3130
(lp3965
g2422
ag998
ag1025
ag2725
ag1019
ag2304
ag1013
ag2743
ag2859
ag1022
asg1086
(lp3966
g1821
ag3042
ag1824
ag1827
ag1830
ag1833
ag1836
ag1839
ag1842
ag1091
asg1265
(lp3967
g404
ag407
ag1264
ag3081
ag1270
ag416
ag410
ag1273
ag419
ag3084
asg9
(lp3968
g2164
a(g3681
S'argent'
p3969
tp3970
ag2149
ag2152
ag2158
ag26
ag2155
ag2161
ag3323
ag2167
asg1916
(lp3971
g1193
ag3398
ag3209
ag1912
ag619
ag1930
ag1915
ag3212
a(g3395
S'enfer'
p3972
tp3973
ag3183
asg806
(lp3974
g799
ag796
ag802
ag805
ag3240
ag793
ag3148
ag814
ag817
ag820
asg1153
(lp3975
g1143
ag1146
ag108
ag1152
ag1149
ag1158
ag2408
ag1164
ag254
ag1161
asg3861
(lp3976
g1380
a(S'protect'
p3977
S'prot\xc3\xa9ger'
p3978
tp3979
ag3424
ag1372
ag2272
ag1287
ag3866
ag2275
ag2278
ag1392
asg2046
(lp3980
g2905
ag1347
ag3825
ag1341
ag1215
ag3798
a(S'trip'
p3981
S'voyage'
p3982
tp3983
ag1760
ag1221
ag3557
asg975
(lp3984
g131
ag68
ag134
ag139
ag983
ag2868
ag151
a(g3279
S'court'
p3985
tp3986
ag148
ag347
asg1271
(lp3987
g404
ag407
ag1264
ag1267
ag1270
ag416
ag410
ag419
ag1454
ag1276
asg3224
(lp3988
g509
ag512
ag2441
ag1855
ag533
ag530
ag3223
ag3229
ag521
ag1873
asg255
(lp3989
g1324
ag2045
ag1810
ag2051
ag2057
ag2060
ag2063
ag2608
ag111
ag3798
asg3399
(lp3990
g477
ag3879
ag480
ag390
ag483
ag3294
ag489
ag492
ag3731
ag495
asg2005
(lp3991
g185
ag2001
ag188
ag3676
ag2019
ag3820
ag208
ag2025
ag3679
ag2028
asg3194
(lp3992
g1651
ag756
ag3358
ag460
a(S'players'
p3993
S'joueurs'
p3994
tp3995
ag2361
ag3700
ag3361
a(S'dinner'
p3996
S'd\xc3\xaener'
p3997
tp3998
ag3363
asg3146
(lp3999
g1605
ag1608
ag2931
ag2920
ag3237
ag2937
ag1728
a(g3684
S'rang'
p4000
tp4001
ag1731
ag3242
asS'muggles'
p4002
(lp4003
g711
ag1290
ag2529
ag2526
ag894
ag1048
ag888
ag2974
ag969
a(S'come'
p4004
S'venir'
p4005
tp4006
asg2353
(lp4007
g2352
ag2363
ag2740
ag2920
ag2922
ag1010
ag2731
ag1842
ag1016
ag2746
asg2643
(lp4008
g509
ag2628
ag2631
ag2692
ag2634
ag2637
ag1664
ag2640
ag2642
ag1858
asg3261
(lp4009
g2406
ag1551
ag2786
ag2622
ag2400
ag691
ag2411
ag177
ag3427
ag2403
asS'tears'
p4010
(lp4011
g2481
ag1479
ag3081
ag3727
a(S'burst'
p4012
S'\xc3\xa9clat'
p4013
tp4014
ag1485
ag694
ag697
ag700
ag2846
asg3181
(lp4015
g477
ag839
ag3879
ag3209
ag3401
ag3294
ag857
ag390
ag3212
ag3731
asg3256
(lp4016
g131
ag68
ag134
ag344
ag139
ag142
ag148
ag145
ag151
ag94
asg2258
(lp4017
g68
ag776
ag94
ag779
ag225
ag782
ag784
ag2268
ag451
ag787
asg2372
(lp4018
(g2862
S'partout'
p4019
tp4020
ag77
ag68
ag131
ag2912
ag1635
ag1630
ag1644
ag2915
ag94
asg2762
(lp4021
g2205
ag102
ag2106
ag162
ag3380
ag2832
ag2109
ag1234
ag2835
ag123
asg2337
(lp4022
g131
ag68
ag134
ag139
ag2960
a(g2956
S'chat'
p4023
tp4024
a(g3868
S'zoo'
p4025
tp4026
ag148
ag151
ag94
asg1540
(lp4027
g2071
ag1661
ag1554
ag1557
ag2074
ag1545
ag1566
ag2077
ag2080
ag2083
asg3565
(lp4028
g68
ag3564
ag3570
ag2178
ag3573
ag2172
ag2175
ag3575
ag3581
ag94
asg3356
(lp4029
g2355
ag1010
ag3361
ag2728
ag2731
ag2734
ag2737
ag2743
ag3363
ag2746
asg760
(lp4030
g753
ag1651
ag756
ag759
ag3358
ag765
ag3361
ag768
ag771
ag3363
asg1028
(lp4031
g2758
ag2761
ag1903
ag2970
ag2767
ag2770
ag1667
ag2776
ag295
ag3091
asg3884
(lp4032
g2764
ag1670
ag2631
ag1667
ag1237
ag2223
ag1673
ag3645
ag3648
ag1658
asg3586
(lp4033
g384
ag802
ag937
ag1082
ag1209
ag1515
ag3554
a(S'dursleys'
p4034
S'dursley'
p4035
tp4036
ag1359
ag1094
asg3691
(lp4037
g2758
ag2761
ag957
ag2970
ag159
ag2109
ag120
ag2823
ag1051
ag2818
asg2460
(lp4038
g2456
ag2459
ag1757
ag2468
ag2474
ag1754
ag2471
ag1763
ag3392
ag949
asS'kind'
p4039
(lp4040
g131
ag68
ag139
ag358
ag83
ag564
ag145
ag599
ag151
ag94
asg2017
(lp4041
g185
ag2001
ag188
ag3676
ag2007
ag3820
ag208
ag2025
ag3679
ag2028
asg3149
(lp4042
g1501
ag1073
ag1076
ag1097
ag1518
ag1085
ag2433
ag3030
ag3958
ag1079
asg528
(lp4043
g1143
ag512
ag515
ag533
ag524
ag527
ag3223
ag1986
ag521
ag536
asg1251
(lp4044
g131
ag68
ag341
ag134
ag139
ag151
ag145
ag2181
ag148
ag347
asg686
(lp4045
g156
ag2441
ag2483
ag165
ag168
ag691
ag171
ag174
ag177
ag63
asg3082
(lp4046
g3087
ag404
ag407
ag3929
ag3081
ag3736
ag416
a(g3732
S'id\xc3\xa9e'
p4047
tp4048
ag419
ag3934
asg1159
(lp4049
g1143
ag2397
ag1146
ag108
ag1149
ag1152
ag1155
ag1158
ag2408
ag1164
asg3015
(lp4050
g1102
ag131
ag68
ag1105
ag3012
ag3014
ag358
ag1436
ag2266
ag94
asg642
(lp4051
g638
ag641
ag2330
ag1599
ag2333
ag1962
ag2335
ag1592
ag1938
ag1935
asg1755
(lp4052
g931
ag635
ag934
ag937
ag940
ag1754
ag3754
ag659
ag3154
ag949
asg1968
(lp4053
g1959
ag1611
ag1962
ag1956
ag1973
ag2363
ag2366
ag926
ag2369
ag1622
asg3054
(lp4054
g2352
ag3062
ag3139
ag765
ag1203
ag3700
ag2355
ag2361
ag1842
ag3059
asg1949
(lp4055
g131
ag1942
ag68
ag3911
ag134
ag139
ag1945
ag1948
ag148
ag94
asg2069
(lp4056
g2791
ag381
ag2794
ag2246
ag2103
ag117
ag2112
ag745
ag336
ag2083
asg2345
(lp4057
g424
ag1328
ag1331
ag1004
ag2289
ag1125
ag1336
ag504
ag2295
ag2283
asg27
(lp4058
g2566
ag3622
ag5
ag8
ag14
ag17
ag20
ag23
ag26
ag32
asg679
(lp4059
g663
ag136
ag669
ag666
ag672
ag675
ag1497
ag1773
ag678
ag148
asg1578
(lp4060
g2260
ag776
ag2263
ag1583
ag779
ag448
ag2266
ag787
ag451
ag2268
asS'bag'
p4061
(lp4062
g131
ag68
ag134
ag139
ag2868
ag1068
ag3986
ag145
ag148
ag151
asg3638
(lp4063
g248
ag126
ag2556
ag2832
ag1221
ag2835
ag2611
ag3087
ag269
ag3689
asS'stupid'
p4064
(lp4065
g372
ag2764
ag2205
ag102
ag1399
ag2514
ag3380
ag2112
ag1234
ag123
asS'she'
p4066
(lp4067
g2481
a(g1851
S'ginny'
p4068
tp4069
ag1876
ag1864
ag4014
ag697
ag1870
ag700
a(g4010
S'larmes'
p4070
tp4071
ag2846
asg3562
(lp4072
g131
ag68
ag134
ag2178
ag3573
ag2172
ag2175
ag3575
ag3581
ag94
asg996
(lp4073
g1025
ag2138
ag1632
ag1426
ag2144
ag448
ag3216
ag2136
ag2386
ag2392
asg296
(lp4074
g1172
ag1389
ag283
ag286
ag289
ag1383
ag295
ag2496
ag1386
ag1199
asg1182
(lp4075
g1175
ag3206
ag3398
ag836
ag3606
ag1178
ag854
ag3473
ag1181
ag860
asg2183
(lp4076
g131
ag1138
ag352
ag590
ag2188
ag581
ag68
ag1415
ag564
ag94
asg2980
(lp4077
g870
ag2556
ag518
ag3096
ag2977
ag882
ag894
ag891
ag888
ag2447
asg800
(lp4078
g1076
ag805
ag3237
ag1082
ag3240
ag814
ag1085
ag1091
ag820
ag3030
asg2036
(lp4079
g2032
ag2035
ag905
ag1964
ag2040
ag926
ag1970
ag1973
ag923
ag1967
asg1919
(lp4080
g3499
ag1193
ag3502
ag3667
ag3470
ag1918
ag1912
ag126
ag1915
ag2827
asS'blew'
p4081
(lp4082
g131
ag2419
ag68
ag3024
ag3027
ag1725
ag3202
ag94
ag2430
ag1622
asg3891
(lp4083
g3863
ag2997
ag1548
ag3664
ag3866
ag2275
ag3003
ag3894
ag1392
ag3781
asg3480
(lp4084
g131
ag216
ag68
ag139
ag358
ag1529
ag145
ag564
ag151
ag94
asg4012
(lp4085
g2481
ag1479
ag3081
ag3727
ag1485
ag694
ag697
ag700
ag4071
ag2846
asg757
(lp4086
g753
ag1611
ag765
ag914
ag902
ag920
ag3517
ag768
ag771
ag1967
asg1633
(lp4087
g131
ag68
ag71
ag1432
ag358
ag1630
ag1641
ag1644
ag91
ag94
asg1516
(lp4088
g2376
ag1076
ag1097
ag2424
ag68
ag2451
ag2389
ag2430
ag2433
ag94
asg1584
(lp4089
g2260
ag1580
ag1574
ag1577
ag2263
ag1007
ag1583
ag1589
ag448
ag2268
asg2821
(lp4090
g251
ag957
ag3693
ag159
ag2109
ag120
ag2112
ag272
ag2794
ag2818
asg1843
(lp4091
g1821
ag3042
ag1824
ag1827
ag1088
ag1830
ag1833
ag1836
ag1839
ag1842
asS'computer'
p4092
(lp4093
g1364
ag663
ag675
ag666
ag672
ag136
ag1497
ag678
a(g2508
S'adress\xc3\xa9e'
p4094
tp4095
ag681
asg3162
(lp4096
g2004
ag1807
ag2007
ag2010
ag2013
ag2016
ag2019
ag3161
ag2022
ag2025
asg3207
(lp4097
g477
ag839
ag3879
ag3401
ag3294
ag857
ag390
ag3212
ag3731
ag3183
asg1736
(lp4098
g3290
ag131
ag68
ag3767
ag134
ag1741
ag136
ag139
ag1068
ag148
asg2851
(lp4099
g3499
ag3502
ag3667
ag2827
ag3470
ag1482
ag1921
ag2850
ag126
ag3445
asg2609
(lp4100
g3789
ag309
ag1801
ag1807
ag1810
ag864
ag1350
ag1353
ag3714
ag2099
asg2224
(lp4101
g2208
ag2149
ag2152
ag3385
ag26
ag2214
ag2217
ag2223
ag3323
ag3004
asg1219
(lp4102
g1324
ag1215
ag1341
ag1347
ag3792
ag3825
ag2048
ag2905
ag3798
ag3983
asS'mrs'
p4103
(lp4104
g2441
ag1855
ag4069
ag1310
ag688
ag3226
ag58
ag3229
ag700
ag1873
asg570
(lp4105
g131
ag1942
ag596
ag590
ag581
ag1945
ag68
ag1951
ag1138
ag94
asg2744
(lp4106
g2374
ag2422
ag2912
ag2910
ag2141
ag68
ag1336
ag2734
ag2915
ag94
asg1776
(lp4107
g2882
ag1781
ag1784
ag77
ag825
ag1793
ag234
ag1787
ag1790
ag2885
asg797
(lp4108
g1824
ag802
ag805
ag3237
ag3240
ag793
ag814
ag820
ag3030
ag3242
asg1302
(lp4109
g1307
ag43
ag1313
ag2444
ag1310
ag2200
ag58
ag61
ag1316
ag1319
asg1711
(lp4110
g424
ag427
ag430
ag501
ag436
ag498
ag433
ag442
ag2376
ag504
asg2660
(lp4111
g1301
ag717
ag714
ag3170
ag1316
ag3173
ag726
ag3176
ag3179
ag1249
asg1077
(lp4112
g131
ag2376
ag3048
ag2424
ag68
ag2451
ag2389
ag2383
ag2433
ag94
asg2033
(lp4113
g1959
ag905
ag1964
ag2040
ag926
ag1970
ag1973
ag914
ag920
ag1967
asg3174
(lp4114
g1301
ag717
ag2662
ag3170
ag714
ag3173
ag726
ag3179
ag1316
ag1249
asg50
(lp4115
g2764
ag2556
ag1399
ag159
ag2832
ag3388
ag55
ag248
ag2835
ag2167
asg1488
(lp4116
g131
ag663
ag68
ag1367
ag136
ag1068
ag2593
ag148
ag681
ag1492
asg935
(lp4117
g1970
ag1959
ag1962
ag2427
ag940
ag1956
ag3550
ag3754
ag3154
ag1622
asg2287
(lp4118
g424
ag1328
ag1331
ag1004
ag1334
ag1336
ag504
ag2295
ag2283
ag1134
asg2261
(lp4119
g2260
ag776
ag779
ag225
ag782
ag784
ag234
ag2268
ag451
ag787
asg2186
(lp4120
g131
ag564
ag352
ag590
ag358
ag581
ag68
ag1415
ag1138
ag94
asg1723
(lp4121
g498
ag1713
ag1716
ag1719
ag1722
ag501
ag442
ag430
ag504
ag1734
asg2011
(lp4122
g2001
ag2004
ag2007
ag2010
ag2016
ag2019
ag3161
ag2022
ag2025
ag2028
asg1332
(lp4123
g131
ag2067
ag1638
ag1128
ag358
ag68
ag1336
ag86
ag1134
ag94
asg2866
(lp4124
g131
ag1738
ag68
ag134
ag1741
ag139
ag1068
ag142
ag3986
ag148
asg166
(lp4125
g156
ag180
ag685
ag162
ag159
ag2832
ag120
ag171
ag174
ag2835
asg3310
(lp4126
g3300
ag3309
ag1687
ag1705
ag1690
ag1693
ag1696
ag1699
ag2840
ag2217
asg3932
(lp4127
g3929
ag3736
ag2974
ag1284
ag4048
ag3084
ag711
ag729
ag1290
ag732
asg2606
(lp4128
g1324
ag2045
ag2048
ag111
ag748
ag2057
ag2060
ag745
ag2051
ag336
asS'attention'
p4129
(lp4130
g1670
ag3427
ag3886
ag1861
ag3664
ag2977
a(S'taken'
p4131
S'pris'
p4132
tp4133
ag2223
ag3645
ag3648
asg1703
(lp4134
g245
ag2071
ag1684
ag873
a(g241
S'sommeil'
p4135
tp4136
ag963
ag2637
ag1702
ag2640
ag1708
asg175
(lp4137
g2397
ag2786
ag1161
ag2622
ag2400
ag2411
ag1155
ag2406
ag2408
ag2403
asg2666
(lp4138
g2650
ag3602
ag3336
ag2653
ag3333
ag2656
ag2665
ag2984
ag3339
ag1313
asg3937
(lp4139
g131
ag68
ag134
a(g3907
S'genou'
p4140
tp4141
ag139
ag142
ag148
ag145
ag151
ag94
asg1746
(lp4142
g931
ag1513
ag3142
ag934
ag937
ag3145
ag1754
ag1757
ag1359
ag949
asg3152
(lp4143
g1959
ag1611
ag3612
ag1962
ag1616
ag1956
ag3754
ag2731
ag3148
ag1622
asg2599
(lp4144
g131
ag2873
ag358
ag1421
ag2598
ag567
ag68
ag2879
ag564
ag94
asg4004
(lp4145
g711
ag1290
ag2529
ag888
ag2526
ag1048
a(g4002
S'moldus'
p4146
tp4147
ag894
ag2974
ag969
asS'bronze'
p4148
(lp4149
g663
ag136
ag669
ag666
ag672
ag675
ag1773
ag678
ag148
ag681
asg1362
(lp4150
g663
ag675
ag669
ag666
ag672
ag136
ag1497
ag678
ag4095
ag681
asg1819
(lp4151
g1827
ag2344
ag3024
ag2289
ag2283
ag1833
ag3027
ag1830
ag3030
ag2347
asg3977
(lp4152
g1143
ag1190
ag1383
ag2272
ag1986
ag2750
ag1927
ag2753
ag2278
ag1164
asg1796
(lp4153
g1801
ag1804
ag1807
ag1810
ag1813
ag1196
ag266
ag263
ag2099
ag1816
asg38
(lp4154
g2926
ag37
ag43
ag1264
ag49
ag2444
ag410
ag1310
ag58
ag61
asg3909
(lp4155
g131
ag68
ag134
ag136
ag139
ag142
ag145
ag148
ag151
ag94
asg189
(lp4156
g1883
ag197
ag321
ag200
ag1895
ag203
ag211
ag208
ag1886
ag1898
asg2026
(lp4157
g185
ag2001
ag188
ag191
ag3676
ag3820
ag203
ag208
ag2025
ag3679
asg3137
(lp4158
g3136
ag3250
ag2355
ag1616
ag940
ag2740
ag1842
ag3148
ag2352
ag3154
asg531
(lp4159
g509
ag512
ag515
ag521
ag524
ag527
ag530
ag3223
ag1986
ag536
asg2359
(lp4160
g2352
ag1611
ag2355
ag2358
ag1970
ag2740
ag2363
ag2366
ag1842
ag2369
asg3993
(lp4161
g940
ag1611
ag3700
ag2358
ag1970
ag2366
ag2361
ag3196
ag3998
ag2369
asg1034
(lp4162
g957
ag873
ag2820
ag963
ag2818
ag966
ag1042
ag1045
ag2823
ag969
asg1558
(lp4163
g512
ag3424
ag1372
ag1392
ag1548
ag2275
ag1383
ag1563
ag1389
ag1375
asg322
(lp4164
g454
ag457
ag312
ag315
ag3554
ag463
ag327
ag466
ag330
ag3557
asg2273
(lp4165
g3979
ag3424
ag1372
ag1375
ag2272
ag3866
ag1383
ag1389
ag2278
ag1392
asg1339
(lp4166
g369
ag375
ag3062
ag765
ag1203
ag1209
ag3056
ag1748
ag1359
ag3059
asg2726
(lp4167
g2422
ag2355
ag2725
ag1010
ag2731
ag2734
ag2737
ag2740
ag2743
ag2746
asg2417
(lp4168
g1778
ag2376
ag1781
ag1784
ag3216
ag2380
ag1790
ag1787
ag2389
ag2859
asg3227
(lp4169
g509
ag512
ag2441
ag1855
ag533
ag530
ag3223
ag3226
ag521
ag1873
asg201
(lp4170
g635
ag474
ag194
ag197
ag200
ag647
ag206
ag211
ag656
ag659
asg1194
(lp4171
g1798
ag1918
ag1912
ag1193
ag1813
ag1804
ag1915
ag266
ag263
ag1816
asg2008
(lp4172
g2001
ag2004
ag2007
ag2013
ag2016
ag2019
ag3161
ag2022
ag2025
ag2028
asg2120
(lp4173
g2116
ag796
ag799
ag808
ag811
ag793
ag814
ag817
ag820
ag2125
asg611
(lp4174
g604
ag756
ag759
ag610
ag762
ag765
ag628
ag622
ag771
ag2486
asg1946
(lp4175
g131
ag1738
ag68
ag134
ag139
ag2868
ag142
ag148
ag94
ag1744
asg2741
(lp4176
g2422
ag998
ag1025
ag2725
ag2304
ag1013
ag2392
ag2141
ag1019
ag1022
asg3456
(lp4177
g2116
ag3450
ag796
ag808
ag2122
ag3815
ag208
ag2119
ag3455
ag2125
asg3436
(lp4178
g131
ag68
ag3911
ag134
ag1060
ag139
ag148
ag145
ag151
ag94
asg2816
(lp4179
g957
ag2556
ag108
ag162
ag3693
ag2832
ag105
ag120
ag2823
ag2835
asg3555
(lp4180
g937
ag384
ag802
ag3588
ag1082
ag1209
ag1515
ag3554
ag1359
ag1094
asg2964
(lp4181
g131
ag663
ag68
ag672
ag136
ag139
ag1068
ag148
ag145
ag681
asg3285
(lp4182
g3290
ag131
ag68
ag672
ag136
ag139
ag1068
ag148
ag145
ag681
asg1679
(lp4183
g2071
ag1684
ag873
ag1687
ag963
ag1693
ag1702
ag1705
ag1708
ag2842
asg3
(lp4184
g14
ag2149
ag2152
ag11
ag2158
ag20
ag23
ag26
ag3323
ag32
asg2127
(lp4185
g2071
ag1175
ag1181
ag2791
ag1184
ag1187
ag1178
ag2103
ag2132
ag3606
asg2614
(lp4186
g131
ag3634
ag68
ag341
ag344
ag3506
ag977
ag2175
ag989
ag94
asg2030
(lp4187
g2035
ag905
ag2038
ag1964
ag2040
ag926
ag1970
ag1973
ag923
ag1967
asg846
(lp4188
g2889
ag604
ag842
ag839
ag2892
ag396
ag845
ag851
ag857
ag1218
asg1881
(lp4189
g2032
ag2035
ag905
ag2038
ag1964
ag2040
ag1970
ag1973
ag1889
ag1967
asg2830
(lp4190
g2896
ag2802
ag2902
ag2063
ag2835
ag2805
ag2899
ag1445
ag2811
ag2814
asg3140
(lp4191
g131
ag1501
ag1073
ag68
ag1079
ag902
ag1085
ag3071
ag3051
ag94
asg2209
(lp4192
g2208
ag2217
ag3672
ag3000
ag2214
ag3441
ag2223
ag2226
ag2229
ag3004
asg2900
(lp4193
g2892
ag2899
ag2889
ag3190
ag1751
ag1344
ag3186
ag1218
ag1748
ag3493
asg1150
(lp4194
g248
ag2827
ag251
ag1149
ag257
ag260
ag263
ag266
ag254
ag272
asg499
(lp4195
g424
ag427
ag1713
ag433
ag436
ag498
ag442
ag430
ag504
ag445
asg72
(lp4196
g131
ag68
ag3348
ag3112
ag139
ag358
a(g3935
S'fier'
p4197
tp4198
ag564
ag599
ag94
asg2723
(lp4199
g2988
ag998
ag1025
ag2422
ag2304
ag1013
ag2392
ag2743
ag1019
ag1022
asg2312
(lp4200
g2308
ag1807
ag1980
ag2311
ag2320
ag2323
ag3164
ag2317
ag1992
ag2326
asg712
(lp4201
g1228
ag2441
ag717
ag1231
ag1234
ag726
ag1240
ag1243
ag1246
ag1249
asg981
(lp4202
g131
ag68
ag134
ag136
ag139
ag347
ag148
ag2181
ag145
ag151
asg328
(lp4203
g1209
ag454
ag457
ag315
ag3588
ag3554
ag463
ag327
ag466
ag3557
asg2449
(lp4204
g131
ag216
ag68
ag3048
ag358
ag2380
ag145
ag564
ag151
ag94
asg3143
(lp4205
g1501
ag1073
ag3136
ag3139
ag3142
ag1507
ag940
ag3148
ag3154
ag1967
asg2729
(lp4206
g1596
ag2422
ag2725
ag1010
ag2389
ag2734
ag2743
ag2141
ag1016
ag2746
asg3114
(lp4207
g2677
ag2672
ag2675
ag2054
ag3414
ag3529
ag3119
ag2680
ag3521
ag2753
asg2364
(lp4208
g2304
ag1004
ag2286
ag2289
ag2292
ag2369
ag2363
ag2298
ag2301
ag2295
asg3515
(lp4209
g3129
ag2419
ag2422
ag1611
ag3132
ag3514
ag68
ag2366
ag1016
ag2859
asS'families'
p4210
(lp4211
g2363
ag2931
ag3612
ag1962
ag2934
ag2920
ag2937
ag4036
ag2940
ag1616
asg1960
(lp4212
g1596
ag1959
ag1605
ag1608
ag3612
ag2937
ag1956
ag3200
ag1935
ag1622
asg1373
(lp4213
g1383
ag3667
ag1389
ag2853
ag1372
ag2856
ag1482
ag1921
ag2850
ag3445
asg924
(lp4214
g1596
ag1605
ag1608
ag1962
ag2937
ag1956
ag3200
ag2940
ag3202
ag917
asg2844
(lp4215
g3640
ag1476
ag1479
ag2481
ag3081
ag3727
ag2400
ag1485
ag177
ag3087
asg2081
(lp4216
g2071
ag2791
ag2237
ag3725
ag2103
ag2112
ag123
ag2794
ag1989
ag2077
asg1326
(lp4217
g424
ag1122
ag1331
ag1128
ag1125
ag1131
ag1334
ag1336
ag3327
ag1134
asg636
(lp4218
g641
ag2330
ag1599
ag2333
ag1962
ag2335
ag1601
ag1592
ag1938
ag1935
asg1120
(lp4219
g1429
ag1526
ag2598
ag240
ag68
a(g2594
S'visite'
p4220
tp4221
ag1641
ag2601
ag1537
ag2604
asg1463
(lp4222
g131
ag1459
ag1462
ag1468
ag68
ag1068
ag2950
ag1471
ag148
ag681
asg2315
(lp4223
g2308
ag1807
ag2311
ag2013
ag2016
ag3161
ag2320
ag3164
ag2010
ag2326
asg103
(lp4224
g369
ag1504
ag375
ag108
ag3142
ag117
ag68
ag1748
ag1224
ag94
asg2247
(lp4225
g610
ag2574
ag2240
ag616
ag1353
ag2577
ag619
ag879
ag2580
ag2583
asg313
(lp4226
g3151
ag3700
ag1613
ag3142
a(S'idiot'
p4227
S'idiot'
p4228
tp4229
ag811
ag4036
ag333
ag946
a(g4210
S'familles'
p4230
tp4231
asg2572
(lp4232
g610
ag879
ag1203
ag616
ag321
ag1209
ag2577
ag1353
ag1892
ag2583
asS'present'
p4233
(lp4234
g2071
ag2129
ag4136
ag159
ag3717
ag123
ag3714
ag102
ag2132
ag269
asg2270
(lp4235
g3598
ag1164
ag1383
ag1190
ag1986
ag2750
ag1924
ag1927
ag2753
ag2278
asg284
(lp4236
g1172
ag1389
ag283
ag298
ag289
ag1383
ag295
ag2496
ag1386
ag1199
asg97
(lp4237
g248
ag2802
ag105
ag108
ag120
ag126
ag3116
ag2611
ag269
ag3689
asg2250
(lp4238
g369
ag2501
ag1510
ag1513
ag3792
ag1212
ag3145
ag1760
ag1359
ag1224
asS'solid'
p4239
(lp4240
g1228
ag717
ag714
a(S'wall'
p4241
S'mur'
p4242
tp4243
ag1231
ag4133
ag726
ag1243
ag1246
ag1249
asg1207
(lp4244
g1504
ag375
ag1510
ag384
ag1513
ag1515
ag1212
ag3142
ag1359
ag1094
asg2771
(lp4245
g2799
ag1284
ag387
ag1377
ag393
ag2779
ag2794
ag2580
ag2112
ag2782
asg737
(lp4246
g2456
ag2459
ag2462
ag736
ag2468
ag2471
ag2465
ag742
ag2474
ag748
asg75
(lp4247
g68
ag831
ag2598
ag567
ag2876
ag2879
ag3348
ag2873
ag2601
ag94
asg2409
(lp4248
g2397
ag2272
ag1155
ag2622
ag2400
ag1161
ag2278
ag2406
ag2408
ag2403
asg1466
(lp4249
g131
ag2587
ag1459
ag68
ag663
ag1068
ag681
ag1471
ag148
ag2950
asg1469
(lp4250
g131
ag2587
ag663
ag68
ag136
ag1459
ag1068
ag145
ag148
ag681
asg3037
(lp4251
g131
ag663
ag68
a(g3217
S'placard'
p4252
tp4253
ag672
ag136
ag1068
ag148
ag145
ag681
asg3522
(lp4254
g2672
ag2675
ag3414
ag3529
ag3119
ag2680
a(S'ear'
p4255
S'oreille'
p4256
tp4257
ag3521
ag3116
ag2753
asg2428
(lp4258
g131
ag2419
ag2422
ag358
ag68
ag2380
ag564
ag2424
ag151
ag94
asg209
(lp4259
g635
ag796
ag194
ag197
ag817
ag647
ag650
ag206
ag656
ag659
asg331
(lp4260
g899
ag2931
ag2920
ag1962
ag911
ag4229
ag2358
ag4036
ag4231
ag2937
asg261
(lp4261
g1801
ag1807
ag1810
ag2051
ag1816
ag2063
ag111
ag266
ag2099
ag260
asg1761
(lp4262
g931
ag2456
ag934
ag937
ag940
ag1754
ag1757
ag1359
ag3392
ag949
asg1314
(lp4263
g1301
ag2437
ag1307
ag2195
ag277
ag726
ag301
ag304
ag1243
ag1249
asg1965
(lp4264
g3129
ag3514
ag1959
ag1605
ag1611
ag1962
ag1616
ag1956
ag1973
ag926
asg947
(lp4265
g931
ag1970
ag1959
ag934
ag937
ag1962
ag940
ag3550
ag3754
ag3154
asg3596
(lp4266
g2799
ag2249
ag2574
ag2240
ag2054
ag2577
ag123
ag2580
ag3532
ag2808
asg66
(lp4267
g1364
ag663
ag675
ag1367
ag669
ag136
ag678
ag148
ag4095
ag681
asg2588
(lp4268
g1364
ag663
ag136
ag669
ag666
ag672
ag675
ag678
ag148
ag681
asg3431
(lp4269
g131
ag68
ag134
ag1060
ag139
ag974
ag148
ag3438
ag151
ag94
asg2532
(lp4270
g3012
ag2537
ag3014
ag2543
ag2546
ag3017
ag2540
ag2549
ag2552
ag2266
asg1123
(lp4271
g131
ag1122
ag68
ag1131
ag77
ag80
ag83
ag94
ag1537
a(g3702
S'joyeusement'
p4272
tp4273
asg2629
(lp4274
g1237
ag2494
ag1664
ag1667
ag2637
ag2640
ag2642
ag2496
ag2132
ag1673
asg24
(lp4275
g5
ag2164
ag3970
ag2149
ag2152
ag11
ag14
ag2158
ag23
ag3323
asg370
(lp4276
g369
ag384
ag1203
ag2504
ag2507
ag1206
ag1209
ag1212
ag1224
ag3107
asg3334
(lp4277
g2198
ag3602
ag3333
ag1876
ag1867
ag2526
ag3339
ag3342
ag2529
ag1873
asg3768
(lp4278
g131
ag663
ag68
ag136
ag3036
ag1068
a(g3033
S'hamburger'
p4279
tp4280
ag3039
ag148
ag681
asg2535
(lp4281
g3012
ag3014
ag1436
ag2543
ag2546
ag3017
ag2540
ag2549
ag2552
ag2266
asg3168
(lp4282
g1301
ag717
ag2662
ag714
ag1316
ag3173
ag726
ag3179
ag3947
ag3176
asg411
(lp4283
g401
ag954
ag3886
ag52
ag3624
ag55
ag2820
ag960
ag3648
ag559
asg3046
(lp4284
g131
ag68
ag139
a(g4039
S'genre'
p4285
tp4286
ag358
ag3216
ag145
ag564
ag151
ag94
asg2635
(lp4287
g2491
ag1187
ag2496
ag2494
ag1664
ag4257
ag2640
ag2642
ag2129
ag2132
asg137
(lp4288
g131
ag68
ag672
ag136
ag3036
ag1068
ag3772
ag148
ag145
ag681
asg1910
(lp4289
g3398
ag3209
ag3401
ag619
ag1930
ag1915
ag857
ag3212
ag3973
ag3183
asg223
(lp4290
g216
ag89
ag587
ag599
ag228
ag782
ag784
ag2191
ag237
ag240
asg278
(lp4291
g277
ag1279
ag283
ag286
ag289
ag292
ag1563
ag298
ag301
ag304
asg1291
(lp4292
g1445
ag2237
ag3725
ag3091
ag123
ag1290
ag1448
ag1989
ag1451
ag1296
asg3548
(lp4293
g2419
ag2422
ag2424
ag3250
ag2427
ag68
ag2451
ag1725
ag2430
ag94
asg2975
(lp4294
g870
ag245
ag518
ag873
ag3158
ag2974
ag888
ag3096
ag894
ag891
asg3811
(lp4295
g3450
ag3453
ag3708
ag2122
ag3815
ag208
ag2119
ag3455
ag3458
ag2125
asg1913
(lp4296
g3398
ag3209
ag1918
ag1912
ag619
ag1930
ag857
ag3212
ag3973
ag3183
asg1046
(lp4297
g963
ag2637
ag2974
ag1293
ag1664
ag2640
ag2642
ag888
ag1290
ag969
asg2780
(lp4298
g2791
ag1284
ag387
ag1377
ag2103
ag2773
ag393
ag2779
ag2794
ag2112
asg766
(lp4299
g3129
ag753
ag1611
ag3132
ag902
ag914
ag3514
ag920
ag2366
ag3517
asg3851
(lp4300
g131
ag3847
ag1462
ag1465
ag3850
ag1770
ag3066
ag68
ag1068
ag151
asg1092
(lp4301
g1504
ag1076
ag1097
ag802
ag1073
ag1082
ag1515
ag1091
ag1088
ag3958
asg1317
(lp4302
g1301
ag3300
ag1304
ag43
ag1307
ag3312
ag2200
ag61
ag1316
ag1313
asg1732
(lp4303
g424
ag498
ag1713
ag501
ag436
ag427
ag433
ag442
ag430
ag504
asg633
(lp4304
g638
ag2333
ag641
ag2330
ag650
ag644
ag2335
ag647
ag653
ag659
asg1226
(lp4305
g2556
ag2106
ag1399
ag1231
ag2109
ag1234
ag1237
ag1240
ag1246
ag1402
asg1020
(lp4306
g998
ag1013
ag2138
ag2144
ag2136
ag2386
ag2392
ag2859
ag1019
ag1025
asg1649
(lp4307
g1653
ag902
ag3358
ag908
ag911
ag3361
ag2728
ag923
ag2737
ag3363
asg6
(lp4308
g2566
ag5
ag11
ag14
ag17
ag20
ag23
ag26
ag29
ag32
asg3060
(lp4309
g2352
ag3139
ag765
ag2920
ag2922
ag3700
ag2355
ag2361
ag1842
ag2740
asg2176
(lp4310
g3287
ag131
ag68
ag2172
ag134
ag139
ag1068
ag142
ag148
ag2181
asg1185
(lp4311
g1175
ag3206
ag1181
ag3606
ag1178
ag1184
ag854
ag3473
ag3398
ag860
asg342
(lp4312
g131
ag68
ag134
ag136
ag139
ag3066
ag1068
ag148
ag145
ag151
asg1407
(lp4313
g131
ag68
ag578
ag1406
ag1421
ag139
ag358
ag1415
ag564
ag94
asg3917
(lp4314
g876
ag245
ag102
ag873
ag2112
ag123
ag882
ag885
ag1658
ag1676
asg585
(lp4315
g572
ag578
ag2185
ag590
ag2188
ag1415
ag581
ag596
ag564
ag599
asg1126
(lp4316
g1429
ag3367
ag71
ag1526
ag1641
ag1534
ag3327
ag86
ag89
ag91
asg3734
(lp4317
g2278
ag1284
ag1287
ag1290
ag1380
ag4048
ag1293
ag711
ag2974
ag1296
asg626
(lp4318
g604
ag756
ag759
ag610
ag762
ag765
ag613
ag622
ag771
ag2486
asg1037
(lp4319
g2631
ag957
ag3693
ag2640
ag2637
ag2823
ag1664
ag1045
ag1051
ag2818
asg978
(lp4320
g341
ag344
ag3506
ag977
ag983
ag2178
ag3573
ag986
ag989
ag3575
asg2581
(lp4321
g610
ag2574
ag1203
ag616
ag321
ag2577
ag879
ag1353
ag1892
ag1898
asg2958
(lp4322
g131
ag68
ag134
ag136
ag139
ag1068
ag2963
ag145
ag148
ag2966
asS'kid'
p4323
(lp4324
(S'distance'
p4325
S'distance'
p4326
tp4327
ag828
ag1429
ag68
ag3874
ag1534
ag1787
ag1418
ag1537
ag94
asg3471
(lp4328
g309
ag3233
ag3470
ag318
ag2016
ag3898
ag619
ag324
ag336
ag2814
asg1828
(lp4329
g1827
ag1004
ag1833
ag2289
ag504
ag2304
ag2283
ag2344
ag2347
ag2295
asg3325
(lp4330
g1122
ag1638
ag1429
ag1128
ag4221
ag1641
ag1534
a(S'possible'
p4331
S'possible'
p4332
tp4333
ag1526
ag4273
asg2309
(lp4334
g2308
ag1807
ag2317
ag3161
ag2320
ag2323
ag3164
ag2010
ag1816
ag2326
asg2189
(lp4335
g564
ag352
ag2185
ag3112
ag587
ag590
ag2188
ag581
ag1415
ag599
asg2284
(lp4336
g424
ag1004
ag2289
ag2292
ag504
ag2295
ag2363
ag2298
ag2301
ag2304
asg3425
(lp4337
g1228
ag3664
ag2786
ag2622
ag2400
ag2411
ag4133
ag177
ag1246
ag1402
asg1758
(lp4338
g3042
ag1824
ag3139
ag1088
ag940
ag1515
ag1839
ag1842
ag1845
ag1766
asg1222
(lp4339
g1504
ag1507
ag3136
ag1510
ag3142
ag1513
ag1082
ag1515
ag1212
ag1094
asg557
(lp4340
g277
ag280
ag954
ag1279
ag2820
ag283
ag292
ag301
ag304
ag960
asg2193
(lp4341
g372
ag2198
ag114
ag2794
ag2514
ag2955
ag2112
ag126
ag882
ag3342
asg1569
(lp4342
g424
ag1580
ag1574
ag1577
ag2263
ag1007
ag1583
ag1586
ag1589
ag448
asg2454
(lp4343
g931
ag1613
ag1359
ag934
ag937
ag1754
ag1757
ag1763
ag3392
ag949
asg1197
(lp4344
g1172
ag3598
ag1193
ag1190
ag1918
ag1921
ag1915
ag1196
ag2496
ag3532
asS'summer'
p4345
(lp4346
g1301
ag3176
ag4243
ag2662
ag3170
ag3173
ag3099
ag3179
ag3947
a(g4239
S'solide'
p4347
tp4348
asg1575
(lp4349
g2260
ag1580
ag445
ag1574
ag2263
ag1007
ag1583
ag448
ag2266
ag2268
asg1808
(lp4350
g3789
ag309
ag2045
ag1801
ag864
ag2057
ag2060
ag1350
ag1353
ag2099
asg1049
(lp4351
g2631
ag957
ag3693
ag2637
ag1039
ag2823
ag1664
ag2640
ag2642
ag2818
asg109
(lp4352
g1209
ag2045
ag1341
ag2051
ag2462
ag3825
ag2057
ag2060
ag3798
ag1748
asg2150
(lp4353
g14
ag2164
ag2149
ag960
ag11
ag2155
ag2158
ag2161
ag3323
ag2167
asg1524
(lp4354
g131
ag94
ag599
ag1421
ag2598
ag358
ag68
ag564
ag2601
ag2604
asg2768
(lp4355
g2758
ag2761
ag2791
ag2970
ag2237
ag2767
ag2103
ag295
ag3532
ag3598
asg843
(lp4356
g2889
ag604
ag842
ag839
ag2892
ag396
ag3190
ag1344
ag857
ag1218
asg3877
(lp4357
g477
ag480
ag3401
ag483
ag3294
ag390
ag489
ag492
ag3731
ag495
asg2871
(lp4358
g131
ag3433
ag68
ag3435
ag567
ag2879
ag1412
ag358
ag3438
ag94
asg264
(lp4359
g1798
ag1801
ag1196
ag1807
ag1810
ag2063
ag1813
ag1804
ag263
ag1816
asg972
(lp4360
g131
ag68
ag134
ag136
ag139
ag151
ag142
ag145
ag148
ag347
asg290
(lp4361
g277
ag280
ag1279
ag283
ag286
ag289
ag1563
ag298
ag301
ag304
asg1561
(lp4362
g280
ag1548
ag1279
ag283
ag1560
ag2275
ag292
ag286
ag1389
ag1392
asg689
(lp4363
g3263
ag2786
ag2622
ag2400
ag2411
ag174
ag177
ag2403
ag3427
ag171
asg1527
(lp4364
g131
ag68
ag139
ag358
ag1412
ag142
ag145
ag564
ag151
ag94
asg984
(lp4365
g131
ag68
ag134
ag977
ag139
ag983
ag4026
ag148
ag151
ag94
asg3790
(lp4366
g369
ag384
ag3588
ag1209
ag1212
ag3554
ag1224
ag1359
ag1094
ag3557
asg921
(lp4367
g899
ag1605
ag1608
ag905
ag1962
ag1956
ag3200
ag920
ag917
ag926
asg1642
(lp4368
g4020
ag1630
ag68
ag77
ag71
ag1432
ag1635
ag1641
ag91
ag94
asg2751
(lp4369
g2677
ag2672
ag2675
ag2054
ag3414
ag3529
ag3119
ag2680
ag1924
ag257
asg2173
(lp4370
g131
ag68
ag2172
ag134
ag139
ag1068
ag142
ag148
ag2181
ag151
asg654
(lp4371
g635
ag638
ag2333
ag641
ag2330
ag650
ag644
ag647
ag653
ag659
asg267
(lp4372
g248
ag3983
ag2802
ag318
ag2246
ag2048
ag2905
ag3798
ag126
ag1221
asg3076
(lp4373
g2106
ag162
ag2634
ag180
ag269
ag2109
ag3116
ag3524
ag3781
ag3689
asg2324
(lp4374
g2308
ag2004
ag1807
ag2317
ag2022
ag2013
ag2016
ag3161
ag3164
ag2010
asg751
(lp4375
g3129
ag1611
ag3132
ag902
ag914
ag3514
ag920
ag2366
ag3517
ag768
asg1825
(lp4376
g424
ag1328
ag1004
ag1833
ag2289
ag504
ag2295
ag2283
ag2344
ag2347
asg944
(lp4377
g1501
ag1073
ag1079
ag905
ag1518
ag1616
ag3151
ag3250
ag1619
ag2433
asg2395
(lp4378
g1143
ag1164
ag1146
ag1152
ag1155
ag1158
ag2408
ag2403
ag2406
ag1161
asg3451
(lp4379
g2116
ag3450
ag3813
ag2122
ag3815
ag208
ag2119
ag3455
ag3458
ag2125
asg2894
(lp4380
g2899
ag312
ag2902
ag2504
ag2507
ag1209
ag3186
ag1748
ag3493
ag3107
asg3924
(lp4381
g2631
ag3929
ag3736
ag2974
ag4048
ag3084
ag711
ag729
ag3934
ag732
asg818
(lp4382
g1728
ag805
ag3237
ag3240
ag793
ag814
ag1731
ag3030
ag1725
ag3242
asg4241
(lp4383
g1228
ag717
ag714
ag1231
ag4133
ag726
ag1240
ag4348
ag1246
ag1249
asg1521
(lp4384
g131
ag68
ag139
ag358
ag1412
ag142
ag145
ag564
ag151
ag94
asg2107
(lp4385
g3453
ag3708
ag3711
ag2106
ag2243
ag2048
ag3815
ag3717
ag3813
ag3714
asg3307
(lp4386
g3300
ag3303
ag1687
ag2217
ag3306
ag1693
ag1699
ag3312
ag3315
ag2700
asg458
(lp4387
g1651
ag3248
ag3358
ag3253
ag811
ag3361
ag2728
ag2737
ag469
ag3363
asg1671
(lp4388
g1658
ag2791
ag2794
ag159
ag2103
ag2112
ag123
ag1237
ag1667
ag1676
asg1645
(lp4389
g131
ag216
ag68
ag139
ag358
ag142
ag145
ag564
ag151
ag94
asg614
(lp4390
g604
ag756
ag759
ag610
ag762
ag613
ag628
ag622
ag771
ag2486
asg539
(lp4391
g277
ag280
ag1279
ag283
ag292
ag1563
ag301
ag556
ag304
ag559
asg220
(lp4392
g216
ag89
ag587
ag599
ag225
ag228
ag231
ag2191
ag237
ag240
asg1229
(lp4393
g1228
ag2106
ag1399
ag2109
ag1234
ag1237
ag1240
ag1243
ag1246
ag1402
asg964
(lp4394
g1798
ag2559
ag1196
ag873
ag162
ag963
ag1813
ag1804
ag266
ag2562
asg1274
(lp4395
g404
ag407
ag1264
ag1267
ag1270
ag416
ag410
ag1273
ag419
ag1454
asg3610
(lp4396
g1596
ag1004
ag2283
ag2289
ag2304
ag1013
ag2298
ag1019
ag1022
ag2295
asg1066
(lp4397
g663
ag136
ag666
ag669
ag672
ag675
ag1773
ag678
ag148
ag681
asg3571
(lp4398
g131
ag68
ag2172
ag134
ag2181
ag2178
ag142
ag2175
ag3575
ag347
asg1413
(lp4399
g564
ag2616
ag352
ag980
ag590
ag581
ag1945
ag68
ag1138
ag94
asg3752
(lp4400
g1596
ag1959
ag2422
ag3612
ag1962
ag2424
ag1956
ag68
ag2731
ag1622
asg3579
(lp4401
g131
ag68
ag142
ag134
ag2178
ag3573
ag2172
ag2175
ag3575
ag94
asg4331
(lp4402
g1122
ag1429
ag1526
ag2598
ag2601
ag4221
ag1641
ag86
ag240
ag1537
asg2732
(lp4403
g2910
ag2380
ag68
ag2912
ag2374
ag2141
ag1336
ag1644
ag2915
ag94
asg2306
(lp4404
g2004
ag1807
ag2317
ag2022
ag2013
ag2016
ag3161
ag3164
ag2010
ag2326
asg3085
(lp4405
g3640
ag248
ag126
ag2556
ag2832
ag3081
ag2835
ag2611
ag269
ag3689
asg730
(lp4406
g705
ag1903
ag711
ag2767
ag969
ag4048
ag2776
ag729
ag3091
ag888
asg467
(lp4407
g1821
ag1079
ag3248
ag905
ag1518
ag811
ag3253
ag3071
ag3030
ag2433
asg3390
(lp4408
g931
ag3154
ag934
ag937
ag940
ag3754
ag1754
ag1757
ag1359
ag949
asg2812
(lp4409
g309
ag2896
ag312
ag3233
ag2902
ag318
ag324
ag2899
ag336
ag2811
asg472
(lp4410
g899
ag1653
ag902
ag905
ag908
ag911
ag917
ag920
ag923
ag926
asS'blankets'
p4411
(lp4412
g1364
ag663
ag136
ag672
ag675
a(g4092
S'ordinateur'
p4413
tp4414
ag678
ag148
ag4095
ag681
asS'grin'
p4415
(lp4416
g2437
ag1310
ag2662
a(g4064
S'stupide'
p4417
tp4418
ag2697
ag3096
ag2977
ag58
ag3104
ag3536
asg1191
(lp4419
g3398
ag3209
ag1918
ag1912
ag619
ag1930
ag1915
ag3212
ag3973
ag3183
asg3519
(lp4420
g2672
ag2675
ag3414
ag3529
ag3119
ag2680
ag4257
ag3116
ag3524
ag2753
asg3134
(lp4421
g1608
ag1010
ag2740
ag2920
ag1616
ag3250
ag4001
ag3148
ag1842
ag3154
asg1901
(lp4422
g2758
ag2761
ag2970
ag2767
ag2770
ag3091
ag2776
ag1293
ag295
ag2408
asg1609
(lp4423
g3129
ag3612
ag3132
ag2286
ag3514
ag2292
ag2301
ag2363
ag2366
ag2369
asg3709
(lp4424
g3450
ag3453
ag3708
ag2119
ag2465
ag3815
ag3813
ag3455
ag3458
ag2125
asg2632
(lp4425
g3789
ag2853
ag2856
ag1482
ag1921
ag1816
ag2611
ag2827
ag269
ag3689
asg1201
(lp4426
g3062
ag191
ag1883
ag765
ag1895
ag321
ag1898
ag1886
ag3056
ag3059
asg1749
(lp4427
g1651
ag756
ag3190
ag765
ag3193
ag460
ag1344
ag3361
ag3196
ag3358
asg3346
(lp4428
g131
ag68
ag3435
ag134
ag1060
ag3112
ag139
ag358
ag151
ag94
asg909
(lp4429
g899
ag1608
ag902
ag905
ag1962
ag1956
ag917
ag920
ag923
ag926
asg1688
(lp4430
g1661
ag2773
ag4136
ag2786
ag1696
ag2840
ag2779
ag2782
a(g4233
S'pr\xc3\xa9sent'
p4431
tp4432
ag2132
asg414
(lp4433
g3640
ag404
ag407
ag410
ag3078
ag3081
ag419
ag3084
ag3087
ag3781
asg938
(lp4434
g1956
ag1959
ag3136
ag1962
ag1970
ag3754
ag2427
ag3148
ag3154
ag1622
asg140
(lp4435
g3287
ag3290
ag1738
ag68
ag131
ag134
ag1741
ag139
ag1068
ag148
asg3064
(lp4436
g131
ag3847
ag1462
ag1465
ag139
ag1770
ag68
ag1068
ag148
ag681
asg2678
(lp4437
g2672
ag2675
ag3414
ag2054
ag2677
ag2063
ag257
ag260
ag263
ag2608
asg852
(lp4438
g2889
ag604
ag836
ag839
ag396
ag845
ag848
ag851
ag857
ag842
asg1987
(lp4439
g1980
ag2237
ag3725
ag2314
ag2311
ag2320
ag2323
ag123
ag1992
ag2808
asg2293
(lp4440
g424
ag1328
ag1122
ag1331
ag1128
ag1125
ag1131
ag1334
ag1336
ag1134
asg2833
(lp4441
g378
ag3708
ag381
ag1613
ag390
ag3488
ag2474
ag943
ag1763
ag3059
asg2538
(lp4442
g1102
ag1105
ag3012
ag3014
ag219
ag222
ag1436
ag3017
ag234
ag2266
asg207
(lp4443
g3062
ag191
ag194
ag197
ag2122
ag200
ag203
ag206
ag765
ag211
asg2698
(lp4444
g3300
ag2690
ag3303
ag3306
ag1033
ag2694
ag3309
ag3312
ag3315
ag1054
asg1993
(lp4445
g1983
ag1977
ag1980
ag2314
ag2311
ag2320
ag2323
ag1989
ag1992
ag254
asg2318
(lp4446
g2308
ag1807
ag2311
ag3161
ag2317
ag2323
ag3164
ag2010
ag1816
ag2326
asg3945
(lp4447
g1301
ag43
ag2662
ag3170
ag2520
ag3173
ag3099
ag3179
ag3176
ag2517
asg3779
(lp4448
g1380
ag3979
ag3078
ag2272
ag1986
ag2275
ag2750
ag2278
ag1392
ag269
asg345
(lp4449
g131
ag68
ag672
ag134
ag136
ag139
ag1068
ag148
ag145
ag151
asg1877
(lp4450
g1228
ag3158
ag1861
ag3664
ag1867
ag4133
ag1858
ag1876
ag1246
ag1402
asg1170
(lp4451
g1912
ag1193
ag1190
ag1918
ag1921
ag1930
ag1196
ag1915
ag3973
ag1199
asg1999
(lp4452
g185
ag188
ag191
ag3676
ag200
ag3820
ag203
ag208
ag211
ag3679
asg2043
(lp4453
g369
ag375
ag2462
ag3825
ag2507
ag1209
ag1341
ag3798
ag1748
ag3107
asg703
(lp4454
g1903
ag711
ag2767
ag3091
ag2776
ag4257
ag3521
ag3524
ag888
ag1908
asg1095
(lp4455
g131
ag68
ag3048
ag358
ag2380
ag2451
ag564
ag2424
ag151
ag94
asg1659
(lp4456
g2071
ag2129
ag2791
ag2103
ag1196
ag1813
ag1804
ag2559
ag2132
ag2562
asg3331
(lp4457
g2514
ag2198
ag3602
ag3336
ag1867
ag2526
ag3339
ag3342
ag2529
ag1873
asg1697
(lp4458
g1681
ag1684
ag3300
ag1687
ag1693
ag1696
ag1702
ag1705
ag1708
ag2842
asg3171
(lp4459
g1301
ag717
ag2662
ag3170
ag714
ag1316
ag726
ag3179
ag3947
ag3176
asg829
(lp4460
g131
ag68
ag2619
ag4141
ag139
ag358
ag3354
ag364
ag1421
ag94
asg1176
(lp4461
g1175
ag3206
ag3398
ag3606
ag1187
ag1184
ag854
ag3473
ag1181
ag860
asg2492
(lp4462
g1175
ag1181
ag3398
ag1184
ag1187
ag1178
ag3473
ag2491
ag3606
ag860
asg1729
(lp4463
g1713
ag1716
ag1719
ag1722
ag1725
ag1728
ag501
ag430
ag504
ag1734
asg2442
(lp4464
g99
ag105
ag46
ag108
ag2634
ag269
ag2439
ag2132
a(g3636
S'poudlard'
p4465
tp4466
ag120
asg522
(lp4467
g1143
ag512
ag1977
ag515
ag1983
ag1986
ag530
ag1995
ag527
ag536
asg2953
(lp4468
g2116
ag796
ag3139
ag808
ag2122
ag817
ag2119
ag3455
ag211
ag2125
asg18
(lp4469
g2566
ag5
ag8
ag2152
ag11
ag14
ag17
ag23
ag26
ag32
asg1628
(lp4470
g131
ag68
ag2714
ag71
ag831
ag77
ag2255
ag86
ag91
ag94
asg849
(lp4471
g2889
ag604
ag842
ag839
ag2892
ag396
ag845
ag848
ag857
ag836
asg132
(lp4472
g3290
ag131
ag68
ag3767
ag136
ag139
ag1068
ag145
ag148
ag3772
asg4255
(lp4473
g2672
ag2675
ag3414
ag3529
ag3119
ag2680
ag3521
ag3116
ag3524
ag2753
asg35
(lp4474
g99
ag46
ag1399
ag2634
ag3388
ag2439
ag2167
ag4466
ag2132
ag269
asg3184
(lp4475
g315
ag3995
ag3700
ag1613
ag2361
ag3196
ag3998
ag946
ag3493
ag949
asg1834
(lp4476
g1827
ag1004
ag1833
ag2283
ag2289
ag2304
ag1830
ag2344
ag2347
ag2295
asg721
(lp4477
g705
ag1903
ag1030
ag2767
ag2770
ag3380
ag2776
ag711
ag729
ag732
asg2544
(lp4478
g1102
ag1105
ag3012
ag3014
ag1436
ag2543
ag3017
ag2540
ag2552
ag2266
asg2913
(lp4479
g131
ag2374
ag68
ag2912
ag139
ag358
ag145
ag564
ag151
ag94
asg1443
(lp4480
g309
ag2896
ag2802
ag2902
ag3898
ag2063
ag2805
ag2899
ag2811
ag2814
asg2078
(lp4481
g2071
ag2791
ag2794
ag2103
ag2074
ag1545
ag2112
ag1566
ag2077
ag2083
asg1342
(lp4482
g1651
ag756
ag3190
ag765
ag3193
ag460
ag1751
ag3361
ag3196
ag3358
asg2123
(lp4483
g2116
ag796
ag799
ag808
ag811
ag793
ag814
ag817
ag2122
ag820
asg2227
(lp4484
g2208
ag2211
ag2217
ag3672
ag3000
ag2214
ag3441
ag2223
ag2226
ag3004
asg30
(lp4485
g2566
ag5
ag8
ag11
ag14
ag17
ag20
ag23
ag26
ag29
asg2944
(lp4486
g131
ag2711
ag68
ag2714
ag139
ag2943
ag358
ag564
ag2720
ag94
asg1400
(lp4487
g1228
ag102
ag381
ag2556
ag2249
ag2832
ag2246
ag162
ag123
ag2835
asg929
(lp4488
g1970
ag1959
ag934
ag937
ag1962
ag940
ag3550
ag3754
ag3154
ag949
asg475
(lp4489
g474
ag486
ag480
ag390
ag483
ag3294
ag203
ag489
ag492
ag495
asg394
(lp4490
g2889
ag604
ag842
ag839
ag2892
ag3190
ag845
ag1344
ag857
ag1218
asg1460
(lp4491
g131
ag1459
ag68
ag1468
ag663
ag1068
ag681
ag1471
ag148
ag2950
asg1668
(lp4492
g2103
ag1658
ag2791
ag1661
ag2106
ag1667
ag2109
ag1237
ag1673
ag1676
asg2002
(lp4493
g185
ag2001
ag188
ag3676
ag2007
ag2019
ag3820
ag2025
ag3679
ag2028
asg1008
(lp4494
g2422
ag998
ag1001
ag2141
ag1025
ag1013
ag2734
ag1019
ag1022
ag2746
asg715
(lp4495
g1228
ag2441
ag714
ag1231
ag1234
ag726
ag1240
ag1243
ag1246
ag1249
asg2715
(lp4496
g3593
ag68
ag3564
ag3567
ag3570
ag980
ag3573
ag3578
ag3581
ag94
asg2995
(lp4497
g2994
ag1560
ag1548
ag3664
ag3892
ag2275
ag3003
ag3894
ag3008
ag3320
asg434
(lp4498
g439
ag445
ag2714
ag2943
ag1630
ag2946
ag68
ag448
ag451
ag94
asg1424
(lp4499
g131
ag68
ag828
ag1632
ag1409
ag1429
ag1432
ag222
ag1406
ag94
asg2241
(lp4500
g369
ag2501
ag1510
ag1513
ag3792
ag1212
ag2252
ag1760
ag1359
ag1224
asg1204
(lp4501
g1504
ag1510
ag1513
ag3151
ag1515
ag1212
ag1091
ag1359
ag1094
ag1224
asg1868
(lp4502
g873
ag4069
ag3158
ag1861
ag1864
ag1867
ag2974
ag1858
ag1876
ag1879
asg1865
(lp4503
g245
ag876
ag873
ag3158
ag1861
ag2974
ag885
ag1858
ag1876
ag1879
asg2648
(lp4504
g2665
ag3333
ag2984
ag3336
ag2656
ag2659
ag2653
ag3339
ag2667
ag3602
asg118
(lp4505
g3450
ag3453
ag3708
ag105
ag3711
ag3815
ag3717
ag3813
ag3714
ag3458
asg81
(lp4506
g131
ag599
ag139
ag358
ag2876
ag68
ag4198
ag564
ag151
ag94
asg2170
(lp4507
g3287
ag131
ag68
ag134
ag139
ag1068
ag142
ag148
ag2181
ag151
asg1532
(lp4508
g575
ag2703
ag2706
ag3367
ag584
ag3369
ag593
ag3351
ag4198
ag2604
asg3996
(lp4509
g940
ag1611
ag902
ag908
ag911
ag3700
ag2358
ag1970
ag2361
ag923
asg1508
(lp4510
g1501
ag1504
ag1507
ag1076
ag1097
ag1513
ag1073
ag1515
ag1518
ag1094
asg886
(lp4511
g870
ag2974
ag518
ag876
ag245
ag1290
ag1293
ag885
ag891
ag3091
asg1238
(lp4512
g1228
ag2106
ag1399
ag180
ag1231
ag2109
ag1234
ag1237
ag1246
ag1402
asg3576
(lp4513
g3564
ag3567
ag3570
ag980
ag2178
ag3573
ag2172
ag2175
ag3575
ag3581
asg2367
(lp4514
g1004
ag2286
ag2289
ag2292
ag2295
ag2363
ag2298
ag2366
ag2301
ag2304
asg3687
(lp4515
g3789
ag1810
ag2853
ag1482
ag1921
ag1350
ag126
ag2611
ag2827
ag1816
asg2463
(lp4516
g3450
ag2456
ag2459
ag2462
ag2471
ag3186
ag2474
ag1763
ag2468
ag3392
asg1499
(lp4517
g1073
ag1076
ag1079
ag3048
ag1518
ag2451
ag3051
ag2430
ag2433
ag1097
asg307
(lp4518
g1215
ag454
ag457
ag312
ag324
ag327
ag1347
ag330
ag619
ag336
asg3848
(lp4519
g131
ag3847
ag1462
ag1465
ag1770
ag3066
ag68
ag1068
ag3853
ag151
asg3765
(lp4520
g131
ag68
ag136
ag139
ag3036
ag1068
ag3772
ag148
ag145
ag681
asg41
(lp4521
g2437
ag1307
ag2439
ag2517
ag2520
ag2220
ag2526
ag61
ag3101
ag2529
asg417
(lp4522
g3640
ag404
ag407
ag410
ag3078
ag3081
ag416
ag174
ag3087
ag3781
asg3715
(lp4523
g3450
ag3453
ag3708
ag3711
ag2465
ag3455
ag3815
ag3813
ag3714
ag3458
asg431
(lp4524
g439
ag445
ag436
ag2943
ag1630
ag2946
ag68
ag448
ag451
ag94
asg2617
(lp4525
g1058
ag3634
ag68
ag2616
ag3911
ag1060
ag4141
ag974
ag2175
ag989
asg582
(lp4526
g131
ag68
ag2616
ag2703
ag2706
ag2619
ag358
ag593
ag575
ag94
asg3527
(lp4527
g2677
ag2672
ag2675
ag3414
ag2054
ag248
ag3119
ag2680
ag2753
ag260
asg2596
(lp4528
g131
ag68
ag358
ag1421
ag139
ag567
ag2879
ag2873
ag2601
ag94
asg1495
(lp4529
g663
ag136
ag669
ag666
ag672
ag675
ag1773
ag678
ag148
ag681
asg287
(lp4530
g1172
ag1389
ag1190
ag286
ag1383
ag295
ag298
ag2496
ag1386
ag1199
asg249
(lp4531
g248
ag1810
ag2051
ag2057
ag2063
ag272
ag111
ag260
ag263
ag257
asg579
(lp4532
g131
ag1942
ag68
ag352
ag134
ag1945
ag1948
ag1951
ag1138
ag94
asg2877
(lp4533
g131
ag3433
ag1850
ag134
ag1060
ag139
ag358
ag68
ag3438
ag94
asg1788
(lp4534
g131
ag825
ag358
ag77
ag2882
ag1793
ag68
ag2885
ag240
ag94
asg2550
(lp4535
g1102
ag1105
ag3012
ag3014
ag2138
ag1436
ag2543
ag3017
ag2540
ag2266
asg2938
(lp4536
g424
ag1328
ag2534
ag1004
ag2537
ag2934
ag2937
ag504
ag2283
ag2549
asg2117
(lp4537
g2116
ag796
ag799
ag808
ag811
ag793
ag817
ag2122
ag820
ag2125
asg1354
(lp4538
g3062
ag3139
ag765
ag1203
ag1510
ag1212
ag208
ag3056
ag1359
ag3059
asg1348
(lp4539
g3789
ag454
ag1341
ag1344
ag1347
ag1212
ag1353
ag1356
ag1359
ag1224
asg2130
(lp4540
g2071
ag2491
ag2791
ag1661
ag1184
ag1187
ag1178
ag2494
ag2496
ag2129
asg1136
(lp4541
g131
ag1942
ag68
ag352
ag134
ag581
ag1945
ag1948
ag1951
ag94
asg90
(lp4542
g131
ag564
ag3348
ag3112
ag358
ag68
ag3351
ag3354
ag89
ag94
asg597
(lp4543
g1138
ag352
ag2185
ag587
ag590
ag2188
ag581
ag1415
ag1951
ag564
asg2445
(lp4544
g3879
ag381
ag2902
ag3995
ag2465
ag2112
ag3186
ag3196
ag1218
ag839
asg382
(lp4545
g1073
ag3250
ag802
ag1507
ag1082
ag1515
ag1518
ag1091
ag946
ag1094
asg868
(lp4546
g131
ag68
ag384
ag358
ag2380
ag891
ag564
ag145
ag151
ag94
asg2585
(lp4547
g131
ag2590
ag663
ag68
ag136
ag1068
ag2593
ag148
ag145
ag681
asg1957
(lp4548
g1596
ag1605
ag3612
ag3027
ag1956
ag3200
ag3024
ag3202
ag2734
ag1622
asg1141
(lp4549
g1983
ag1977
ag1146
ag1980
ag1152
ag1149
ag1158
ag1995
ag1164
ag254
asg1179
(lp4550
g1175
ag3206
ag3398
ag836
ag848
ag3606
ag839
ag851
ag854
ag860
asg1288
(lp4551
g1442
ag248
ag1164
ag1284
ag1287
ag1445
ag1293
ag1448
ag1451
ag1296
asg3352
(lp4552
g131
ag68
ag134
ag355
ag139
ag358
ag361
ag364
ag151
ag94
asg1370
(lp4553
g2850
ag1389
ag2853
ag1287
ag1377
ag2856
ag1383
ag393
ag1375
ag3445
asg405
(lp4554
g404
ag410
ag3078
ag3081
ag416
ag1264
ag419
ag3084
ag3087
ag3781
asg3301
(lp4555
(g3296
S'savait'
p4556
tp4557
ag3300
ag1687
ag2217
ag3306
ag3309
ag1699
ag3312
ag3315
ag2700
asg59
(lp4558
g2437
ag2439
ag43
ag108
ag2444
ag99
ag2526
ag58
ag2529
ag2447
asg2932
(lp4559
g424
ag1328
ag1004
ag1128
ag2937
ag504
ag2940
ag2283
ag1134
ag1019
asg1511
(lp4560
g1504
ag1076
ag1097
ag1088
ag2427
ag1515
ag1518
ag1085
ag1091
ag1094
asg2854
(lp4561
g3499
ag3502
ag3667
ag2827
ag2853
ag1482
ag1921
ag2850
ag126
ag3445
asg3864
(lp4562
g2275
ag3979
ag3424
ag1372
ag2272
ag1287
ag1380
ag3863
ag2278
ag1392
asg1430
(lp4563
g131
ag68
ag578
ag1406
ag1409
ag1429
ag358
ag828
ag94
ag2604
asg1147
(lp4564
g248
ag2827
ag251
ag1152
ag272
ag260
ag263
ag266
ag254
ag257
asg3604
(lp4565
g3206
ag3398
ag836
ag848
ag842
ag839
ag845
ag851
ag854
ag860
asg2874
(lp4566
g131
ag3433
ag68
ag2619
ag4141
ag139
ag358
ag1412
ag151
ag94
asg3670
(lp4567
g2208
ag2211
ag2217
ag2659
ag3000
ag2214
ag3441
ag2226
ag2229
ag3004
asg4131
(lp4568
g1228
ag2556
ag156
ag3664
ag1231
ag3388
ag1240
ag3427
ag1246
ag1402
asg1213
(lp4569
g1341
ag315
ag1203
ag1347
ag3186
ag1356
ag3056
ag1892
ag1760
ag3059
asg391
(lp4570
g1324
ag372
ag2004
ag381
ag2007
ag387
ag1377
ag2019
ag2025
ag2583
asg2014
(lp4571
g309
ag2004
ag2007
ag2010
ag2013
ag2019
ag2022
ag2025
ag336
ag2028
asg1483
(lp4572
g3640
ag1476
ag2556
ag1479
ag2832
ag108
ag3727
ag2835
ag3087
ag269
asg84
(lp4573
g131
ag2873
ag71
ag3348
ag358
ag567
ag68
ag89
ag91
ag94
asg2472
(lp4574
g2456
ag2459
ag2462
ag1757
ag1754
ag2471
ag1748
ag1763
ag2468
ag3392
asg3568
(lp4575
g68
ag3564
ag3567
ag2178
ag3573
ag2172
ag2175
ag3575
ag3581
ag94
asg554
(lp4576
g277
ag280
ag1279
ag283
ag541
ag292
ag550
ag301
ag304
ag559
asg235
(lp4577
g216
ag599
ag2185
ag587
ag2188
ag228
ag1415
ag2191
ag89
ag240
asg2097
(lp4578
g454
ag2060
ag1203
ag1347
ag1215
ag1353
ag1356
ag3056
ag1341
ag3059
asg3625
(lp4579
g2566
ag1304
ag8
ag32
ag1313
ag17
ag20
ag2200
ag29
ag1319
asg3530
(lp4580
g3598
ag2799
ag2249
ag2574
ag2240
ag2054
ag2577
ag2580
ag2583
ag2808
asg2718
(lp4581
g3593
ag2711
ag68
ag3564
ag3567
ag2717
ag3570
ag3578
ag3581
ag94
asg2626
(lp4582
g1681
ag1684
ag2631
ag2692
ag3866
ag1702
ag1705
ag1708
ag2645
ag1858
asg2883
(lp4583
g131
ag825
ag139
ag358
ag77
ag68
ag145
ag564
ag151
ag94
asg1109
(lp4584
g131
ag2339
ag578
ag1108
ag139
ag358
ag68
ag1412
ag1114
ag94
asg2499
(lp4585
g1073
ag1076
ag802
ag1507
ag1082
ag1085
ag3051
ag1091
ag1088
ag3958
asg3706
(lp4586
g3450
ag3453
ag2119
ag2122
ag3815
ag208
ag3813
ag3455
ag3458
ag2125
asg513
(lp4587
g1983
ag1977
ag1980
ag1143
ag1986
ag1989
ag1992
ag1995
ag527
ag254
asg664
(lp4588
g663
ag136
ag669
ag672
ag675
ag1497
ag1773
ag678
ag148
ag681
asg871
(lp4589
g245
ag876
ag102
ag2237
ag2246
ag117
ag123
ag882
ag885
ag2808
asg3365
(lp4590
g68
ag575
ag2703
ag2706
ag2619
ag584
ag3369
ag593
ag2616
ag564
asg2049
(lp4591
g2045
ag610
ag1341
ag111
ag3825
ag2057
ag2060
ag3798
ag879
ag1748
asg903
(lp4592
g1596
ag1959
ag1605
ag1608
ag1962
ag2937
ag1956
ag3200
ag917
ag926
asg734
(lp4593
g2456
ag2459
ag2462
ag2465
ag2468
ag2471
ag739
ag742
ag2474
ag748
asg3739
(lp4594
g131
ag663
ag68
ag666
ag672
ag136
ag1068
ag148
ag145
ag681
asg3264
(lp4595
g3263
ag2786
ag1690
ag2622
ag2400
ag691
ag3269
ag177
ag3427
ag2411
asg3025
(lp4596
g131
ag2419
ag2988
ag3024
ag1627
ag68
ag3216
ag2380
ag2859
ag94
asg2139
(lp4597
g1119
ag131
ag2067
ag68
ag139
ag358
ag145
ag564
ag151
ag94
asg3022
(lp4598
g424
ag1328
ag2419
ag2988
ag2380
ag3027
ag1334
ag1336
ag2295
ag2859
asg2058
(lp4599
g1341
ag1203
ag3825
ag1347
ag1215
ag3798
ag1353
ag1356
ag3056
ag2099
asg1859
(lp4600
g1673
ag1670
ag1858
ag3158
ag1667
ag1867
ag2164
ag3645
ag1876
ag1879
asg2903
(lp4601
g1341
ag3588
ag3825
ag1209
ag2048
ag3554
ag3798
ag3983
ag1748
ag3557
asg1791
(lp4602
g131
ag2885
ag2882
ag358
ag77
ag825
ag68
ag564
ag240
ag94
asg1928
(lp4603
g3398
ag3209
ag3401
ag1912
ag619
ag1915
ag857
ag3212
ag3973
ag3183
asg3006
(lp4604
g2994
ag2997
ag1548
ag3664
ag3892
ag3003
ag3894
ag3441
ag2569
ag3320
asg56
(lp4605
g2437
ag2439
ag105
ag108
ag1310
ag99
ag61
ag156
ag2447
ag120
asg1890
(lp4606
g460
ag2032
ag191
ag1883
ag1203
ag321
ag1895
ag1889
ag1886
ag1898
asg299
(lp4607
g277
ag280
ag1279
ag283
ag286
ag289
ag292
ag1563
ag298
ag304
asg3097
(lp4608
g2517
ag2520
ag2523
ag2526
ag2220
ag4147
ag3101
ag2529
ag4006
ag43
asg900
(lp4609
g899
ag905
ag1962
ag911
ag1956
ag917
ag3071
ag920
ag923
ag926
asg1357
(lp4610
g931
ag1515
ag1510
ag3142
ag934
ag1513
ag3139
ag3145
ag1094
ag949
asg991
(lp4611
g131
ag68
ag134
ag136
ag139
ag1068
ag142
ag145
ag148
ag151
asg2156
(lp4612
g2164
ag1658
ag162
ag2149
ag960
ag180
ag2155
ag2161
ag3323
ag2167
asg2602
(lp4613
g131
ag68
ag2616
ag1421
ag1060
ag139
ag358
ag980
ag3351
ag94
asg874
(lp4614
g131
ag68
ag358
ag2380
ag151
ag885
ag145
ag564
ag3493
ag94
asg2908
(lp4615
g131
ag2374
ag68
ag2912
ag139
ag358
ag2915
ag564
ag151
ag94
asg3448
(lp4616
g2116
ag796
ag808
ag2122
ag208
ag2119
ag3455
ag211
ag3458
ag2125
asS'our'
p4617
(lp4618
g2628
ag2690
ag1033
ag2694
ag1039
ag2697
ag723
ag2700
ag3406
ag1054
asg1714
(lp4619
g498
ag1713
ag1719
ag1722
ag1725
ag501
ag442
ag430
ag504
ag1734
asS'face'
p4620
(lp4621
g2481
ag2211
ag2208
ag2229
ag4014
ag3000
ag2214
ag4071
ag2846
ag3004
asg2554
(lp4622
g2835
ag3792
ag2832
ag2051
ag2048
ag2109
ag2905
ag2608
ag126
ag1221
asg3981
(lp4623
g1224
ag1203
ag3825
ag1206
ag1209
ag1341
ag3798
ag3056
ag1748
ag3557
asg774
(lp4624
g572
ag578
ag587
ag779
ag225
ag68
ag782
ag784
ag596
ag787
asg3927
(lp4625
g711
ag3736
ag2974
ag4048
ag3084
ag1290
ag1284
ag729
ag3934
ag732
asg958
(lp4626
g2071
ag954
ag162
ag2820
ag180
ag963
ag2155
ag2161
ag2167
ag1676
asg676
(lp4627
g663
ag675
ag669
ag666
ag672
ag136
ag1497
ag1773
ag148
ag681
asg1906
(lp4628
g3414
ag3529
ag3119
ag2680
ag4257
ag3521
ag3116
ag3524
ag295
ag2753
asg1555
(lp4629
g2071
ag1542
ag1661
ag1554
ag2074
ag1545
ag1566
ag2077
ag2080
ag2083
asg4227
(lp4630
g899
ag1959
ag2931
ag2920
ag1962
ag1956
ag4036
ag3754
ag4231
ag1622
asg1822
(lp4631
g1821
ag2283
ag1827
ag2289
ag1836
ag1833
ag1830
ag1839
ag2344
ag2347
asg3117
(lp4632
g2672
ag2675
ag2054
ag3414
ag3529
ag2677
ag2680
ag3116
ag2753
ag260
asg812
(lp4633
g1728
ag805
ag3237
ag3240
ag793
ag1731
ag820
ag3030
ag1725
ag3242
asg1282
(lp4634
g1442
ag248
ag263
ag387
ag1290
ag1196
ag260
ag1164
ag1296
ag266
asg3001
(lp4635
g1560
ag3863
ag2997
ag1548
ag3664
ag3892
ag2275
ag1563
ag3894
ag3320
asg1837
(lp4636
g1821
ag3042
ag1824
ag1827
ag1088
ag1836
ag1833
ag1830
ag2344
ag2347
asg4034
(lp4637
g2363
ag2931
ag3612
ag1962
ag2934
ag2920
ag2937
ag2940
ag2283
ag4231
asg2578
(lp4638
g2799
ag2249
ag2574
ag2240
ag616
ag1353
ag2577
ag619
ag879
ag2583
asg1351
(lp4639
g454
ag610
ag1347
ag879
ag1203
ag1341
ag1215
ag1356
ag3056
ag3059
asg2466
(lp4640
g931
ag2456
ag1359
ag934
ag1757
ag1754
ag2471
ag1763
ag3392
ag949
asg2567
(lp4641
g3622
ag2994
ag2997
ag52
ag3892
ag3624
ag55
ag3003
ag3894
ag3008
asg727
(lp4642
g99
ag705
ag1903
ag711
ag2767
ag3091
ag2776
ag1293
ag888
ag732
asg3677
(lp4643
g185
ag2001
ag188
ag191
ag3676
ag200
ag3820
ag203
ag208
ag211
asg1581
(lp4644
g2260
ag776
ag2263
ag779
ag225
ag448
ag2266
ag787
ag451
ag2268
asg449
(lp4645
g2714
ag776
ag2943
ag779
ag225
ag2946
ag782
ag784
ag231
ag787
asg149
(lp4646
g131
ag3847
ag1462
ag3767
ag1770
ag3066
ag68
ag1068
ag1465
ag148
asg3534
(lp4647
g2195
ag2514
ag2198
ag3388
ag2697
ag123
ag885
ag102
ag3342
ag2167
asg3069
(lp4648
g1827
ag1605
ag2416
ag3024
ag2931
ag1833
ag3027
ag3051
ag1830
ag2344
asg275
(lp4649
g280
ag1279
ag283
ag286
ag289
ag292
ag1563
ag298
ag301
ag304
asg2709
(lp4650
g131
ag3593
ag68
ag3564
ag3567
ag2717
ag3570
ag3578
ag3581
ag94
asg4325
(lp4651
g68
ag828
ag1429
a(g4323
S'enfant'
p4652
tp4653
ag1534
ag1787
ag4273
ag1418
ag1537
ag3874
asg1606
(lp4654
g1596
ag1605
ag2537
ag2937
ag3200
ag2534
ag4001
ag2546
ag2940
ag2549
asg2515
(lp4655
g2437
ag43
ag2520
ag2523
ag882
ag2526
ag2220
ag3101
ag2529
ag2447
asg952
(lp4656
g2071
ag248
ag2820
ag1152
ag963
ag1149
ag117
ag1924
ag960
ag559
asg1597
(lp4657
g1571
ag1574
ag1577
ag1580
ag1007
ag1586
ag1589
ag1601
ag1592
ag1938
asg2159
(lp4658
g102
ag2791
ag162
ag180
ag2155
ag2103
ag2832
ag120
ag123
ag2835
asg763
(lp4659
g753
ag3062
ag3358
ag3139
ag2361
ag3700
ag3361
ag914
ag768
ag3363
asg112
(lp4660
g1203
ag2504
ag2507
ag1206
ag1209
ag1212
ag1356
ag1760
ag1224
ag3107
asg3500
(lp4661
g309
ag126
ag3233
ag3470
ag318
ag2016
ag2234
ag3473
ag2827
ag2814
asg157
(lp4662
g369
ag375
ag378
ag2955
ag1613
ag390
ag3488
ag123
ag943
ag1760
asg3304
(lp4663
g4557
ag3300
ag3303
ag1687
ag2217
ag3309
ag1699
ag3312
ag3315
ag2700
asg2104
(lp4664
g378
ag2048
ag390
ag2243
ag1347
ag2109
ag1215
ag1353
ag1356
ag1760
asg319
(lp4665
g2032
ag2035
ag1883
ag2038
ag1964
ag2040
ag1895
ag1889
ag1886
ag1898
asg1862
(lp4666
g873
ag4069
ag3158
ag1861
ag2974
ag1867
ag1870
ag1858
ag1876
ag1879
asg437
(lp4667
g131
ag68
ag2714
ag139
ag2943
ag358
ag2946
ag564
ag451
ag94
asg2142
(lp4668
g216
ag2138
ag219
ag222
ag225
ag2136
ag231
ag234
ag237
ag240
asg1345
(lp4669
g3062
ag765
ag1203
ag208
ag1215
ag1356
ag3056
ag1892
ag1760
ag3059
asg3214
(lp4670
g2067
ag225
ag219
ag4286
ag222
ag77
ag231
ag234
ag237
ag240
asg3349
(lp4671
g131
ag68
ag1060
ag355
ag358
ag980
ag361
ag3354
ag364
ag94
asg855
(lp4672
g2889
ag604
ag842
ag839
ag2892
ag396
ag845
ag3879
ag3401
ag1218
asg897
(lp4673
g1605
ag1608
ag3200
ag905
ag1962
ag1956
ag917
ag920
ag923
ag926
asg1874
(lp4674
g245
ag876
ag873
ag3158
ag1861
ag2974
ag1867
ag885
ag1858
ag1879
asg172
(lp4675
g156
ag102
ag2556
ag2832
ag159
ag2109
ag120
ag171
ag2835
ag123
asg918
(lp4676
g3129
ag1956
ag1605
ag1608
ag1611
ag3132
ag1962
ag3514
ag3517
ag926
asg217
(lp4677
g216
ag89
ag587
ag222
ag225
ag228
ag231
ag2191
ag237
ag240
asg883
(lp4678
g876
ag131
ag68
ag358
ag2380
ag151
ag145
ag564
ag3493
ag94
asg2404
(lp4679
g1143
ag2397
ag1146
ag1155
ag1158
ag2408
ag4257
ag2403
ag1164
ag1161
asg1449
(lp4680
g2802
ag251
ag257
ag2063
ag123
ag2805
ag1448
ag260
ag1445
ag272
asg350
(lp4681
g131
ag68
ag134
ag139
ag3573
ag142
ag148
ag145
ag151
ag94
asg1241
(lp4682
g1228
ag717
ag1399
ag714
ag1231
ag1234
ag726
ag1240
ag1246
ag1249
asg3102
(lp4683
(g4415
S'sourire'
p4684
tp4685
ag2517
ag2520
ag2697
ag3096
ag2977
ag2220
ag3101
ag43
ag3536
asg1742
(lp4686
g3290
ag131
ag1738
ag68
ag134
ag1741
ag139
ag1068
ag142
ag148
asg1117
(lp4687
g131
ag68
ag71
ag94
ag1526
ag2598
ag599
ag91
ag2601
ag2604
asg1981
(lp4688
g1977
ag1980
ag2314
ag2311
ag2320
ag2323
ag2317
ag1992
ag254
ag2326
asg3632
(lp4689
g131
ag68
ag134
ag139
ag1068
ag142
ag2175
ag148
ag145
ag151
as.