(dp0
S'wild'
p1
S'sauvage'
p2
sS'snout'
p3
S'museau'
p4
sS'hissed'
p5
S'siffla'
p6
sS'ron'
p7
S'ron'
p8
sS'forbidden'
p9
S'interdit'
p10
sS'people'
p11
S'personnes'
p12
sS'results'
p13
S'r\xc3\xa9sultats'
p14
sS'yellow'
p15
S'jaune'
p16
sS'four'
p17
S'quatre'
p18
sS'known'
p19
S'connu'
p20
sS'woods'
p21
S'bois'
p22
sS'sleep'
p23
S'sommeil'
p24
sS'skin'
p25
S'peau'
p26
sS'follow'
p27
S'suivre'
p28
sS'chair'
p29
S'chaise'
p30
sS'captain'
p31
S'capitaine'
p32
sS'hate'
p33
S'haine'
p34
sS'seemed'
p35
S'semblait'
p36
sS'certainly'
p37
S's\xc3\xbbrement'
p38
sS'careful'
p39
S'prudent'
p40
sS'baron'
p41
S'baron'
p42
sS'beaters'
p43
S'batteurs'
p44
sS'watch'
p45
S'regarder'
p46
sS'wizard'
p47
S'sorcier'
p48
sS'grass'
p49
S'herbe'
p50
sS'wizardry'
p51
S'magie'
p52
sS'presents'
p53
S'cadeaux'
p54
sS'answered'
p55
S'r\xc3\xa9pondu'
p56
sS'tail'
p57
S'queue'
p58
sS'bike'
p59
S'v\xc3\xa9lo'
p60
sS'those'
p61
S'ceux'
p62
sS'under'
p63
S'sous'
p64
sS'jumped'
p65
S'saut\xc3\xa9'
p66
sS'sorry'
p67
S'd\xc3\xa9sol\xc3\xa9'
p68
sS'worth'
p69
S'valeur'
p70
sS'third'
p71
S'troisi\xc3\xa8me'
p72
sS'figg'
p73
S'figg'
p74
sS'breathing'
p75
S'respiration'
p76
sS'point'
p77
S'point'
p78
sS'garden'
p79
S'jardin'
p80
sS'sitting'
p81
S's\xc3\xa9ance'
p82
sS'horror'
p83
S'horreur'
p84
sS'robes'
p85
S'robes'
p86
sS'none'
p87
S'aucun'
p88
sS'saved'
p89
S'sauv\xc3\xa9'
p90
sS'choice'
p91
S'choix'
p92
sS'heard'
p93
S'entendu'
p94
sS'street'
p95
S'rue'
p96
sS'every'
p97
S'chaque'
p98
sS'foul'
p99
S'faute'
p100
sS'decide'
p101
S'd\xc3\xa9cider'
p102
sS'bartender'
p103
S'barman'
p104
sS'trouble'
p105
S'difficult\xc3\xa9'
p106
sS'difference'
p107
S'diff\xc3\xa9rence'
p108
sS'fireplace'
p109
S'chemin\xc3\xa9e'
p110
sS'minute'
p111
S'minute'
p112
sS'wore'
p113
S'portait'
p114
sS'prefect'
p115
S'pr\xc3\xa9fet'
p116
sS'sighed'
p117
S'soupira'
p118
sS'did'
p119
S'fait'
p120
sS'die'
p121
S'mourir'
p122
sS'notes'
p123
S'notes'
p124
sS'unusual'
p125
S'inhabituel'
p126
sS'list'
p127
S'liste'
p128
sS'brother'
p129
S'fr\xc3\xa8re'
p130
sS'flute'
p131
S'fl\xc3\xbbte'
p132
sS'leave'
p133
S'laisser'
p134
sS'these'
p135
S'ces'
p136
sS'red'
p137
S'rouge'
p138
sS'team'
p139
S'\xc3\xa9quipe'
p140
sS'small'
p141
S'petit'
p142
sS'clothes'
p143
S'v\xc3\xaatements'
p144
sS'forget'
p145
S'oublier'
p146
sS'work'
p147
S'travail'
p148
sS'force'
p149
S'force'
p150
sS'ten'
p151
S'dix'
p152
sS'tired'
p153
S'fatigu\xc3\xa9'
p154
sS'awake'
p155
S'\xc3\xa9veill\xc3\xa9'
p156
sS'tea'
p157
S'th\xc3\xa9'
p158
sS'bacon'
p159
S'bacon'
p160
sS'boots'
p161
S'bottes'
p162
sS'sign'
p163
S'signe'
p164
sS'past'
p165
S'pass\xc3\xa9'
p166
sS'sneaking'
p167
S'faufiler'
p168
sS'second'
p169
S'deuxi\xc3\xa8me'
p170
sS'noise'
p171
S'bruit'
p172
sS'roof'
p173
S'toit'
p174
sS'picked'
p175
S'choisi'
p176
sS'pass'
p177
S'passer'
p178
sS'terrible'
p179
S'terrible'
p180
sS'umbrella'
p181
S'parapluie'
p182
sS'dumbledores'
p183
S'dumbledore'
p184
sS'quill'
p185
S'plume'
p186
sS'blue'
p187
S'bleu'
p188
sS'nothing'
p189
S'rien'
p190
sS'hide'
p191
S'cacher'
p192
sS'darkness'
p193
S'obscurit\xc3\xa9'
p194
sS'clock'
p195
S'horloge'
p196
sS'giving'
p197
S'donnant'
p198
sS'sun'
p199
S'soleil'
p200
sS'section'
p201
S'section'
p202
sS'stool'
p203
S'tabouret'
p204
sS'fingers'
p205
S'doigts'
p206
sS'uniform'
p207
S'uniforme'
p208
sS'lights'
p209
S'lumi\xc3\xa8res'
p210
sS'twins'
p211
S'jumeaux'
p212
sS'above'
p213
S'dessus'
p214
sS'destroyed'
p215
S'd\xc3\xa9truit'
p216
sS'new'
p217
S'nouveau'
p218
sS'leviosa'
p219
S'leviosa'
p220
sS'nicholas'
p221
S'nicholas'
p222
sS'ginny'
p223
S'ginny'
p224
sS'except'
p225
S'sauf'
p226
sS'filled'
p227
S'rempli'
p228
sS'told'
p229
S'dit'
p230
sS'body'
p231
S'corps'
p232
sS'lessons'
p233
S'le\xc3\xa7ons'
p234
sS'angelina'
p235
S'angelina'
p236
sS'lee'
p237
S'lee'
p238
sS'leg'
p239
S'jambe'
p240
sS'doubt'
p241
S'doute'
p242
sS'human'
p243
S'humain'
p244
sS'leaning'
p245
S'pench\xc3\xa9'
p246
sS'stared'
p247
S'regard\xc3\xa9'
p248
sS'hours'
p249
S'heures'
p250
sS'met'
p251
S'rencontr\xc3\xa9'
p252
sS'busy'
p253
S'occup\xc3\xa9'
p254
sS'witch'
p255
S'sorci\xc3\xa8re'
p256
sS'cart'
p257
S'chariot'
p258
sS'making'
p259
S'fabrication'
p260
sS'alone'
p261
S'seul'
p262
sS'path'
p263
S'chemin'
p264
sS'quite'
p265
S'assez'
p266
sS'ceiling'
p267
S'plafond'
p268
sS'change'
p269
S'changement'
p270
sS'squashy'
p271
S'moelleux'
p272
sS'box'
p273
S'bo\xc3\xaete'
p274
sS'boy'
p275
S'gar\xc3\xa7on'
p276
sS'neville'
p277
g277
sS'ahead'
p278
S'devant'
p279
sS'entrance'
p280
S'entr\xc3\xa9e'
p281
sS'brilliant'
p282
S'brillant'
p283
sS'my'
p284
S'ma'
p285
sS'leaves'
p286
S'feuilles'
p287
sS'grinned'
p288
S'sourit'
p289
sS'reason'
p290
S'raison'
p291
sS'sparks'
p292
S'\xc3\xa9tincelles'
p293
sS'exams'
p294
S'examens'
p295
sS'shocked'
p296
S'choqu\xc3\xa9'
p297
sS'usually'
p298
S'habituellement'
p299
sS'flamel'
p300
S'flamel'
p301
sS'narrow'
p302
S'\xc3\xa9troit'
p303
sS'glittering'
p304
S'\xc3\xa9tincelant'
p305
sS'eyebrows'
p306
S'sourcils'
p307
sS'beautiful'
p308
S'beau'
p309
sS'followed'
p310
S'suivi'
p311
sS'family'
p312
S'famille'
p313
sS'danger'
p314
S'danger'
p315
sS'win'
p316
S'victoire'
p317
sS'thin'
p318
S'mince'
p319
sS'explained'
p320
S'expliqu\xc3\xa9'
p321
sS'bloody'
p322
S'sanglant'
p323
sS'brought'
p324
S'apport\xc3\xa9'
p325
sS'severus'
p326
S'severus'
p327
sS'color'
p328
S'couleur'
p329
sS'send'
p330
S'envoyer'
p331
sS'tap'
p332
S'robinet'
p333
sS'standing'
p334
S'debout'
p335
sS'terrified'
p336
S'terrifi\xc3\xa9'
p337
sS'wanted'
p338
S'voulu'
p339
sS'spoke'
p340
S'rayon'
p341
sS'would'
p342
S'voudrais'
p343
sS'hospital'
p344
S'h\xc3\xb4pital'
p345
sS'coins'
p346
S'pi\xc3\xa8ces'
p347
sS'direction'
p348
S'direction'
p349
sS'two'
p350
S'deux'
p351
sS'privet'
p352
g352
sS'throw'
p353
S'jeter'
p354
sS'eleven'
p355
S'onze'
p356
sS'live'
p357
S'vivre'
p358
sS'unpleasant'
p359
S'd\xc3\xa9sagr\xc3\xa9able'
p360
sS'call'
p361
S'appel'
p362
sS'calm'
p363
S'calme'
p364
sS'wondering'
p365
S'demande'
p366
sS'mysterious'
p367
S'myst\xc3\xa9rieux'
p368
sS'armchairs'
p369
S'fauteuils'
p370
sS'homework'
p371
S'devoirs'
p372
sS'tell'
p373
S'dire'
p374
sS'more'
p375
S'plus'
p376
sS'possession'
p377
S'possession'
p378
sS'roared'
p379
S'rugit'
p380
sS'gryffindor'
p381
S'gryffondor'
p382
sS'staying'
p383
S'rester'
p384
sS'door'
p385
S'porte'
p386
sS'knows'
p387
S'sait'
p388
sS'nimbus'
p389
S'nimbus'
p390
sS'share'
p391
S'part'
p392
sS'mad'
p393
S'fou'
p394
sS'shout'
p395
S'cri'
p396
sS'envelope'
p397
S'enveloppe'
p398
sS'stone'
p399
S'pierre'
p400
sS'award'
p401
S'prix'
p402
sS'hurt'
p403
S'blesser'
p404
sS'warn'
p405
S'pr\xc3\xa9venir'
p406
sS'excuse'
p407
S'excuse'
p408
sS'warm'
p409
S'chaud'
p410
sS'everywhere'
p411
S'partout'
p412
sS'stick'
p413
S'b\xc3\xa2ton'
p414
sS'sharply'
p415
S'nettement'
p416
sS'excellent'
p417
S'excellent'
p418
sS'baby'
p419
S'b\xc3\xa9b\xc3\xa9'
p420
sS'hole'
p421
S'trou'
p422
sS'hold'
p423
S'tenir'
p424
sS'parchment'
p425
S'parchemin'
p426
sS'earth'
p427
S'terre'
p428
sS'town'
p429
S'ville'
p430
sS'ronan'
p431
S'ronan'
p432
sS'keeping'
p433
S'garde'
p434
sS'word'
p435
S'mot'
p436
sS'room'
p437
S'salle'
p438
sS'hour'
p439
S'heure'
p440
sS'middle'
p441
S'milieu'
p442
sS'car'
p443
S'voiture'
p444
sS'pretend'
p445
S'pr\xc3\xa9tendre'
p446
sS'owlery'
p447
S'voli\xc3\xa8re'
p448
sS'cat'
p449
S'chat'
p450
sS'wands'
p451
S'baguettes'
p452
sS'sudden'
p453
S'soudain'
p454
sS'nine'
p455
S'neuf'
p456
sS'hermione'
p457
S'hermione'
p458
sS'learn'
p459
S'apprendre'
p460
sS'believed'
p461
S'cru'
p462
sS'meet'
p463
S'rencontrer'
p464
sS'laughter'
p465
S'rire'
p466
sS'marble'
p467
S'marbre'
p468
sS'broom'
p469
S'balai'
p470
sS'history'
p471
S'histoire'
p472
sS'control'
p473
S'contr\xc3\xb4le'
p474
sS'heart'
p475
S'coeur'
p476
sS'hagrid'
p477
S'hagrid'
p478
sS'hamburger'
p479
S'hamburger'
p480
sS'figure'
p481
S'figure'
p482
sS'give'
p483
S'donner'
p484
sS'frogs'
p485
S'grenouilles'
p486
sS'lock'
p487
S'bloquer'
p488
sS'sense'
p489
S'sens'
p490
sS'halloween'
p491
g491
sS'confused'
p492
S'confus'
p493
sS'dragons'
p494
S'dragons'
p495
sS'high'
p496
S'\xc3\xa9lev\xc3\xa9'
p497
sS'ready'
p498
S'pr\xc3\xaat'
p499
sS'woman'
p500
S'femme'
p501
sS'want'
p502
S'vouloir'
p503
sS'allowed'
p504
S'permis'
p505
sS'sharp'
p506
S'net'
p507
sS'drive'
p508
S'drive'
p509
sS'scar'
p510
S'cicatrice'
p511
sS'worse'
p512
S'pire'
p513
sS'pink'
p514
S'rose'
p515
sS'sir'
p516
S'monsieur'
p517
sS'end'
p518
S'fin'
p519
sS'rather'
p520
S'plut\xc3\xb4t'
p521
sS'six'
p522
S'six'
p523
sS'poking'
p524
S'piquer'
p525
sS'mumbled'
p526
S'marmonn\xc3\xa9'
p527
sS'dad'
p528
S'papa'
p529
sS'twitching'
p530
S'tremblement'
p531
sS'muggle'
p532
S'moldu'
p533
sS'forest'
p534
S'for\xc3\xaat'
p535
sS'answer'
p536
S'r\xc3\xa9ponse'
p537
sS'ordinary'
p538
S'ordinaire'
p539
sS'fudge'
p540
S'caramel'
p541
sS'waved'
p542
S'agita'
p543
sS'badly'
p544
S'mal'
p545
sS'plant'
p546
S'plante'
p547
sS'furiously'
p548
S'furieusement'
p549
sS'cupboard'
p550
S'placard'
p551
sS'rude'
p552
S'grossier'
p553
sS'may'
p554
S'peut'
p555
sS'muttering'
p556
S'murmurant'
p557
sS'dive'
p558
S'plongeon'
p559
sS'after'
p560
S'apr\xc3\xa8s'
p561
sS'different'
p562
S'diff\xc3\xa9rent'
p563
sS'exactly'
p564
S'exactement'
p565
sS'crashed'
p566
S'\xc3\xa9cras\xc3\xa9'
p567
sS'birthday'
p568
S'anniversaire'
p569
sS'snape'
p570
S'rogue'
p571
sS'blood'
p572
S'sang'
p573
sS'passageway'
p574
S'passage'
p575
sS'such'
p576
S'tel'
p577
sS'wave'
p578
S'vague'
p579
sS'lap'
p580
S'tour'
p581
sS'man'
p582
S'homme'
p583
sS'short'
p584
S'court'
p585
sS'branches'
p586
S'branches'
p587
sS'neck'
p588
S'cou'
p589
sS'johnson'
p590
S'johnson'
p591
sS'famous'
p592
S'c\xc3\xa9l\xc3\xa8bre'
p593
sS'light'
p594
S'lumi\xc3\xa8re'
p595
sS'lines'
p596
S'lignes'
p597
sS'fungi'
p598
S'champignons'
p599
sS'dragon'
p600
S'dragon'
p601
sS'owls'
p602
S'hiboux'
p603
sS'broomsticks'
p604
S'balais'
p605
sS'green'
p606
S'vert'
p607
sS'glancing'
p608
S'regardant'
p609
sS'writing'
p610
S'\xc3\xa9criture'
p611
sS'pay'
p612
S'payer'
p613
sS'furious'
p614
S'furieux'
p615
sS'tall'
p616
S'grand'
p617
sS'seamus'
p618
S'seamus'
p619
sS'patil'
p620
S'patil'
p621
sS'wind'
p622
S'vent'
p623
sS'imagining'
p624
S'imaginant'
p625
sS'rounded'
p626
S'arrondie'
p627
sS'help'
p628
S'aider'
p629
sS'office'
p630
S'bureau'
p631
sS'food'
p632
S'nourriture'
p633
sS'dreamed'
p634
S'r\xc3\xaav\xc3\xa9'
p635
sS'finnigan'
p636
S'finnigan'
p637
sS'move'
p638
S'mouvement'
p639
sS'midnight'
p640
S'minuit'
p641
sS'quietly'
p642
S'tranquillement'
p643
sS'years'
p644
S'ans'
p645
sS'fangs'
p646
S'crocs'
p647
sS'course'
p648
S'cours'
p649
sS'paper'
p650
S'papier'
p651
sS'london'
p652
S'londres'
p653
sS'motorcycle'
p654
S'moto'
p655
sS'hell'
p656
S'enfer'
p657
sS'cold'
p658
S'froid'
p659
sS'ticket'
p660
S'billet'
p661
sS'before'
p662
S'avant'
p663
sS'tore'
p664
S'd\xc3\xa9chira'
p665
sS'screaming'
p666
S'hurlement'
p667
sS'trying'
p668
S'essayer'
p669
sS'grin'
p670
S'sourire'
p671
sS'lamp'
p672
S'lampe'
p673
sS'edge'
p674
S'bord'
p675
sS'better'
p676
S'mieux'
p677
sS'window'
p678
S'fen\xc3\xaatre'
p679
sS'animals'
p680
S'animaux'
p681
sS'turban'
p682
S'turban'
p683
sS'mail'
p684
S'courrier'
p685
sS'hidden'
p686
S'cach\xc3\xa9'
p687
sS'soccer'
p688
S'football'
p689
sS'might'
p690
S'puissance'
p691
sS'ravenclaw'
p692
S'serdaigle'
p693
sS'crabbe'
p694
S'crabbe'
p695
sS'fool'
p696
S'tromper'
p697
sS'good'
p698
S'bon'
p699
sS'return'
p700
S'retour'
p701
sS'woken'
p702
S'r\xc3\xa9veill\xc3\xa9'
p703
sS'gray'
p704
S'gris'
p705
sS'wake'
p706
S'r\xc3\xa9veiller'
p707
sS'rattled'
p708
S'secou\xc3\xa9'
p709
sS'spell'
p710
S'sortil\xc3\xa8ge'
p711
sS'school'
p712
S'\xc3\xa9cole'
p713
sS'flew'
p714
S'vol\xc3\xa9'
p715
sS'underneath'
p716
S'dessous'
p717
sS'boats'
p718
S'bateaux'
p719
sS'walls'
p720
S'murs'
p721
sS'snake'
p722
S'serpent'
p723
sS'half'
p724
S'moiti\xc3\xa9'
p725
sS'foot'
p726
S'pied'
p727
sS'okay'
p728
S'bien'
p729
sS'youknowwho'
p730
S'tusaisqui'
p731
sS'sixteen'
p732
S'seize'
p733
sS'cage'
p734
S'cage'
p735
sS'day'
p736
S'jour'
p737
sS'nor'
p738
S'ni'
p739
sS'shadows'
p740
S'ombres'
p741
sS'easily'
p742
S'facilement'
p743
sS'term'
p744
S'terme'
p745
sS'shouted'
p746
S'cria'
p747
sS'name'
p748
S'nom'
p749
sS'chuckled'
p750
S'ricana'
p751
sS'james'
p752
g752
sS'times'
p753
S'fois'
p754
sS'drop'
p755
S'tomber'
p756
sS'feast'
p757
S'f\xc3\xaate'
p758
sS'stuck'
p759
S'coll\xc3\xa9'
p760
sS'frantically'
p761
S'fr\xc3\xa9n\xc3\xa9tiquement'
p762
sS'stopped'
p763
S'arr\xc3\xaat\xc3\xa9'
p764
sS'leaned'
p765
S'pencha'
p766
sS'truth'
p767
S'v\xc3\xa9rit\xc3\xa9'
p768
sS'found'
p769
S'trouv\xc3\xa9'
p770
sS'side'
p771
S'c\xc3\xb4t\xc3\xa9'
p772
sS'water'
p773
S'eau'
p774
sS'glasses'
p775
S'lunettes'
p776
sS'heavy'
p777
S'lourd'
p778
sS'reminded'
p779
S'rappel\xc3\xa9'
p780
sS'eh'
p781
S'hein'
p782
sS'map'
p783
S'carte'
p784
sS'staircase'
p785
S'escalier'
p786
sS'house'
p787
S'maison'
p788
sS'adventure'
p789
S'aventure'
p790
sS'hard'
p791
S'dur'
p792
sS'idea'
p793
S'id\xc3\xa9e'
p794
sS'celebrating'
p795
S'c\xc3\xa9l\xc3\xa9brer'
p796
sS'ball'
p797
S'balle'
p798
sS'year'
p799
S'ann\xc3\xa9e'
p800
sS'our'
p801
S'notre'
p802
sS'girl'
p803
S'fille'
p804
sS'morning'
p805
S'matin'
p806
sS'saturday'
p807
S'samedi'
p808
sS'sorcerers'
p809
S'sorciers'
p810
sS'troll'
p811
S'troll'
p812
sS'missed'
p813
S'manqu\xc3\xa9'
p814
sS'armor'
p815
S'armure'
p816
sS'walked'
p817
S'march\xc3\xa9'
p818
sS'jump'
p819
S'sauter'
p820
sS'since'
p821
S'depuis'
p822
sS'tomorrow'
p823
S'demain'
p824
sS'looking'
p825
S'recherche'
p826
sS'softly'
p827
S'doucement'
p828
sS'lord'
p829
S'seigneur'
p830
sS'surprise'
p831
S'surprise'
p832
sS'hufflepuff'
p833
S'poufsouffle'
p834
sS'cause'
p835
S'cause'
p836
sS'albus'
p837
S'albus'
p838
sS'quaffle'
p839
S'souafle'
p840
sS'afford'
p841
S'permettre'
p842
sS'stare'
p843
S'regard'
p844
sS'footsteps'
p845
S'traces'
p846
sS'bald'
p847
S'chauve'
p848
sS'turning'
p849
S'tournant'
p850
sS'barrier'
p851
S'barri\xc3\xa8re'
p852
sS'written'
p853
S'\xc3\xa9crit'
p854
sS'perfectly'
p855
S'parfaitement'
p856
sS'harry'
p857
g857
sS'forgive'
p858
S'pardonner'
p859
sS'quirrells'
p860
S'quirrell'
p861
sS'fred'
p862
S'fred'
p863
sS'houses'
p864
S'maisons'
p865
sS'completely'
p866
S'compl\xc3\xa8tement'
p867
sS'hogwarts'
p868
S'poudlard'
p869
sS'desperately'
p870
S'd\xc3\xa9sesp\xc3\xa9r\xc3\xa9ment'
p871
sS'imagine'
p872
S'imaginer'
p873
sS'put'
p874
S'mettre'
p875
sS'amazement'
p876
S'stup\xc3\xa9faction'
p877
sS'holidays'
p878
S'f\xc3\xaates'
p879
sS'thrown'
p880
S'jet\xc3\xa9'
p881
sS'enormous'
p882
S'\xc3\xa9norme'
p883
sS'ate'
p884
S'mang\xc3\xa9'
p885
sS'struck'
p886
S'frapp\xc3\xa9'
p887
sS'norwegian'
p888
S'norv\xc3\xa9gien'
p889
sS'shelves'
p890
S'\xc3\xa9tag\xc3\xa8res'
p891
sS'cauldrons'
p892
S'chaudrons'
p893
sS'steal'
p894
S'voler'
p895
sS'ask'
p896
S'demander'
p897
sS'days'
p898
S'journ\xc3\xa9es'
p899
sS'keep'
p900
S'garder'
p901
sS'thing'
p902
S'chose'
p903
sS'romania'
p904
S'roumanie'
p905
sS'place'
p906
S'lieu'
p907
sS'wrist'
p908
S'poignet'
p909
sS'castle'
p910
S'ch\xc3\xa2teau'
p911
sS'potions'
p912
S'potions'
p913
sS'onto'
p914
S'sur'
p915
sS'top'
p916
S'haut'
p917
sS'silver'
p918
S'argent'
p919
sS'first'
p920
S'premier'
p921
sS'rang'
p922
S'rang'
p923
sS'already'
p924
S'd\xc3\xa9j\xc3\xa0'
p925
sS'slipped'
p926
S'gliss\xc3\xa9'
p927
sS'feel'
p928
S'sentir'
p929
sS'threatening'
p930
S'mena\xc3\xa7ant'
p931
sS'unicorn'
p932
S'licorne'
p933
sS'potter'
p934
g934
sS'number'
p935
S'nombre'
p936
sS'welcome'
p937
S'bienvenue'
p938
sS'feet'
p939
S'pieds'
p940
sS'merrily'
p941
S'joyeusement'
p942
sS'chess'
p943
S'\xc3\xa9checs'
p944
sS'floors'
p945
S'\xc3\xa9tages'
p946
sS'done'
p947
S'fini'
p948
sS'delicious'
p949
S'd\xc3\xa9licieux'
p950
sS'impossible'
p951
S'impossible'
p952
sS'twitched'
p953
S'remua'
p954
sS'drove'
p955
S'conduite'
p956
sS'miss'
p957
S'manquer'
p958
sS'george'
p959
S'george'
p960
sS'size'
p961
S'taille'
p962
sS'guess'
p963
S'deviner'
p964
sS'goblins'
p965
S'gobelins'
p966
sS'heads'
p967
S't\xc3\xaates'
p968
sS'silent'
p969
S'silencieux'
p970
sS'nerves'
p971
S'nerfs'
p972
sS'twenty'
p973
S'vingt'
p974
sS'bite'
p975
S'mordre'
p976
sS'girls'
p977
S'filles'
p978
sS'twisted'
p979
S'tordu'
p980
sS'least'
p981
S'moins'
p982
sS'plastic'
p983
S'plastique'
p984
sS'pinned'
p985
S'\xc3\xa9pingl\xc3\xa9'
p986
sS'needed'
p987
S'n\xc3\xa9cessaire'
p988
sS'seeker'
p989
S'attrapeur'
p990
sS'master'
p991
S'ma\xc3\xaetre'
p992
sS'too'
p993
S'trop'
p994
sS'storm'
p995
S'temp\xc3\xaate'
p996
sS'wrapped'
p997
S'envelopp\xc3\xa9'
p998
sS'white'
p999
S'blanc'
p1000
sS'legs'
p1001
S'jambes'
p1002
sS'really'
p1003
S'vraiment'
p1004
sS'dogs'
p1005
S'chiens'
p1006
sS'friend'
p1007
S'ami'
p1008
sS'beard'
p1009
S'barbe'
p1010
sS'curtains'
p1011
S'rideaux'
p1012
sS'eyes'
p1013
S'yeux'
p1014
sS'stomach'
p1015
S'estomac'
p1016
sS'way'
p1017
S'fa\xc3\xa7on'
p1018
sS'panic'
p1019
S'panique'
p1020
sS'rats'
p1021
S'rats'
p1022
sS'relieved'
p1023
S'soulag\xc3\xa9'
p1024
sS'feathers'
p1025
S'plumes'
p1026
sS'nobody'
p1027
S'personne'
p1028
sS'interesting'
p1029
S'int\xc3\xa9ressant'
p1030
sS'punished'
p1031
S'puni'
p1032
sS'part'
p1033
S'partie'
p1034
sS'jordan'
p1035
g1035
sS'trolls'
p1036
S'trolls'
p1037
sS'believe'
p1038
S'croire'
p1039
sS'stairs'
p1040
S'escaliers'
p1041
sS'than'
p1042
S'que'
p1043
sS'wide'
p1044
S'large'
p1045
sS'television'
p1046
S't\xc3\xa9l\xc3\xa9vision'
p1047
sS'hundred'
p1048
S'cent'
p1049
sS'unfortunately'
p1050
S'malheureusement'
p1051
sS'showed'
p1052
S'montr\xc3\xa9'
p1053
sS'griphook'
p1054
S'gripsec'
p1055
sS'gotten'
p1056
S'obtenu'
p1057
sS'gotta'
p1058
S'dois'
p1059
sS'crowded'
p1060
S'bond\xc3\xa9'
p1061
sS'tree'
p1062
S'arbre'
p1063
sS'board'
p1064
S'conseil'
p1065
sS'bed'
p1066
S'lit'
p1067
sS'matter'
p1068
S'question'
p1069
sS'decided'
p1070
S'd\xc3\xa9cid\xc3\xa9'
p1071
sS'coat'
p1072
S'manteau'
p1073
sS'cards'
p1074
S'cartes'
p1075
sS'toward'
p1076
S'vers'
p1077
sS'playing'
p1078
S'jouer'
p1079
sS'firenze'
p1080
S'firenze'
p1081
sS'silence'
p1082
S'silence'
p1083
sS'desperate'
p1084
S'd\xc3\xa9sesp\xc3\xa9r\xc3\xa9'
p1085
sS'handkerchief'
p1086
S'mouchoir'
p1087
sS'ran'
p1088
S'courut'
p1089
sS'turned'
p1090
S'tourn\xc3\xa9'
p1091
sS'mine'
p1092
S'mine'
p1093
sS'magical'
p1094
S'magique'
p1095
sS'happily'
p1096
S'heureusement'
p1097
sS'rat'
p1098
S'rat'
p1099
sS'portrait'
p1100
S'portrait'
p1101
sS'need'
p1102
S'besoin'
p1103
sS'seen'
p1104
S'vu'
p1105
sS'seem'
p1106
S'para\xc3\xaetre'
p1107
sS'trembling'
p1108
S'tremblant'
p1109
sS'clearly'
p1110
S'clairement'
p1111
sS'ollivander'
p1112
S'ollivander'
p1113
sS'she'
p1114
S'elle'
p1115
sS'gives'
p1116
S'donne'
p1117
sS'forced'
p1118
S'forc\xc3\xa9'
p1119
sS'afraid'
p1120
S'peur'
p1121
sS'fierce'
p1122
S'f\xc3\xa9roce'
p1123
sS'lies'
p1124
S'mensonges'
p1125
sS'flaming'
p1126
S'flamboyant'
p1127
sS'able'
p1128
S'capable'
p1129
sS'eagerly'
p1130
S'avidement'
p1131
sS'zoo'
p1132
S'zoo'
p1133
sS'note'
p1134
S'note'
p1135
sS'sound'
p1136
S'sonner'
p1137
sS'chest'
p1138
S'poitrine'
p1139
sS'contact'
p1140
S'contact'
p1141
sS'take'
p1142
S'prendre'
p1143
sS'which'
p1144
S'qui'
p1145
sS'obviously'
p1146
S'\xc3\xa9videmment'
p1147
sS'finding'
p1148
S'd\xc3\xa9couverte'
p1149
sS'lily'
p1150
g1150
sS'even'
p1151
S'm\xc3\xaame'
p1152
sS'sure'
p1153
S's\xc3\xbbr'
p1154
sS'pain'
p1155
S'douleur'
p1156
sS'opposite'
p1157
S'oppos\xc3\xa9'
p1158
sS'reckon'
p1159
S'compter'
p1160
sS'headmaster'
p1161
S'directeur'
p1162
sS'knew'
p1163
S'savait'
p1164
sS'eight'
p1165
S'huit'
p1166
sS'plan'
p1167
S'plan'
p1168
sS'letter'
p1169
S'lettre'
p1170
sS'pair'
p1171
S'paire'
p1172
sS'knee'
p1173
S'genou'
p1174
sS'cleared'
p1175
S'd\xc3\xa9gag\xc3\xa9'
p1176
sS'extremely'
p1177
S'extr\xc3\xaamement'
p1178
sS'pulled'
p1179
S'tir\xc3\xa9'
p1180
sS'forever'
p1181
S'toujours'
p1182
sS'don'
p1183
S'don'
p1184
sS'jus'
p1185
S'jus'
p1186
sS'windows'
p1187
S'fen\xc3\xaatres'
p1188
sS'dream'
p1189
S'r\xc3\xaaver'
p1190
sS'professor'
p1191
S'professeur'
p1192
sS'proud'
p1193
S'fier'
p1194
sS'dog'
p1195
S'chien'
p1196
sS'order'
p1197
S'ordre'
p1198
sS'class'
p1199
S'classe'
p1200
sS'shook'
p1201
S'secoua'
p1202
sS'aunt'
p1203
S'tante'
p1204
sS'mustache'
p1205
S'moustache'
p1206
sS'clean'
p1207
S'propre'
p1208
sS'deeply'
p1209
S'profond\xc3\xa9ment'
p1210
sS'everything'
p1211
S'tout'
p1212
sS'usual'
p1213
S'habituel'
p1214
sS'shop'
p1215
S'boutique'
p1216
sS'saying'
p1217
S'disant'
p1218
sS'walking'
p1219
S'marche'
p1220
sS'shot'
p1221
S'coup'
p1222
sS'stunned'
p1223
S'\xc3\xa9tourdi'
p1224
sS'show'
p1225
S'spectacle'
p1226
sS'agreed'
p1227
S'convenu'
p1228
sS'queen'
p1229
S'reine'
p1230
sS'fifty'
p1231
S'cinquante'
p1232
sS'percy'
p1233
S'percy'
p1234
sS'bring'
p1235
S'apporter'
p1236
sS'bright'
p1237
S'clair'
p1238
sS'ever'
p1239
S'jamais'
p1240
sS'prefects'
p1241
S'pr\xc3\xa9fets'
p1242
sS'slytherin'
p1243
S'serpentard'
p1244
sS'carefully'
p1245
S'soigneusement'
p1246
sS'corner'
p1247
S'coin'
p1248
sS'lay'
p1249
S'poser'
p1250
sS'next'
p1251
S'prochaine'
p1252
sS'find'
p1253
S'trouver'
p1254
sS'ground'
p1255
S'terrain'
p1256
sS'toast'
p1257
S'toast'
p1258
sS'giant'
p1259
S'g\xc3\xa9ant'
p1260
sS'ha'
p1261
S'ha'
p1262
sS'grabbed'
p1263
S'saisi'
p1264
sS'music'
p1265
S'musique'
p1266
sS'clutching'
p1267
S'serrant'
p1268
sS'nervous'
p1269
S'nerveux'
p1270
sS'explain'
p1271
S'expliquer'
p1272
sS'muggles'
p1273
S'moldus'
p1274
sS'behind'
p1275
S'derri\xc3\xa8re'
p1276
sS'should'
p1277
S'devrait'
p1278
sS'being'
p1279
S'\xc3\xa9tant'
p1280
sS'tears'
p1281
S'larmes'
p1282
sS'air'
p1283
S'air'
p1284
sS'black'
p1285
S'noir'
p1286
sS'touched'
p1287
S'touch\xc3\xa9'
p1288
sS'excitedly'
p1289
S'excit\xc3\xa9'
p1290
sS'arm'
p1291
S'bras'
p1292
sS'thousands'
p1293
S'milliers'
p1294
sS'pointed'
p1295
S'pointu'
p1296
sS'pumpkin'
p1297
S'citrouille'
p1298
sS'meant'
p1299
S'signifiait'
p1300
sS'plate'
p1301
S'plaque'
p1302
sS'fer'
p1303
S'fer'
p1304
sS'mixture'
p1305
S'm\xc3\xa9lange'
p1306
sS'hit'
p1307
S'frapper'
p1308
sS'goes'
p1309
S'va'
p1310
sS'goblin'
p1311
S'gobelin'
p1312
sS'means'
p1313
S'moyens'
p1314
sS'beat'
p1315
S'battre'
p1316
sS'between'
p1317
S'entre'
p1318
sS'stop'
p1319
S'arr\xc3\xaater'
p1320
sS'kind'
p1321
S'genre'
p1322
sS'trees'
p1323
S'arbres'
p1324
sS'soon'
p1325
S'bient\xc3\xb4t'
p1326
sS'pocket'
p1327
S'poche'
p1328
sS'whistle'
p1329
S'sifflet'
p1330
sS'courage'
p1331
S'courage'
p1332
sS'nearly'
p1333
S'presque'
p1334
sS'words'
p1335
S'paroles'
p1336
sS'report'
p1337
S'rapport'
p1338
sS'during'
p1339
S'pendant'
p1340
sS'nasty'
p1341
S'm\xc3\xa9chant'
p1342
sS'expelled'
p1343
S'exclu'
p1344
sS'following'
p1345
S'suivant'
p1346
sS'places'
p1347
S'lieux'
p1348
sS'sleeve'
p1349
S'manche'
p1350
sS'racing'
p1351
S'courses'
p1352
sS'tabby'
p1353
S'tigr\xc3\xa9'
p1354
sS'teams'
p1355
S'\xc3\xa9quipes'
p1356
sS'bag'
p1357
S'sac'
p1358
sS'bad'
p1359
S'mauvais'
p1360
sS'stupid'
p1361
S'stupide'
p1362
sS'common'
p1363
S'commun'
p1364
sS'witches'
p1365
S'sorci\xc3\xa8res'
p1366
sS'dangerous'
p1367
S'dangereux'
p1368
sS'kill'
p1369
S'tuer'
p1370
sS'grab'
p1371
S'saisir'
p1372
sS'fixed'
p1373
S'fix\xc3\xa9'
p1374
sS'where'
p1375
S'o\xc3\xb9'
p1376
sS'silently'
p1377
S'silencieusement'
p1378
sS'looks'
p1379
S'regards'
p1380
sS'whispered'
p1381
S'murmura'
p1382
sS'blew'
p1383
S'souffla'
p1384
sS'questions'
p1385
g1385
sS'fair'
p1386
S'juste'
p1387
sS'burst'
p1388
S'\xc3\xa9clat'
p1389
sS'carrying'
p1390
S'portant'
p1391
sS'dived'
p1392
S'plong\xc3\xa9'
p1393
sS'notice'
p1394
S'avis'
p1395
sS'seat'
p1396
S'si\xc3\xa8ge'
p1397
sS'potion'
p1398
S'potion'
p1399
sS'computer'
p1400
S'ordinateur'
p1401
sS'asleep'
p1402
S'endormi'
p1403
sS'sea'
p1404
S'mer'
p1405
sS'close'
p1406
S'pr\xc3\xa8s'
p1407
sS'smiling'
p1408
S'souriant'
p1409
sS'best'
p1410
S'meilleur'
p1411
sS'points'
p1412
S'points'
p1413
sS'knees'
p1414
S'genoux'
p1415
sS'joking'
p1416
S'plaisanterie'
p1417
sS'lots'
p1418
S'beaucoup'
p1419
sS'clearing'
p1420
S'clairi\xc3\xa8re'
p1421
sS'away'
p1422
S'loin'
p1423
sS'seekers'
p1424
S'attrapeurs'
p1425
sS'finally'
p1426
S'enfin'
p1427
sS'birds'
p1428
S'oiseaux'
p1429
sS'dormitory'
p1430
S'dortoir'
p1431
sS'opened'
p1432
S'ouvert'
p1433
sS'outside'
p1434
S'ext\xc3\xa9rieur'
p1435
sS'horrible'
p1436
S'horrible'
p1437
sS'mum'
p1438
S'maman'
p1439
sS'probably'
p1440
S'probablement'
p1441
sS'sorts'
p1442
S'sortes'
p1443
sS'reading'
p1444
S'lecture'
p1445
sS'moaned'
p1446
S'g\xc3\xa9mit'
p1447
sS'bought'
p1448
S'achet\xc3\xa9'
p1449
sS'knowing'
p1450
S'connaissance'
p1451
sS'perfect'
p1452
S'parfait'
p1453
sS'ends'
p1454
S'extr\xc3\xa9mit\xc3\xa9s'
p1455
sS'pomfrey'
p1456
S'pomfresh'
p1457
sS'rolled'
p1458
S'roul\xc3\xa9'
p1459
sS'attention'
p1460
S'attention'
p1461
sS'weak'
p1462
S'faible'
p1463
sS'however'
p1464
S'cependant'
p1465
sS'newspaper'
p1466
S'journal'
p1467
sS'vernon'
p1468
g1468
sS'concentrate'
p1469
S'concentrer'
p1470
sS'crossbow'
p1471
S'arbal\xc3\xa8te'
p1472
sS'key'
p1473
S'cl\xc3\xa9'
p1474
sS'invisible'
p1475
S'invisible'
p1476
sS'news'
p1477
S'nouvelles'
p1478
sS'come'
p1479
S'venir'
p1480
sS'bronze'
p1481
S'bronze'
p1482
sS'kitchen'
p1483
S'cuisine'
p1484
sS'received'
p1485
S're\xc3\xa7u'
p1486
sS'protect'
p1487
S'prot\xc3\xa9ger'
p1488
sS'feeling'
p1489
S'sentiment'
p1490
sS'last'
p1491
S'dernier'
p1492
sS'brown'
p1493
S'brun'
p1494
sS'norbert'
p1495
S'norbert'
p1496
sS'joke'
p1497
S'blague'
p1498
sS'taking'
p1499
S'prise'
p1500
sS'cup'
p1501
S'tasse'
p1502
sS'against'
p1503
S'contre'
p1504
sS'temper'
p1505
S'humeur'
p1506
sS'players'
p1507
S'joueurs'
p1508
sS'loudly'
p1509
S'fort'
p1510
sS'enchantments'
p1511
S'enchantements'
p1512
sS'faces'
p1513
S'visages'
p1514
sS'yelled'
p1515
S'hurla'
p1516
sS'asked'
p1517
S'demand\xc3\xa9'
p1518
sS'gringotts'
p1519
S'gringotts'
p1520
sS'liked'
p1521
S'aim\xc3\xa9'
p1522
sS'bell'
p1523
S'cloche'
p1524
sS'appeared'
p1525
S'apparu'
p1526
sS'seems'
p1527
S'semble'
p1528
sS'unicorns'
p1529
S'licornes'
p1530
sS'walk'
p1531
S'marcher'
p1532
sS'flames'
p1533
S'flammes'
p1534
sS'twin'
p1535
S'double'
p1536
sS'simply'
p1537
S'simplement'
p1538
sS'whispering'
p1539
S'chuchotement'
p1540
sS'table'
p1541
S'table'
p1542
sS'trust'
p1543
S'confiance'
p1544
sS'offered'
p1545
S'pr\xc3\xa9sent\xc3\xa9'
p1546
sS'boat'
p1547
S'bateau'
p1548
sS'speak'
p1549
S'parler'
p1550
sS'late'
p1551
S'tard'
p1552
sS'arts'
p1553
S'lettres'
p1554
sS'oliver'
p1555
S'olivier'
p1556
sS'stamp'
p1557
S'timbre'
p1558
sS'trapdoor'
p1559
S'trappe'
p1560
sS'damp'
p1561
S'humide'
p1562
sS'three'
p1563
S'trois'
p1564
sS'tiny'
p1565
S'minuscule'
p1566
sS'quickly'
p1567
S'rapidement'
p1568
sS'breath'
p1569
S'souffle'
p1570
sS'secret'
p1571
S'secret'
p1572
sS'slowly'
p1573
S'lentement'
p1574
sS'interest'
p1575
S'int\xc3\xa9r\xc3\xaat'
p1576
sS'ah'
p1577
S'ah'
p1578
sS'expected'
p1579
S'attendu'
p1580
sS'pile'
p1581
S'pile'
p1582
sS'entered'
p1583
S'entr\xc3\xa9'
p1584
sS'wait'
p1585
S'attendre'
p1586
sS'warmth'
p1587
S'chaleur'
p1588
sS'threw'
p1589
S'jeta'
p1590
sS'wants'
p1591
S'veut'
p1592
sS'dry'
p1593
S'sec'
p1594
sS'life'
p1595
S'vie'
p1596
sS'lived'
p1597
S'v\xc3\xa9cu'
p1598
sS'families'
p1599
S'familles'
p1600
sS'easy'
p1601
S'facile'
p1602
sS'powerful'
p1603
S'puissant'
p1604
sS'fire'
p1605
S'feu'
p1606
sS'mind'
p1607
S'esprit'
p1608
sS'thousand'
p1609
S'mille'
p1610
sS'malfoys'
p1611
S'malefoy'
p1612
sS'player'
p1613
S'joueur'
p1614
sS'dedalus'
p1615
S'dedalus'
p1616
sS'understand'
p1617
S'comprendre'
p1618
sS'covered'
p1619
S'couvert'
p1620
sS'quick'
p1621
S'rapide'
p1622
sS'pig'
p1623
S'cochon'
p1624
sS'weeks'
p1625
S'semaines'
p1626
sS'present'
p1627
S'pr\xc3\xa9sent'
p1628
sS'case'
p1629
S'cas'
p1630
sS'save'
p1631
S'sauver'
p1632
sS'thirty'
p1633
S'trente'
p1634
sS'howling'
p1635
S'hurlant'
p1636
sS'solid'
p1637
S'solide'
p1638
sS'straight'
p1639
S'droit'
p1640
sS'worried'
p1641
S'inquiet'
p1642
sS'ministry'
p1643
S'minist\xc3\xa8re'
p1644
sS'match'
p1645
S'match'
p1646
sS'shall'
p1647
S'doit'
p1648
sS'country'
p1649
S'pays'
p1650
sS'squeezed'
p1651
S'comprim\xc3\xa9'
p1652
sS'shops'
p1653
S'boutiques'
p1654
sS'voice'
p1655
S'voix'
p1656
sS'study'
p1657
S'\xc3\xa9tude'
p1658
sS'mistake'
p1659
S'erreur'
p1660
sS'bin'
p1661
S'coffre'
p1662
sS'seven'
p1663
S'sept'
p1664
sS'full'
p1665
S'plein'
p1666
sS'hoping'
p1667
S'esp\xc3\xa9rant'
p1668
sS'century'
p1669
S'si\xc3\xa8cle'
p1670
sS'vol'
p1671
S'vol'
p1672
sS'ink'
p1673
S'encre'
p1674
sS'telephone'
p1675
S't\xc3\xa9l\xc3\xa9phone'
p1676
sS'piercing'
p1677
S'per\xc3\xa7ant'
p1678
sS'helped'
p1679
S'aid\xc3\xa9'
p1680
sS'shame'
p1681
S'honte'
p1682
sS'cant'
p1683
S'pente'
p1684
sS'evening'
p1685
S'soir\xc3\xa9e'
p1686
sS'horse'
p1687
S'cheval'
p1688
sS'spells'
p1689
S'sorts'
p1690
sS'crash'
p1691
S'fracas'
p1692
sS'rid'
p1693
S'd\xc3\xa9barrasser'
p1694
sS'petunia'
p1695
S'p\xc3\xa9tunia'
p1696
sS'worry'
p1697
S'inqui\xc3\xa9ter'
p1698
sS'halt'
p1699
S'arr\xc3\xaat'
p1700
sS'funny'
p1701
S'dr\xc3\xb4le'
p1702
sS'knuts'
p1703
S'noises'
p1704
sS'bottles'
p1705
S'bouteilles'
p1706
sS'wearing'
p1707
S'porter'
p1708
sS'things'
p1709
S'choses'
p1710
sS'make'
p1711
S'faire'
p1712
sS'bowl'
p1713
S'bol'
p1714
sS'cross'
p1715
S'traverser'
p1716
sS'forehead'
p1717
S'front'
p1718
sS'read'
p1719
S'lire'
p1720
sS'another'
p1721
S'autre'
p1722
sS'strange'
p1723
S'\xc3\xa9trange'
p1724
sS'corridor'
p1725
S'couloir'
p1726
sS'underground'
p1727
S'souterrain'
p1728
sS'several'
p1729
S'plusieurs'
p1730
sS'difficult'
p1731
S'difficile'
p1732
sS'week'
p1733
S'semaine'
p1734
sS'practice'
p1735
S'pratique'
p1736
sS'smoke'
p1737
S'fum\xc3\xa9e'
p1738
sS'mountain'
p1739
S'montagne'
p1740
sS'keys'
p1741
S'cl\xc3\xa9s'
p1742
sS'forgotten'
p1743
S'oubli\xc3\xa9'
p1744
sS'hang'
p1745
S'pendre'
p1746
sS'yesterday'
p1747
S'hier'
p1748
sS'rain'
p1749
S'pluie'
p1750
sS'hand'
p1751
S'main'
p1752
sS'binoculars'
p1753
S'jumelles'
p1754
sS'marched'
p1755
S'marcha'
p1756
sS'moment'
p1757
S'moment'
p1758
sS'leapt'
p1759
S'bondit'
p1760
sS'arrived'
p1761
S'arriv\xc3\xa9e'
p1762
sS'purpose'
p1763
S'but'
p1764
sS'boa'
p1765
S'boa'
p1766
sS'dark'
p1767
S'sombre'
p1768
sS'kid'
p1769
S'enfant'
p1770
sS'break'
p1771
S'pause'
p1772
sS'werewolf'
p1773
S'garou'
p1774
sS'charlie'
p1775
S'charlie'
p1776
sS'roughly'
p1777
S'grossi\xc3\xa8rement'
p1778
sS'fighting'
p1779
S'combat'
p1780
sS'finds'
p1781
S'd\xc3\xa9couvertes'
p1782
sS'thought'
p1783
S'pens\xc3\xa9e'
p1784
sS'without'
p1785
S'sans'
p1786
sS'bottle'
p1787
S'bouteille'
p1788
sS'mother'
p1789
S'm\xc3\xa8re'
p1790
sS'drawing'
p1791
S'dessin'
p1792
sS'amazed'
p1793
S'\xc3\xa9tonn\xc3\xa9'
p1794
sS'left'
p1795
S'gauche'
p1796
sS'summer'
p1797
S'\xc3\xa9t\xc3\xa9'
p1798
sS'bludger'
p1799
S'cognard'
p1800
sS'moments'
p1801
S'moments'
p1802
sS'hands'
p1803
S'mains'
p1804
sS'cakes'
p1805
S'g\xc3\xa2teaux'
p1806
sS'rest'
p1807
S'reste'
p1808
sS'growled'
p1809
S'grogna'
p1810
sS'distant'
p1811
S'lointain'
p1812
sS'thanks'
p1813
S'merci'
p1814
sS'snarled'
p1815
S'gronda'
p1816
sS'immediately'
p1817
S'imm\xc3\xa9diatement'
p1818
sS'touch'
p1819
S'toucher'
p1820
sS'useful'
p1821
S'utile'
p1822
sS'yes'
p1823
S'oui'
p1824
sS'silvery'
p1825
S'argent\xc3\xa9'
p1826
sS'speed'
p1827
S'vitesse'
p1828
sS'yet'
p1829
S'encore'
p1830
sS'taken'
p1831
S'pris'
p1832
sS'nicolas'
p1833
S'nicolas'
p1834
sS'tables'
p1835
S'tableaux'
p1836
sS'cut'
p1837
S'coupe'
p1838
sS'listen'
p1839
S'\xc3\xa9couter'
p1840
sS'also'
p1841
S'aussi'
p1842
sS'thinking'
p1843
S'r\xc3\xa9flexion'
p1844
sS'lady'
p1845
S'dame'
p1846
sS'thick'
p1847
S'\xc3\xa9pais'
p1848
sS'extra'
p1849
S'suppl\xc3\xa9mentaire'
p1850
sS'sky'
p1851
S'ciel'
p1852
sS'lake'
p1853
S'lac'
p1854
sS'complain'
p1855
S'plaindre'
p1856
sS'wall'
p1857
S'mur'
p1858
sS'lets'
p1859
S'laisse'
p1860
sS'book'
p1861
S'livre'
p1862
sS'parents'
p1863
S'parents'
p1864
sS'dare'
p1865
S'oser'
p1866
sS'crying'
p1867
S'pleurs'
p1868
sS'remembrall'
p1869
S'rapeltout'
p1870
sS'has'
p1871
S'a'
p1872
sS'hat'
p1873
S'chapeau'
p1874
sS'longbottom'
p1875
S'londubat'
p1876
sS'surprised'
p1877
S'surpris'
p1878
sS'sandwiches'
p1879
S'sandwiches'
p1880
sS'real'
p1881
S'r\xc3\xa9el'
p1882
sS'mystery'
p1883
S'myst\xc3\xa8re'
p1884
sS'sick'
p1885
S'malade'
p1886
sS'marcus'
p1887
S'marcus'
p1888
sS'rules'
p1889
S'r\xc3\xa8gles'
p1890
sS'possible'
p1891
S'possible'
p1892
sS'anger'
p1893
S'col\xc3\xa8re'
p1894
sS'early'
p1895
S't\xc3\xb4t'
p1896
sS'game'
p1897
S'jeu'
p1898
sS'five'
p1899
S'cinq'
p1900
sS'listening'
p1901
S'\xc3\xa9coute'
p1902
sS'world'
p1903
S'monde'
p1904
sS'snare'
p1905
S'pi\xc3\xa8ge'
p1906
sS'emptied'
p1907
S'vide'
p1908
sS'blankets'
p1909
S'couvertures'
p1910
sS'dreams'
p1911
S'r\xc3\xaaves'
p1912
sS'shoulder'
p1913
S'\xc3\xa9paule'
p1914
sS'stuff'
p1915
S'truc'
p1916
sS'lost'
p1917
S'perdu'
p1918
sS'stranger'
p1919
S'\xc3\xa9tranger'
p1920
sS'obvious'
p1921
S'\xc3\xa9vident'
p1922
sS'addressed'
p1923
S'adress\xc3\xa9e'
p1924
sS'candy'
p1925
S'bonbons'
p1926
sS'chamber'
p1927
S'chambre'
p1928
sS'peeves'
p1929
S'peeves'
p1930
sS'serious'
p1931
S'grave'
p1932
sS'steps'
p1933
S'mesures'
p1934
sS'nose'
p1935
S'nez'
p1936
sS'bewitched'
p1937
S'enchant\xc3\xa9'
p1938
sS'lose'
p1939
S'perdre'
p1940
sS'friar'
p1941
S'moine'
p1942
sS'stood'
p1943
S'r\xc3\xa9sist\xc3\xa9'
p1944
sS'soft'
p1945
S'doux'
p1946
sS'names'
p1947
S'noms'
p1948
sS'twelve'
p1949
S'douze'
p1950
sS'shed'
p1951
S'hangar'
p1952
sS'mcgonagall'
p1953
g1953
sS'old'
p1954
S'vieux'
p1955
sS'often'
p1956
S'souvent'
p1957
sS'crowd'
p1958
S'foule'
p1959
sS'witchcraft'
p1960
S'sorcellerie'
p1961
sS'gold'
p1962
S'or'
p1963
sS'fluttered'
p1964
S'flottaient'
p1965
sS'some'
p1966
S'certains'
p1967
sS'library'
p1968
S'biblioth\xc3\xa8que'
p1969
sS'oh'
p1970
S'oh'
p1971
sS'hair'
p1972
S'cheveux'
p1973
sS'lips'
p1974
S'l\xc3\xa8vres'
p1975
sS'rage'
p1976
S'rage'
p1977
sS'snatched'
p1978
S'arrach\xc3\xa9'
p1979
sS'mirror'
p1980
S'miroir'
p1981
sS'dear'
p1982
S'cher'
p1983
sS'gave'
p1984
S'donn\xc3\xa9'
p1985
sS'little'
p1986
S'peu'
p1987
sS'pale'
p1988
S'p\xc3\xa2le'
p1989
sS'thinks'
p1990
S'pense'
p1991
sS'happens'
p1992
S'arrive'
p1993
sS'socks'
p1994
S'chaussettes'
p1995
sS'quidditch'
p1996
S'quidditch'
p1997
sS'lead'
p1998
S'conduire'
p1999
sS'bottom'
p2000
S'bas'
p2001
sS'purple'
p2002
S'pourpre'
p2003
sS'normal'
p2004
S'normal'
p2005
sS'ice'
p2006
S'glace'
p2007
sS'moon'
p2008
S'lune'
p2009
sS'toad'
p2010
S'crapaud'
p2011
sS'icy'
p2012
S'glac\xc3\xa9'
p2013
sS'asking'
p2014
S'demandant'
p2015
sS'swooping'
p2016
S'plongeant'
p2017
sS'warned'
p2018
S'averti'
p2019
sS'goyle'
p2020
S'goyle'
p2021
sS'christmas'
p2022
S'no\xc3\xabl'
p2023
sS'transfiguration'
p2024
S'm\xc3\xa9tamorphose'
p2025
sS'run'
p2026
S'course'
p2027
sS'business'
p2028
S'entreprise'
p2029
sS'seconds'
p2030
S'secondes'
p2031
sS'night'
p2032
S'nuit'
p2033
sS'centaur'
p2034
S'centaure'
p2035
sS'disappeared'
p2036
S'disparu'
p2037
sS'broken'
p2038
S'cass\xc3\xa9'
p2039
sS'elixir'
p2040
S'\xc3\xa9lixir'
p2041
sS'keeper'
p2042
S'gardien'
p2043
sS'coldly'
p2044
S'froidement'
p2045
sS'dead'
p2046
S'mort'
p2047
sS'chapter'
p2048
S'chapitre'
p2049
sS'sister'
p2050
S'soeur'
p2051
sS'package'
p2052
S'paquet'
p2053
sS'row'
p2054
S'rang\xc3\xa9e'
p2055
sS'months'
p2056
S'mois'
p2057
sS'favorite'
p2058
S'favori'
p2059
sS'recognized'
p2060
S'reconnu'
p2061
sS'dinner'
p2062
S'd\xc3\xaener'
p2063
sS'important'
p2064
S'important'
p2065
sS'beans'
p2066
S'haricots'
p2067
sS'stand'
p2068
S'supporter'
p2069
sS'pockets'
p2070
S'poches'
p2071
sS'blocked'
p2072
S'bloqu\xc3\xa9'
p2073
sS'mouth'
p2074
S'bouche'
p2075
sS'luck'
p2076
S'chance'
p2077
sS'slightly'
p2078
S'l\xc3\xa9g\xc3\xa8rement'
p2079
sS'ropes'
p2080
S'cordes'
p2081
sS'road'
p2082
S'route'
p2083
sS'tape'
p2084
S'bande'
p2085
sS'owl'
p2086
S'hibou'
p2087
sS'raised'
p2088
S'relev\xc3\xa9'
p2089
sS'weasleys'
p2090
S'weasley'
p2091
sS'visit'
p2092
S'visite'
p2093
sS'lent'
p2094
S'pr\xc3\xaat\xc3\xa9'
p2095
sS'delighted'
p2096
S'ravi'
p2097
sS'cauldron'
p2098
S'chaudron'
p2099
sS'son'
p2100
S'fils'
p2101
sS'cursed'
p2102
S'maudit'
p2103
sS'erised'
p2104
S'ris\xc3\xa9d'
p2105
sS'throat'
p2106
S'gorge'
p2107
sS'shock'
p2108
S'choc'
p2109
sS'pairs'
p2110
S'paires'
p2111
sS'lesson'
p2112
S'le\xc3\xa7on'
p2113
sS'mark'
p2114
S'marque'
p2115
sS'frightened'
p2116
S'effray\xc3\xa9'
p2117
sS'particularly'
p2118
S'particuli\xc3\xa8rement'
p2119
sS'strangely'
p2120
S'\xc3\xa9trangement'
p2121
sS'impressed'
p2122
S'impressionn\xc3\xa9'
p2123
sS'parvati'
p2124
g2124
sS'rustling'
p2125
S'bruissement'
p2126
sS'rushed'
p2127
S'pr\xc3\xa9cipit\xc3\xa9'
p2128
sS'flying'
p2129
S'volant'
p2130
sS'hey'
p2131
S'h\xc3\xa9'
p2132
sS'long'
p2133
S'longue'
p2134
sS'noticed'
p2135
S'remarqu\xc3\xa9'
p2136
sS'start'
p2137
S'd\xc3\xa9but'
p2138
sS'cats'
p2139
S'chats'
p2140
sS'invisibility'
p2141
S'invisibilit\xc3\xa9'
p2142
sS'stars'
p2143
S'\xc3\xa9toiles'
p2144
sS'bludgers'
p2145
S'cognards'
p2146
sS'happy'
p2147
S'heureux'
p2148
sS'tight'
p2149
S'serr\xc3\xa9'
p2150
sS'head'
p2151
S't\xc3\xaate'
p2152
sS'buy'
p2153
S'acheter'
p2154
sS'complete'
p2155
S'complet'
p2156
sS'happen'
p2157
S'arriver'
p2158
sS'becoming'
p2159
S'devenir'
p2160
sS'mars'
p2161
S'mars'
p2162
sS'hoped'
p2163
S'esp\xc3\xa9r\xc3\xa9'
p2164
sS'boys'
p2165
S'gar\xc3\xa7ons'
p2166
sS'repeated'
p2167
S'r\xc3\xa9p\xc3\xa9t\xc3\xa9'
p2168
sS'hear'
p2169
S'entendre'
p2170
sS'alive'
p2171
S'vivant'
p2172
sS'granger'
p2173
S'granger'
p2174
sS'seats'
p2175
S'si\xc3\xa8ges'
p2176
sS'line'
p2177
S'ligne'
p2178
sS'ear'
p2179
S'oreille'
p2180
sS'true'
p2181
S'vrai'
p2182
sS'eat'
p2183
S'manger'
p2184
sS'he'
p2185
S'il'
p2186
sS'pull'
p2187
S'tirer'
p2188
sS'duel'
p2189
S'duel'
p2190
sS'made'
p2191
S'fabriqu\xc3\xa9'
p2192
sS'braver'
p2193
S'courageux'
p2194
sS'mrs'
p2195
S'madame'
p2196
sS'whether'
p2197
S'si'
p2198
sS'wish'
p2199
S'souhaiter'
p2200
sS'drills'
p2201
S'perceuses'
p2202
sS'us'
p2203
S'nous'
p2204
sS'father'
p2205
S'p\xc3\xa8re'
p2206
sS'excitement'
p2207
S'excitation'
p2208
sS'nostrils'
p2209
S'narines'
p2210
sS'books'
p2211
S'livres'
p2212
sS'dirty'
p2213
S'sale'
p2214
sS'doors'
p2215
S'portes'
p2216
sS'cake'
p2217
S'g\xc3\xa2teau'
p2218
sS'problem'
p2219
S'probl\xc3\xa8me'
p2220
sS'piece'
p2221
S'pi\xc3\xa8ce'
p2222
sS'called'
p2223
S'appel\xc3\xa9'
p2224
sS'distance'
p2225
S'distance'
p2226
sS'breathe'
p2227
S'respirer'
p2228
sS'sometimes'
p2229
S'parfois'
p2230
sS'sight'
p2231
S'vue'
p2232
sS'flat'
p2233
S'plat'
p2234
sS'compartment'
p2235
S'compartiment'
p2236
sS'moved'
p2237
S'd\xc3\xa9m\xc3\xa9nag\xc3\xa9'
p2238
sS'shoulders'
p2239
S'\xc3\xa9paules'
p2240
sS'deep'
p2241
S'profond'
p2242
sS'hungry'
p2243
S'avide'
p2244
sS'scarlet'
p2245
S'\xc3\xa9carlate'
p2246
sS'single'
p2247
S'unique'
p2248
sS'warning'
p2249
S'avertissement'
p2250
sS'rule'
p2251
S'r\xc3\xa8gle'
p2252
sS'planets'
p2253
S'plan\xc3\xa8tes'
p2254
sS'curious'
p2255
S'curieux'
p2256
sS'floating'
p2257
S'flottant'
p2258
sS'face'
p2259
S'visage'
p2260
sS'draco'
p2261
S'drago'
p2262
sS'trip'
p2263
S'voyage'
p2264
sS'scabbers'
p2265
S'cro\xc3\xbbtard'
p2266
sS'stiffly'
p2267
S'raide'
p2268
sS'lemon'
p2269
S'citron'
p2270
sS'hurtled'
p2271
S'fon\xc3\xa7ait'
p2272
sS'floor'
p2273
S'\xc3\xa9tage'
p2274
sS'idiot'
p2275
S'idiot'
p2276
sS'oak'
p2277
S'ch\xc3\xaane'
p2278
sS'started'
p2279
S'commenc\xc3\xa9'
p2280
sS'interested'
p2281
S'int\xc3\xa9ress\xc3\xa9'
p2282
sS'marks'
p2283
S'marques'
p2284
sS'holding'
p2285
S'tenue'
p2286
sS'dursleys'
p2287
S'dursley'
p2288
sS'wing'
p2289
S'aile'
p2290
sS'smell'
p2291
S'odeur'
p2292
sS'roll'
p2293
S'rouleau'
p2294
sS'realize'
p2295
S'r\xc3\xa9aliser'
p2296
sS'nice'
p2297
S'agr\xc3\xa9able'
p2298
sS'poor'
p2299
S'pauvres'
p2300
sS'championship'
p2301
S'championnat'
p2302
sS'brothers'
p2303
S'fr\xc3\xa8res'
p2304
sS'phoenix'
p2305
S'ph\xc3\xa9nix'
p2306
sS'students'
p2307
S'\xc3\xa9tudiants'
p2308
sS'ears'
p2309
S'ou\xc3\xafe'
p2310
sS'why'
p2311
S'pourquoi'
p2312
sS'teeth'
p2313
S'dents'
p2314
sS'reached'
p2315
S'atteint'
p2316
sS'peas'
p2317
S'pois'
p2318
sS'waving'
p2319
S'agitant'
p2320
sS'herbs'
p2321
S'herbes'
p2322
sS'fell'
p2323
S'abattre'
p2324
sS'flitwick'
p2325
S'flitwick'
p2326
sS'snitch'
p2327
S'vif'
p2328
sS'chocolate'
p2329
S'chocolat'
p2330
sS'friends'
p2331
S'amis'
p2332
sS'centaurs'
p2333
S'centaures'
p2334
sS'ghost'
p2335
S'fant\xc3\xb4me'
p2336
sS'younger'
p2337
S'jeune'
p2338
sS'happening'
p2339
S'\xc3\xa9v\xc3\xa9nement'
p2340
sS'glass'
p2341
S'verre'
p2342
sS'age'
p2343
S'\xc3\xa2ge'
p2344
sS'together'
p2345
S'ensemble'
p2346
sS'train'
p2347
S'train'
p2348
sS'time'
p2349
S'temps'
p2350
sS'sausages'
p2351
S'saucisses'
p2352
sS'yell'
p2353
S'crier'
p2354
sS'starting'
p2355
S'd\xc3\xa9part'
p2356
sS'having'
p2357
S'ayant'
p2358
sS'others'
p2359
S'autres'
p2360
sS'voldemorts'
p2361
S'voldemort'
p2362
s.