(dp0
S'pass\xc3\xa9'
p1
(lp2
S'past'
p3
aS'passed'
p4
asS'vue'
p5
(lp6
S'sight'
p7
aS'seeing'
p8
aS'view'
p9
asS'peur'
p10
(lp11
S'afraid'
p12
aS'fear'
p13
asS'rire'
p14
(lp15
S'laughter'
p16
aS'laughing'
p17
aS'laugh'
p18
asS'regard\xc3\xa9'
p19
(lp20
S'stared'
p21
aS'watched'
p22
aS'looked'
p23
asS'toujours'
p24
(lp25
S'forever'
p26
aS'always'
p27
asS'fini'
p28
(lp29
S'done'
p30
aS'finished'
p31
asS'voler'
p32
(lp33
S'steal'
p34
aS'rob'
p35
aS'fly'
p36
asS'murmura'
p37
(lp38
S'whispered'
p39
aS'muttered'
p40
aS'murmured'
p41
asS'sorciers'
p42
(lp43
S'sorcerers'
p44
aS'wizards'
p45
aS'wizarding'
p46
asS'sourire'
p47
(lp48
S'grin'
p49
aS'smile'
p50
asS'mang\xc3\xa9'
p51
(lp52
S'ate'
p53
aS'eaten'
p54
asS'devenir'
p55
(lp56
S'becoming'
p57
aS'become'
p58
asS'rose'
p59
(lp60
S'pink'
p61
aS'rose'
p62
asS'plume'
p63
(lp64
S'quill'
p65
aS'feather'
p66
asS'vide'
p67
(lp68
S'emptied'
p69
aS'empty'
p70
asS'passage'
p71
(lp72
S'passageway'
p73
aS'passage'
p74
aS'passing'
p75
asS'maison'
p76
(lp77
S'house'
p78
aS'home'
p79
asS'd\xc3\xa9part'
p80
(lp81
S'starting'
p82
aS'leaving'
p83
asS'plumes'
p84
(lp85
S'feathers'
p86
aS'quills'
p87
asS'nez'
p88
(lp89
S'nose'
p90
aS'noses'
p91
asS'main'
p92
(lp93
S'hand'
p94
aS'handed'
p95
asS'regarder'
p96
(lp97
S'watch'
p98
aS'watching'
p99
aS'staring'
p100
asS'bonbons'
p101
(lp102
S'candy'
p103
aS'sweets'
p104
asS'personne'
p105
(lp106
S'nobody'
p107
aS'anyone'
p108
aS'person'
p109
asS'rogue'
p110
(lp111
S'snape'
p112
aS'snapes'
p113
asS'voix'
p114
(lp115
S'voice'
p116
aS'voices'
p117
asS'donn\xc3\xa9'
p118
(lp119
S'gave'
p120
aS'given'
p121
asS'magie'
p122
(lp123
S'wizardry'
p124
aS'magic'
p125
asS'faire'
p126
(lp127
S'make'
p128
aS'doing'
p129
asS'courrier'
p130
(lp131
S'mail'
p132
aS'letters'
p133
asS'excit\xc3\xa9'
p134
(lp135
S'excitedly'
p136
aS'excited'
p137
asS'vouloir'
p138
(lp139
S'want'
p140
aS'wanting'
p141
asS'marques'
p142
(lp143
S'marks'
p144
aS'makes'
p145
asS'carte'
p146
(lp147
S'map'
p148
aS'card'
p149
asS'tomber'
p150
(lp151
S'drop'
p152
aS'fall'
p153
asS'humeur'
p154
(lp155
S'temper'
p156
aS'mood'
p157
asS'attendre'
p158
(lp159
S'wait'
p160
aS'expect'
p161
asS'pire'
p162
(lp163
S'worse'
p164
aS'worst'
p165
asS'fait'
p166
(lp167
S'did'
p168
aS'fact'
p169
asS'porte'
p170
(lp171
S'door'
p172
aS'doorway'
p173
asS'laisser'
p174
(lp175
S'leave'
p176
aS'let'
p177
asS'histoire'
p178
(lp179
S'history'
p180
aS'story'
p181
asS'terrain'
p182
(lp183
S'ground'
p184
aS'field'
p185
asS'\xc3\xa9tincelant'
p186
(lp187
S'glittering'
p188
aS'glinting'
p189
asS'disparu'
p190
(lp191
S'disappeared'
p192
aS'vanished'
p193
aS'gone'
p194
asS'autre'
p195
(lp196
S'another'
p197
aS'else'
p198
aS'other'
p199
asS'jouer'
p200
(lp201
S'playing'
p202
aS'play'
p203
asS'gliss\xc3\xa9'
p204
(lp205
S'slipped'
p206
aS'slid'
p207
asS'ouvert'
p208
(lp209
S'opened'
p210
aS'open'
p211
asS'gryffondor'
p212
(lp213
S'gryffindor'
p214
aS'gryffindors'
p215
asS'rien'
p216
(lp217
S'nothing'
p218
aS'anything'
p219
asS'demand\xc3\xa9'
p220
(lp221
S'asked'
p222
aS'wondered'
p223
asS'peu'
p224
(lp225
S'little'
p226
aS'few'
p227
asS'courageux'
p228
(lp229
S'braver'
p230
aS'brave'
p231
asS'effray\xc3\xa9'
p232
(lp233
S'frightened'
p234
aS'scared'
p235
asS'chaque'
p236
(lp237
S'every'
p238
aS'each'
p239
asS'bureau'
p240
(lp241
S'office'
p242
aS'desk'
p243
asS'propre'
p244
(lp245
S'clean'
p246
aS'proper'
p247
aS'own'
p248
asS'nourriture'
p249
(lp250
S'food'
p251
aS'eating'
p252
asS'm\xc3\xaame'
p253
(lp254
S'even'
p255
aS'same'
p256
asS'porter'
p257
(lp258
S'wearing'
p259
aS'carry'
p260
aS'bear'
p261
asS'humide'
p262
(lp263
S'damp'
p264
aS'wet'
p265
asS'malefoy'
p266
(lp267
S'malfoys'
p268
aS'malfoy'
p269
asS'heureux'
p270
(lp271
S'happy'
p272
aS'glad'
p273
aS'pleased'
p274
aS'lucky'
p275
asS'moins'
p276
(lp277
S'least'
p278
aS'less'
p279
asS'garde'
p280
(lp281
S'keeping'
p282
aS'guarding'
p283
aS'guard'
p284
asS'faute'
p285
(lp286
S'foul'
p287
aS'fault'
p288
asS'dit'
p289
(lp290
S'told'
p291
aS'says'
p292
asS'vernon'
p293
(lp294
g293
aS'vernons'
p295
asS'dire'
p296
(lp297
S'tell'
p298
aS'say'
p299
asS'genre'
p300
(lp301
S'kind'
p302
aS'sort'
p303
asS'hurla'
p304
(lp305
S'yelled'
p306
aS'shrieked'
p307
aS'screamed'
p308
asS'maman'
p309
(lp310
S'mum'
p311
aS'mom'
p312
asS'brillant'
p313
(lp314
S'brilliant'
p315
aS'shone'
p316
asS'moyens'
p317
(lp318
S'means'
p319
aS'ways'
p320
asS'recherche'
p321
(lp322
S'looking'
p323
aS'search'
p324
asS'cri'
p325
(lp326
S'shout'
p327
aS'cry'
p328
asS'soudain'
p329
(lp330
S'sudden'
p331
aS'suddenly'
p332
asS'jeune'
p333
(lp334
S'younger'
p335
aS'young'
p336
asS'dumbledore'
p337
(lp338
S'dumbledores'
p339
aS'dumbledore'
p340
asS'beaucoup'
p341
(lp342
S'lots'
p343
aS'much'
p344
aS'many'
p345
asS'madame'
p346
(lp347
S'mrs'
p348
aS'madam'
p349
asS'tour'
p350
(lp351
S'lap'
p352
aS'round'
p353
aS'turn'
p354
aS'tower'
p355
asS'tout'
p356
(lp357
S'everything'
p358
aS'any'
p359
asS'stupide'
p360
(lp361
S'stupid'
p362
aS'foolish'
p363
asS'vie'
p364
(lp365
S'life'
p366
aS'living'
p367
asS'parler'
p368
(lp369
S'speak'
p370
aS'talk'
p371
asS'devrait'
p372
(lp373
S'should'
p374
aS'ought'
p375
asS'potter'
p376
(lp377
g376
aS'potters'
p378
asS'cria'
p379
(lp380
S'shouted'
p381
aS'cried'
p382
asS'feuilles'
p383
(lp384
S'leaves'
p385
aS'sheets'
p386
asS'loin'
p387
(lp388
S'away'
p389
aS'far'
p390
asS'chaud'
p391
(lp392
S'warm'
p393
aS'hot'
p394
asS'bois'
p395
(lp396
S'woods'
p397
aS'wood'
p398
asS'frapp\xc3\xa9'
p399
(lp400
S'struck'
p401
aS'knocked'
p402
asS'question'
p403
(lp404
S'matter'
p405
aS'question'
p406
asS'mort'
p407
(lp408
S'dead'
p409
aS'died'
p410
aS'death'
p411
asS'puissance'
p412
(lp413
S'might'
p414
aS'power'
p415
asS'attendu'
p416
(lp417
S'expected'
p418
aS'waited'
p419
asS'choisi'
p420
(lp421
S'picked'
p422
aS'chosen'
p423
asS'quirrell'
p424
(lp425
S'quirrells'
p426
ag424
asS'manteau'
p427
(lp428
S'coat'
p429
aS'cloak'
p430
asS'assez'
p431
(lp432
S'quite'
p433
aS'enough'
p434
aS'pretty'
p435
asS'ceux'
p436
(lp437
S'those'
p438
aS'ones'
p439
asS'serpentard'
p440
(lp441
S'slytherin'
p442
aS'slytherins'
p443
asS'poufsouffle'
p444
(lp445
S'hufflepuff'
p446
aS'hufflepuffs'
p447
asS'frapper'
p448
(lp449
S'hit'
p450
aS'knock'
p451
asS'argent'
p452
(lp453
S'silver'
p454
aS'money'
p455
asS'fort'
p456
(lp457
S'loudly'
p458
aS'loud'
p459
asS'balais'
p460
(lp461
S'broomsticks'
p462
aS'brooms'
p463
asS'r\xc3\xa9flexion'
p464
(lp465
S'thinking'
p466
aS'reflection'
p467
asS'professeur'
p468
(lp469
S'professor'
p470
aS'teacher'
p471
asS'voldemort'
p472
(lp473
S'voldemorts'
p474
aS'voldemort'
p475
asS'merci'
p476
(lp477
S'thanks'
p478
aS'thank'
p479
asS'sous'
p480
(lp481
S'under'
p482
aS'beneath'
p483
asS'grogna'
p484
(lp485
S'growled'
p486
aS'grunted'
p487
asS'r\xc3\xa9veill\xc3\xa9'
p488
(lp489
S'woken'
p490
aS'woke'
p491
asS'encore'
p492
(lp493
S'yet'
p494
aS'still'
p495
asS'va'
p496
(lp497
S'goes'
p498
aS'gonna'
p499
asS'chuchotement'
p500
(lp501
S'whispering'
p502
aS'whisper'
p503
asS'doucement'
p504
(lp505
S'softly'
p506
aS'gently'
p507
asS'\xc3\xa9norme'
p508
(lp509
S'enormous'
p510
aS'huge'
p511
asS'essayer'
p512
(lp513
S'trying'
p514
aS'try'
p515
asS'avant'
p516
(lp517
S'before'
p518
aS'forward'
p519
aS'front'
p520
asS'rapide'
p521
(lp522
S'quick'
p523
aS'fast'
p524
asS'\xc3\xa2ge'
p525
(lp526
S'age'
p527
aS'ages'
p528
asS'sourit'
p529
(lp530
S'grinned'
p531
aS'smiled'
p532
asS'presque'
p533
(lp534
S'nearly'
p535
aS'almost'
p536
asS'clair'
p537
(lp538
S'bright'
p539
aS'clear'
p540
asS'pi\xc3\xa8ces'
p541
(lp542
S'coins'
p543
aS'pieces'
p544
asS'ni'
p545
(lp546
S'nor'
p547
aS'neither'
p548
asS'dursley'
p549
(lp550
S'dursleys'
p551
aS'dursley'
p552
asS'\xc3\xa9checs'
p553
(lp554
S'chess'
p555
aS'chessmen'
p556
asS'weasley'
p557
(lp558
S'weasleys'
p559
aS'weasley'
p560
asS'balai'
p561
(lp562
S'broom'
p563
aS'broomstick'
p564
asS'calme'
p565
(lp566
S'calm'
p567
aS'quiet'
p568
asS'grand'
p569
(lp570
S'tall'
p571
aS'large'
p572
aS'big'
p573
aS'great'
p574
asS'plus'
p575
(lp576
S'more'
p577
aS'most'
p578
aS'anymore'
p579
asS'ensemble'
p580
(lp581
S'together'
p582
aS'set'
p583
aS'whole'
p584
asS'salle'
p585
(lp586
S'room'
p587
aS'hall'
p588
asS'difficult\xc3\xa9'
p589
(lp590
S'trouble'
p591
aS'struggling'
p592
asS'rester'
p593
(lp594
S'staying'
p595
aS'stay'
p596
asS'cass\xc3\xa9'
p597
(lp598
S'broken'
p599
aS'broke'
p600
aS'snapped'
p601
asS'chance'
p602
(lp603
S'luck'
p604
aS'chance'
p605
asS'mal'
p606
(lp607
S'badly'
p608
aS'wrong'
p609
aS'evil'
p610
asS'plut\xc3\xb4t'
p611
(lp612
S'rather'
p613
aS'instead'
p614
asS'entre'
p615
(lp616
S'between'
p617
aS'among'
p618
asS'dessous'
p619
(lp620
S'underneath'
p621
aS'below'
p622
asS'faible'
p623
(lp624
S'weak'
p625
aS'low'
p626
aS'faint'
p627
asS'bo\xc3\xaete'
p628
(lp629
S'box'
p630
aS'can'
p631
as.