(dp0
S'r\xc3\xa9veiller'
p1
S'wake'
p2
sS'grossier'
p3
S'rude'
p4
sS'ron'
p5
S'ron'
p6
sS'pass\xc3\xa9'
p7
S'past'
p8
sS'dessus'
p9
S'above'
p10
sS'trappe'
p11
S'trapdoor'
p12
sS'gronda'
p13
S'snarled'
p14
sS'\xc3\xa9veill\xc3\xa9'
p15
S'awake'
p16
sS'r\xc3\xaaver'
p17
S'dream'
p18
sS'r\xc3\xaaves'
p19
S'dreams'
p20
sS'veut'
p21
S'wants'
p22
sS'\xc3\xa9t\xc3\xa9'
p23
S'summer'
p24
sS'retour'
p25
S'return'
p26
sS'aider'
p27
S'help'
p28
sS'\xc3\xa9clat'
p29
S'burst'
p30
sS'minuscule'
p31
S'tiny'
p32
sS'privet'
p33
g33
sS'facilement'
p34
S'easily'
p35
sS'interdit'
p36
S'forbidden'
p37
sS'devenir'
p38
S'becoming'
p39
sS'donner'
p40
S'give'
p41
sS'plan\xc3\xa8tes'
p42
S'planets'
p43
sS'fum\xc3\xa9e'
p44
S'smoke'
p45
sS'fon\xc3\xa7ait'
p46
S'hurtled'
p47
sS'rouleau'
p48
S'roll'
p49
sS'passage'
p50
S'passageway'
p51
sS'victoire'
p52
S'win'
p53
sS'malheureusement'
p54
S'unfortunately'
p55
sS'pr\xc3\xaat\xc3\xa9'
p56
S'lent'
p57
sS'sens'
p58
S'sense'
p59
sS'faible'
p60
S'weak'
p61
sS'sifflet'
p62
S'whistle'
p63
sS'tabouret'
p64
S'stool'
p65
sS'ph\xc3\xa9nix'
p66
S'phoenix'
p67
sS'honte'
p68
S'shame'
p69
sS'figg'
p70
S'figg'
p71
sS'vers'
p72
S'toward'
p73
sS'vert'
p74
S'green'
p75
sS'bonbons'
p76
S'candy'
p77
sS'neuf'
p78
S'nine'
p79
sS'soir\xc3\xa9e'
p80
S'evening'
p81
sS'robes'
p82
S'robes'
p83
sS'invisible'
p84
S'invisible'
p85
sS'froid'
p86
S'cold'
p87
sS'rogue'
p88
S'snape'
p89
sS'erreur'
p90
S'mistake'
p91
sS'voix'
p92
S'voice'
p93
sS'surprise'
p94
S'surprise'
p95
sS'garder'
p96
S'keep'
p97
sS'tranquillement'
p98
S'quietly'
p99
sS'minute'
p100
S'minute'
p101
sS'examens'
p102
S'exams'
p103
sS'yeux'
p104
S'eyes'
p105
sS'magie'
p106
S'wizardry'
p107
sS'rideaux'
p108
S'curtains'
p109
sS'sans'
p110
S'without'
p111
sS'mauvais'
p112
S'bad'
p113
sS'extr\xc3\xa9mit\xc3\xa9s'
p114
S'ends'
p115
sS'courrier'
p116
S'mail'
p117
sS'notes'
p118
S'notes'
p119
sS'\xc3\xa9tages'
p120
S'floors'
p121
sS'poitrine'
p122
S'chest'
p123
sS'large'
p124
S'wide'
p125
sS'demand\xc3\xa9'
p126
S'asked'
p127
sS'\xc3\xa9tourdi'
p128
S'stunned'
p129
sS'dix'
p130
S'ten'
p131
sS'porter'
p132
S'wearing'
p133
sS'cadeaux'
p134
S'presents'
p135
sS'harry'
p136
g136
sS'dit'
p137
S'told'
p138
sS'trouver'
p139
S'find'
p140
sS'attendre'
p141
S'wait'
p142
sS'\xc3\xa9pingl\xc3\xa9'
p143
S'pinned'
p144
sS'saut\xc3\xa9'
p145
S'jumped'
p146
sS'ville'
p147
S'town'
p148
sS'cher'
p149
S'dear'
p150
sS'journ\xc3\xa9es'
p151
S'days'
p152
sS'force'
p153
S'force'
p154
sS'doigts'
p155
S'fingers'
p156
sS'mcgonagall'
p157
g157
sS'histoire'
p158
S'history'
p159
sS'bacon'
p160
S'bacon'
p161
sS's\xc3\xbbrement'
p162
S'certainly'
p163
sS'relev\xc3\xa9'
p164
S'raised'
p165
sS'd\xc3\xa9cid\xc3\xa9'
p166
S'decided'
p167
sS'pr\xc3\xa9fet'
p168
S'prefect'
p169
sS'droit'
p170
S'straight'
p171
sS'pleurs'
p172
S'crying'
p173
sS'b\xc3\xa9b\xc3\xa9'
p174
S'baby'
p175
sS'pr\xc3\xa9venir'
p176
S'warn'
p177
sS'forc\xc3\xa9'
p178
S'forced'
p179
sS'parfois'
p180
S'sometimes'
p181
sS'trop'
p182
S'too'
p183
sS'r\xc3\xa9sultats'
p184
S'results'
p185
sS'\xc3\xa9tonn\xc3\xa9'
p186
S'amazed'
p187
sS'filles'
p188
S'girls'
p189
sS'courageux'
p190
S'braver'
p191
sS'nez'
p192
S'nose'
p193
sS'sur'
p194
S'onto'
p195
sS'fr\xc3\xa9n\xc3\xa9tiquement'
p196
S'frantically'
p197
sS'aile'
p198
S'wing'
p199
sS'grenouilles'
p200
S'frogs'
p201
sS'chaleur'
p202
S'warmth'
p203
sS'leviosa'
p204
S'leviosa'
p205
sS'nicholas'
p206
S'nicholas'
p207
sS'ginny'
p208
S'ginny'
p209
sS'balle'
p210
S'ball'
p211
sS'flottant'
p212
S'floating'
p213
sS'sortil\xc3\xa8ge'
p214
S'spell'
p215
sS'angelina'
p216
S'angelina'
p217
sS'chose'
p218
S'thing'
p219
sS'd\xc3\xa9licieux'
p220
S'delicious'
p221
sS'arr\xc3\xaater'
p222
S'stop'
p223
sS'tenue'
p224
S'holding'
p225
sS'toucher'
p226
S'touch'
p227
sS'mer'
p228
S'sea'
p229
sS'c\xc3\xb4t\xc3\xa9'
p230
S'side'
p231
sS'r\xc3\xa9ponse'
p232
S'answer'
p233
sS'\xc3\xa9trangement'
p234
S'strangely'
p235
sS'temp\xc3\xaate'
p236
S'storm'
p237
sS'ombres'
p238
S'shadows'
p239
sS'maman'
p240
S'mum'
p241
sS'moyens'
p242
S'means'
p243
sS'neville'
p244
g244
sS'connaissance'
p245
S'knowing'
p246
sS'voli\xc3\xa8re'
p247
S'owlery'
p248
sS'jet\xc3\xa9'
p249
S'thrown'
p250
sS'beaucoup'
p251
S'lots'
p252
sS'r\xc3\xa8gle'
p253
S'rule'
p254
sS'permis'
p255
S'allowed'
p256
sS'lentement'
p257
S'slowly'
p258
sS'fabriqu\xc3\xa9'
p259
S'made'
p260
sS'bol'
p261
S'bowl'
p262
sS'verre'
p263
S'glass'
p264
sS'poche'
p265
S'pocket'
p266
sS'olivier'
p267
S'oliver'
p268
sS'flamel'
p269
S'flamel'
p270
sS'couloir'
p271
S'corridor'
p272
sS'mouvement'
p273
S'move'
p274
sS'roumanie'
p275
S'romania'
p276
sS'reste'
p277
S'rest'
p278
sS'pendant'
p279
S'during'
p280
sS'pause'
p281
S'break'
p282
sS'lourd'
p283
S'heavy'
p284
sS'vif'
p285
S'snitch'
p286
sS'danger'
p287
S'danger'
p288
sS'regard\xc3\xa9'
p289
S'stared'
p290
sS'apr\xc3\xa8s'
p291
S'after'
p292
sS'londres'
p293
S'london'
p294
sS'estomac'
p295
S'stomach'
p296
sS'feuilles'
p297
S'leaves'
p298
sS'licornes'
p299
S'unicorns'
p300
sS'minuit'
p301
S'midnight'
p302
sS'entreprise'
p303
S'business'
p304
sS'avidement'
p305
S'eagerly'
p306
sS'vide'
p307
S'emptied'
p308
sS'chaud'
p309
S'warm'
p310
sS'bient\xc3\xb4t'
p311
S'soon'
p312
sS'huit'
p313
S'eight'
p314
sS't\xc3\xa9l\xc3\xa9phone'
p315
S'telephone'
p316
sS'dents'
p317
S'teeth'
p318
sS'raide'
p319
S'stiffly'
p320
sS'oreille'
p321
S'ear'
p322
sS'serpent'
p323
S'snake'
p324
sS'commun'
p325
S'common'
p326
sS'rencontr\xc3\xa9'
p327
S'met'
p328
sS'fr\xc3\xa8re'
p329
S'brother'
p330
sS'chemin\xc3\xa9e'
p331
S'fireplace'
p332
sS'trouv\xc3\xa9'
p333
S'found'
p334
sS'voudrais'
p335
S'would'
p336
sS'feu'
p337
S'fire'
p338
sS'quirrell'
p339
S'quirrells'
p340
sS'marmonn\xc3\xa9'
p341
S'mumbled'
p342
sS'fr\xc3\xa8res'
p343
S'brothers'
p344
sS'montr\xc3\xa9'
p345
S'showed'
p346
sS'rugit'
p347
S'roared'
p348
sS'odeur'
p349
S'smell'
p350
sS'assez'
p351
S'quite'
p352
sS'regarder'
p353
S'watch'
p354
sS'possession'
p355
S'possession'
p356
sS'm\xc3\xa9lange'
p357
S'mixture'
p358
sS'paroles'
p359
S'words'
p360
sS'mois'
p361
S'months'
p362
sS'pratique'
p363
S'practice'
p364
sS'lointain'
p365
S'distant'
p366
sS'points'
p367
S'points'
p368
sS'nimbus'
p369
S'nimbus'
p370
sS'derri\xc3\xa8re'
p371
S'behind'
p372
sS'billet'
p373
S'ticket'
p374
sS'hein'
p375
S'eh'
p376
sS'excuse'
p377
S'excuse'
p378
sS'appel'
p379
S'call'
p380
sS'si\xc3\xa8ge'
p381
S'seat'
p382
sS'excellent'
p383
S'excellent'
p384
sS'soudain'
p385
S'sudden'
p386
sS'sorci\xc3\xa8re'
p387
S'witch'
p388
sS's\xc3\xa9ance'
p389
S'sitting'
p390
sS'ronan'
p391
S'ronan'
p392
sS'corps'
p393
S'body'
p394
sS'gauche'
p395
S'left'
p396
sS'ma'
p397
S'my'
p398
sS'jeune'
p399
S'younger'
p400
sS'semble'
p401
S'seems'
p402
sS'cas'
p403
S'case'
p404
sS'\xc3\xa9lixir'
p405
S'elixir'
p406
sS'esp\xc3\xa9r\xc3\xa9'
p407
S'hoped'
p408
sS'g\xc3\xa2teau'
p409
S'cake'
p410
sS'arbal\xc3\xa8te'
p411
S'crossbow'
p412
sS'sous'
p413
S'under'
p414
sS'agita'
p415
S'waved'
p416
sS'hermione'
p417
S'hermione'
p418
sS'pauvres'
p419
S'poor'
p420
sS'sommeil'
p421
S'sleep'
p422
sS'ricana'
p423
S'chuckled'
p424
sS'garou'
p425
S'werewolf'
p426
sS'route'
p427
S'road'
p428
sS'enfant'
p429
S'kid'
p430
sS'diff\xc3\xa9rence'
p431
S'difference'
p432
sS'lettre'
p433
S'letter'
p434
sS'hagrid'
p435
S'hagrid'
p436
sS'hamburger'
p437
S'hamburger'
p438
sS'visage'
p439
S'face'
p440
sS'figure'
p441
S'figure'
p442
sS'profond\xc3\xa9ment'
p443
S'deeply'
p444
sS'halloween'
p445
g445
sS'int\xc3\xa9ress\xc3\xa9'
p446
S'interested'
p447
sS'dragons'
p448
S'dragons'
p449
sS'd\xc3\xa9couverte'
p450
S'finding'
p451
sS'couvert'
p452
S'covered'
p453
sS'visite'
p454
S'visit'
p455
sS'barri\xc3\xa8re'
p456
S'barrier'
p457
sS'p\xc3\xa2le'
p458
S'pale'
p459
sS'gar\xc3\xa7on'
p460
S'boy'
p461
sS'rayon'
p462
S'spoke'
p463
sS'genou'
p464
S'knee'
p465
sS'r\xc3\xa9el'
p466
S'real'
p467
sS'clair'
p468
S'bright'
p469
sS'hangar'
p470
S'shed'
p471
sS'pi\xc3\xa8ces'
p472
S'coins'
p473
sS'glace'
p474
S'ice'
p475
sS'cours'
p476
S'course'
p477
sS'court'
p478
S'short'
p479
sS'battre'
p480
S'beat'
p481
sS'soleil'
p482
S'sun'
p483
sS'r\xc3\xaav\xc3\xa9'
p484
S'dreamed'
p485
sS's\xc3\xbbr'
p486
S'sure'
p487
sS'remarqu\xc3\xa9'
p488
S'noticed'
p489
sS'six'
p490
S'six'
p491
sS'conduire'
p492
S'lead'
p493
sS'pr\xc3\xa9cipit\xc3\xa9'
p494
S'rushed'
p495
sS'rapport'
p496
S'report'
p497
sS'juste'
p498
S'fair'
p499
sS'calme'
p500
S'calm'
p501
sS'clairi\xc3\xa8re'
p502
S'clearing'
p503
sS'beau'
p504
S'beautiful'
p505
sS'volant'
p506
S'flying'
p507
sS'\xc3\xa9cole'
p508
S'school'
p509
sS'conseil'
p510
S'board'
p511
sS'ensemble'
p512
S'together'
p513
sS'capitaine'
p514
S'captain'
p515
sS'citrouille'
p516
S'pumpkin'
p517
sS'difficult\xc3\xa9'
p518
S'trouble'
p519
sS'pois'
p520
S'peas'
p521
sS'probablement'
p522
S'probably'
p523
sS'cuisine'
p524
S'kitchen'
p525
sS'notre'
p526
S'our'
p527
sS'vol\xc3\xa9'
p528
S'flew'
p529
sS't\xc3\xb4t'
p530
S'early'
p531
sS'lac'
p532
S'lake'
p533
sS'dr\xc3\xb4le'
p534
S'funny'
p535
sS'extr\xc3\xaamement'
p536
S'extremely'
p537
sS'horreur'
p538
S'horror'
p539
sS'fracas'
p540
S'crash'
p541
sS'bouteille'
p542
S'bottle'
p543
sS'heure'
p544
S'hour'
p545
sS'mal'
p546
S'badly'
p547
sS'tordu'
p548
S'twisted'
p549
sS'a'
p550
S'has'
p551
sS'\xc3\xa9quipe'
p552
S'team'
p553
sS'trois'
p554
S'three'
p555
sS'endormi'
p556
S'asleep'
p557
sS'johnson'
p558
S'johnson'
p559
sS'facile'
p560
S'easy'
p561
sS'nouvelles'
p562
S'news'
p563
sS'noises'
p564
S'knuts'
p565
sS'avant'
p566
S'before'
p567
sS'dortoir'
p568
S'dormitory'
p569
sS'dragon'
p570
S'dragon'
p571
sS'bo\xc3\xaete'
p572
S'box'
p573
sS'si'
p574
S'whether'
p575
sS'horloge'
p576
S'clock'
p577
sS'serrant'
p578
S'clutching'
p579
sS'silence'
p580
S'silence'
p581
sS'enchant\xc3\xa9'
p582
S'bewitched'
p583
sS'poudlard'
p584
S'hogwarts'
p585
sS'nous'
p586
S'us'
p587
sS'chien'
p588
S'dog'
p589
sS'seamus'
p590
S'seamus'
p591
sS'patil'
p592
S'patil'
p593
sS'd\xc3\xa9m\xc3\xa9nag\xc3\xa9'
p594
S'moved'
p595
sS'mieux'
p596
S'better'
p597
sS'signe'
p598
S'sign'
p599
sS'sonner'
p600
S'sound'
p601
sS'serdaigle'
p602
S'ravenclaw'
p603
sS'peur'
p604
S'afraid'
p605
sS'cl\xc3\xa9'
p606
S'key'
p607
sS'finnigan'
p608
S'finnigan'
p609
sS'ordre'
p610
S'order'
p611
sS'rire'
p612
S'laughter'
p613
sS'rang'
p614
S'rang'
p615
sS'peut'
p616
S'may'
p617
sS'd\xc3\xa9cider'
p618
S'decide'
p619
sS'course'
p620
S'run'
p621
sS'd\xc3\xa9gag\xc3\xa9'
p622
S'cleared'
p623
sS'donn\xc3\xa9'
p624
S'gave'
p625
sS'secou\xc3\xa9'
p626
S'rattled'
p627
sS'pieds'
p628
S'feet'
p629
sS'famille'
p630
S'family'
p631
sS'tournant'
p632
S'turning'
p633
sS'pencha'
p634
S'leaned'
p635
sS'lettres'
p636
S'arts'
p637
sS'confiance'
p638
S'trust'
p639
sS'maisons'
p640
S'houses'
p641
sS'ext\xc3\xa9rieur'
p642
S'outside'
p643
sS'changement'
p644
S'change'
p645
sS'joyeusement'
p646
S'merrily'
p647
sS'exclu'
p648
S'expelled'
p649
sS'fen\xc3\xaatres'
p650
S'windows'
p651
sS'vivant'
p652
S'alive'
p653
sS'choses'
p654
S'things'
p655
sS'turban'
p656
S'turban'
p657
sS'pays'
p658
S'country'
p659
sS'pr\xc3\xa9tendre'
p660
S'pretend'
p661
sS'rapeltout'
p662
S'remembrall'
p663
sS'main'
p664
S'hand'
p665
sS'fin'
p666
S'end'
p667
sS'lire'
p668
S'read'
p669
sS'mettre'
p670
S'put'
p671
sS'nom'
p672
S'name'
p673
sS'vivre'
p674
S'live'
p675
sS't\xc3\xaates'
p676
S'heads'
p677
sS'col\xc3\xa8re'
p678
S'anger'
p679
sS'personne'
p680
S'nobody'
p681
sS'apprendre'
p682
S'learn'
p683
sS'sortes'
p684
S'sorts'
p685
sS'ces'
p686
S'these'
p687
sS'nombre'
p688
S'number'
p689
sS'front'
p690
S'forehead'
p691
sS'no\xc3\xabl'
p692
S'christmas'
p693
sS'p\xc3\xa9tunia'
p694
S'petunia'
p695
sS'batteurs'
p696
S'beaters'
p697
sS'gobelins'
p698
S'goblins'
p699
sS'tante'
p700
S'aunt'
p701
sS'enveloppe'
p702
S'envelope'
p703
sS'rencontrer'
p704
S'meet'
p705
sS'marcus'
p706
S'marcus'
p707
sS'pendre'
p708
S'hang'
p709
sS'tremblement'
p710
S'twitching'
p711
sS'james'
p712
g712
sS'porte'
p713
S'door'
p714
sS'tuer'
p715
S'kill'
p716
sS'loin'
p717
S'away'
p718
sS'vitesse'
p719
S'speed'
p720
sS'inqui\xc3\xa9ter'
p721
S'worry'
p722
sS'courses'
p723
S'racing'
p724
sS'granger'
p725
S'granger'
p726
sS'froidement'
p727
S'coldly'
p728
sS'mordre'
p729
S'bite'
p730
sS'choix'
p731
S'choice'
p732
sS'complet'
p733
S'complete'
p734
sS'saisi'
p735
S'grabbed'
p736
sS'crocs'
p737
S'fangs'
p738
sS'miroir'
p739
S'mirror'
p740
sS'oui'
p741
S'yes'
p742
sS't\xc3\xa9l\xc3\xa9vision'
p743
S'television'
p744
sS'lune'
p745
S'moon'
p746
sS'doux'
p747
S'soft'
p748
sS'secret'
p749
S'secret'
p750
sS'furieux'
p751
S'furious'
p752
sS'expliquer'
p753
S'explain'
p754
sS'autre'
p755
S'another'
p756
sS'laisse'
p757
S'lets'
p758
sS'impossible'
p759
S'impossible'
p760
sS'manche'
p761
S'sleeve'
p762
sS'homme'
p763
S'man'
p764
sS'troll'
p765
S'troll'
p766
sS'blesser'
p767
S'hurt'
p768
sS'secoua'
p769
S'shook'
p770
sS'sentiment'
p771
S'feeling'
p772
sS'sang'
p773
S'blood'
p774
sS'\xc3\xa9toiles'
p775
S'stars'
p776
sS'maudit'
p777
S'cursed'
p778
sS'boutique'
p779
S'shop'
p780
sS'appel\xc3\xa9'
p781
S'called'
p782
sS'enchantements'
p783
S'enchantments'
p784
sS'hurlement'
p785
S'screaming'
p786
sS'centaure'
p787
S'centaur'
p788
sS'valeur'
p789
S'worth'
p790
sS'si\xc3\xa8cle'
p791
S'century'
p792
sS'rien'
p793
S'nothing'
p794
sS'lecture'
p795
S'reading'
p796
sS'\xc3\xa9crit'
p797
S'written'
p798
sS'nourriture'
p799
S'food'
p800
sS'cause'
p801
S'cause'
p802
sS'albus'
p803
S'albus'
p804
sS'plaisanterie'
p805
S'joking'
p806
sS'baron'
p807
S'baron'
p808
sS'devant'
p809
S'ahead'
p810
sS'esprit'
p811
S'mind'
p812
sS'moiti\xc3\xa9'
p813
S'half'
p814
sS'nuit'
p815
S'night'
p816
sS'coin'
p817
S'corner'
p818
sS'fred'
p819
S'fred'
p820
sS'temps'
p821
S'time'
p822
sS'humeur'
p823
S'temper'
p824
sS'que'
p825
S'than'
p826
sS'comprendre'
p827
S'understand'
p828
sS'dire'
p829
S'tell'
p830
sS'qui'
p831
S'which'
p832
sS'mars'
p833
S'mars'
p834
sS'cri'
p835
S'shout'
p836
sS'gar\xc3\xa7ons'
p837
S'boys'
p838
sS'b\xc3\xa2ton'
p839
S'stick'
p840
sS'jeu'
p841
S'game'
p842
sS'\xc3\xa9norme'
p843
S'enormous'
p844
sS'terrible'
p845
S'terrible'
p846
sS'puni'
p847
S'punished'
p848
sS'\xc3\xa9tage'
p849
S'floor'
p850
sS'paire'
p851
S'pair'
p852
sS'toit'
p853
S'roof'
p854
sS'mourir'
p855
S'die'
p856
sS'souvent'
p857
S'often'
p858
sS'potions'
p859
S'potions'
p860
sS'confus'
p861
S'confused'
p862
sS'ou\xc3\xafe'
p863
S'ears'
p864
sS'biblioth\xc3\xa8que'
p865
S'library'
p866
sS'disant'
p867
S'saying'
p868
sS'longue'
p869
S'long'
p870
sS'r\xc3\xa9p\xc3\xa9t\xc3\xa9'
p871
S'repeated'
p872
sS'tenir'
p873
S'hold'
p874
sS'arbres'
p875
S'trees'
p876
sS'question'
p877
S'matter'
p878
sS'compl\xc3\xa8tement'
p879
S'completely'
p880
sS'potter'
p881
g881
sS'cria'
p882
S'shouted'
p883
sS'tableaux'
p884
S'tables'
p885
sS'gardien'
p886
S'keeper'
p887
sS'cl\xc3\xa9s'
p888
S'keys'
p889
sS'heureusement'
p890
S'happily'
p891
sS'ris\xc3\xa9d'
p892
S'erised'
p893
sS'rempli'
p894
S'filled'
p895
sS'tel'
p896
S'such'
p897
sS'c\xc3\xa9l\xc3\xa9brer'
p898
S'celebrating'
p899
sS'george'
p900
S'george'
p901
sS'blanc'
p902
S'white'
p903
sS'passer'
p904
S'pass'
p905
sS'bois'
p906
S'woods'
p907
sS'\xc3\xa9tudiants'
p908
S'students'
p909
sS'sait'
p910
S'knows'
p911
sS'bruissement'
p912
S'rustling'
p913
sS'convenu'
p914
S'agreed'
p915
sS'bleu'
p916
S'blue'
p917
sS'int\xc3\xa9r\xc3\xaat'
p918
S'interest'
p919
sS'noms'
p920
S'names'
p921
sS'contre'
p922
S'against'
p923
sS'jambe'
p924
S'leg'
p925
sS'savait'
p926
S'knew'
p927
sS'branches'
p928
S'branches'
p929
sS'visages'
p930
S'faces'
p931
sS'fatigu\xc3\xa9'
p932
S'tired'
p933
sS'demandant'
p934
S'asking'
p935
sS'\xc3\xa9coute'
p936
S'listening'
p937
sS'centaures'
p938
S'centaurs'
p939
sS'travail'
p940
S'work'
p941
sS'sentir'
p942
S'feel'
p943
sS'\xc3\xa9quipes'
p944
S'teams'
p945
sS'vraiment'
p946
S'really'
p947
sS'plusieurs'
p948
S'several'
p949
sS'peau'
p950
S'skin'
p951
sS'oppos\xc3\xa9'
p952
S'opposite'
p953
sS'regards'
p954
S'looks'
p955
sS'jordan'
p956
g956
sS'soupira'
p957
S'sighed'
p958
sS'couvertures'
p959
S'blankets'
p960
sS'tremblant'
p961
S'trembling'
p962
sS'bouche'
p963
S'mouth'
p964
sS'stup\xc3\xa9faction'
p965
S'amazement'
p966
sS'malade'
p967
S'sick'
p968
sS'pluie'
p969
S'rain'
p970
sS'souriant'
p971
S'smiling'
p972
sS'vie'
p973
S'life'
p974
sS'prendre'
p975
S'take'
p976
sS'cognards'
p977
S'bludgers'
p978
sS'myst\xc3\xa9rieux'
p979
S'mysterious'
p980
sS'tirer'
p981
S'pull'
p982
sS'double'
p983
S'twin'
p984
sS'professeur'
p985
S'professor'
p986
sS'aid\xc3\xa9'
p987
S'helped'
p988
sS'deuxi\xc3\xa8me'
p989
S'second'
p990
sS'r\xc3\xa9aliser'
p991
S'realize'
p992
sS'souterrain'
p993
S'underground'
p994
sS'merci'
p995
S'thanks'
p996
sS'semblait'
p997
S'seemed'
p998
sS'souafle'
p999
S'quaffle'
p1000
sS'connu'
p1001
S'known'
p1002
sS'timbre'
p1003
S'stamp'
p1004
sS'sec'
p1005
S'dry'
p1006
sS'bondit'
p1007
S'leapt'
p1008
sS'r\xc3\xa9veill\xc3\xa9'
p1009
S'woken'
p1010
sS'abattre'
p1011
S'fell'
p1012
sS'\xc3\xa9cras\xc3\xa9'
p1013
S'crashed'
p1014
sS'cinquante'
p1015
S'fifty'
p1016
sS'plus'
p1017
S'more'
p1018
sS'respirer'
p1019
S'breathe'
p1020
sS'crapaud'
p1021
S'toad'
p1022
sS'sac'
p1023
S'bag'
p1024
sS'premier'
p1025
S'first'
p1026
sS'aussi'
p1027
S'also'
p1028
sS'lumi\xc3\xa8re'
p1029
S'light'
p1030
sS'frapper'
p1031
S'hit'
p1032
sS'avide'
p1033
S'hungry'
p1034
sS'\xc3\xa2ge'
p1035
S'age'
p1036
sS'uniforme'
p1037
S'uniform'
p1038
sS'sourit'
p1039
S'grinned'
p1040
sS'ans'
p1041
S'years'
p1042
sS'onze'
p1043
S'eleven'
p1044
sS'presque'
p1045
S'nearly'
p1046
sS'reine'
p1047
S'queen'
p1048
sS'ollivander'
p1049
S'ollivander'
p1050
sS'troisi\xc3\xa8me'
p1051
S'third'
p1052
sS'm\xc3\xa9tamorphose'
p1053
S'transfiguration'
p1054
sS'jaune'
p1055
S'yellow'
p1056
sS'pr\xc3\xa8s'
p1057
S'close'
p1058
sS'jour'
p1059
S'day'
p1060
sS'paquet'
p1061
S'package'
p1062
sS'manger'
p1063
S'eat'
p1064
sS'severus'
p1065
S'severus'
p1066
sS'avertissement'
p1067
S'warning'
p1068
sS'zoo'
p1069
S'zoo'
p1070
sS'note'
p1071
S'note'
p1072
sS'perdre'
p1073
S'lose'
p1074
sS'herbes'
p1075
S'herbs'
p1076
sS'sandwiches'
p1077
S'sandwiches'
p1078
sS'deux'
p1079
S'two'
p1080
sS'occup\xc3\xa9'
p1081
S'busy'
p1082
sS'chaise'
p1083
S'chair'
p1084
sS'saucisses'
p1085
S'sausages'
p1086
sS'lily'
p1087
g1087
sS'douze'
p1088
S'twelve'
p1089
sS'suivi'
p1090
S'followed'
p1091
sS'salle'
p1092
S'room'
p1093
sS'grossi\xc3\xa8rement'
p1094
S'roughly'
p1095
sS'combat'
p1096
S'fighting'
p1097
sS'normal'
p1098
S'normal'
p1099
sS'chiens'
p1100
S'dogs'
p1101
sS'agitant'
p1102
S'waving'
p1103
sS'bouteilles'
p1104
S'bottles'
p1105
sS'contr\xc3\xb4le'
p1106
S'control'
p1107
sS'nettement'
p1108
S'sharply'
p1109
sS'cordes'
p1110
S'ropes'
p1111
sS'plat'
p1112
S'flat'
p1113
sS'doit'
p1114
S'shall'
p1115
sS'ch\xc3\xaane'
p1116
S'oak'
p1117
sS'nerveux'
p1118
S'nervous'
p1119
sS'plan'
p1120
S'plan'
p1121
sS'dois'
p1122
S'gotta'
p1123
sS'tourn\xc3\xa9'
p1124
S'turned'
p1125
sS'grave'
p1126
S'serious'
p1127
sS'm\xc3\xa9chant'
p1128
S'nasty'
p1129
sS'silencieux'
p1130
S'silent'
p1131
sS'don'
p1132
S'don'
p1133
sS'seize'
p1134
S'sixteen'
p1135
sS'fier'
p1136
S'proud'
p1137
sS'drive'
p1138
S'drive'
p1139
sS'f\xc3\xaate'
p1140
S'feast'
p1141
sS'fille'
p1142
S'girl'
p1143
sS'cochon'
p1144
S'pig'
p1145
sS'part'
p1146
S'share'
p1147
sS'pointu'
p1148
S'pointed'
p1149
sS'arr\xc3\xaat\xc3\xa9'
p1150
S'stopped'
p1151
sS'jeter'
p1152
S'throw'
p1153
sS'd\xc3\xa9couvertes'
p1154
S'finds'
p1155
sS'section'
p1156
S'section'
p1157
sS'sorci\xc3\xa8res'
p1158
S'witches'
p1159
sS'obscurit\xc3\xa9'
p1160
S'darkness'
p1161
sS'chariot'
p1162
S'cart'
p1163
sS'entendre'
p1164
S'hear'
p1165
sS'diff\xc3\xa9rent'
p1166
S'different'
p1167
sS'anniversaire'
p1168
S'birthday'
p1169
sS'pr\xc3\xa9sent'
p1170
S'present'
p1171
sS'd\xc3\xa9part'
p1172
S'starting'
p1173
sS'imaginer'
p1174
S'imagine'
p1175
sS'mains'
p1176
S'hands'
p1177
sS'l\xc3\xa9g\xc3\xa8rement'
p1178
S'slightly'
p1179
sS'museau'
p1180
S'snout'
p1181
sS'toujours'
p1182
S'forever'
p1183
sS'fini'
p1184
S'done'
p1185
sS'liste'
p1186
S'list'
p1187
sS'ma\xc3\xaetre'
p1188
S'master'
p1189
sS'murmura'
p1190
S'whispered'
p1191
sS'argent\xc3\xa9'
p1192
S'silvery'
p1193
sS'jeta'
p1194
S'threw'
p1195
sS'pris'
p1196
S'taken'
p1197
sS'h\xc3\xa9'
p1198
S'hey'
p1199
sS'boutiques'
p1200
S'shops'
p1201
sS'supporter'
p1202
S'stand'
p1203
sS'trou'
p1204
S'hole'
p1205
sS'remua'
p1206
S'twitched'
p1207
sS'toast'
p1208
S'toast'
p1209
sS'semaine'
p1210
S'week'
p1211
sS'noir'
p1212
S'black'
p1213
sS'souhaiter'
p1214
S'wish'
p1215
sS'plume'
p1216
S'quill'
p1217
sS'jambes'
p1218
S'legs'
p1219
sS'deviner'
p1220
S'guess'
p1221
sS'meilleur'
p1222
S'best'
p1223
sS'parapluie'
p1224
S'umbrella'
p1225
sS'couleur'
p1226
S'color'
p1227
sS'choisi'
p1228
S'picked'
p1229
sS'cependant'
p1230
S'however'
p1231
sS'samedi'
p1232
S'saturday'
p1233
sS'bureau'
p1234
S'office'
p1235
sS'londubat'
p1236
S'longbottom'
p1237
sS'familles'
p1238
S'families'
p1239
sS'cloche'
p1240
S'bell'
p1241
sS'v\xc3\xaatements'
p1242
S'clothes'
p1243
sS'rose'
p1244
S'pink'
p1245
sS'distance'
p1246
S'distance'
p1247
sS'animaux'
p1248
S'animals'
p1249
sS'soulag\xc3\xa9'
p1250
S'relieved'
p1251
sS'comprim\xc3\xa9'
p1252
S'squeezed'
p1253
sS'o\xc3\xb9'
p1254
S'where'
p1255
sS'duel'
p1256
S'duel'
p1257
sS'firenze'
p1258
S'firenze'
p1259
sS'attrapeurs'
p1260
S'seekers'
p1261
sS'siffla'
p1262
S'hissed'
p1263
sS'monde'
p1264
S'world'
p1265
sS'douleur'
p1266
S'pain'
p1267
sS'ann\xc3\xa9e'
p1268
S'year'
p1269
sS'probl\xc3\xa8me'
p1270
S'problem'
p1271
sS'moelleux'
p1272
S'squashy'
p1273
sS'propre'
p1274
S'clean'
p1275
sS'plein'
p1276
S'full'
p1277
sS'nouveau'
p1278
S'new'
p1279
sS'habituel'
p1280
S'usual'
p1281
sS'suppl\xc3\xa9mentaire'
p1282
S'extra'
p1283
sS'silencieusement'
p1284
S'silently'
p1285
sS'bas'
p1286
S'bottom'
p1287
sS'partie'
p1288
S'part'
p1289
sS'excit\xc3\xa9'
p1290
S'excitedly'
p1291
sS'rage'
p1292
S'rage'
p1293
sS'queue'
p1294
S'tail'
p1295
sS'sanglant'
p1296
S'bloody'
p1297
sS'vingt'
p1298
S'twenty'
p1299
sS'arriver'
p1300
S'happen'
p1301
sS'mena\xc3\xa7ant'
p1302
S'threatening'
p1303
sS'caramel'
p1304
S'fudge'
p1305
sS'sauf'
p1306
S'except'
p1307
sS'bloqu\xc3\xa9'
p1308
S'blocked'
p1309
sS'march\xc3\xa9'
p1310
S'walked'
p1311
sS'barman'
p1312
S'bartender'
p1313
sS'voler'
p1314
S'steal'
p1315
sS'cacher'
p1316
S'hide'
p1317
sS'fait'
p1318
S'did'
p1319
sS'drago'
p1320
S'draco'
p1321
sS'croire'
p1322
S'believe'
p1323
sS'tigr\xc3\xa9'
p1324
S'tabby'
p1325
sS'\xc3\xa9tag\xc3\xa8res'
p1326
S'shelves'
p1327
sS'terrain'
p1328
S'ground'
p1329
sS'\xc3\xa9tincelant'
p1330
S'glittering'
p1331
sS'chauve'
p1332
S'bald'
p1333
sS'pile'
p1334
S'pile'
p1335
sS'perceuses'
p1336
S'drills'
p1337
sS'profond'
p1338
S'deep'
p1339
sS'courut'
p1340
S'ran'
p1341
sS'arrach\xc3\xa9'
p1342
S'snatched'
p1343
sS'oubli\xc3\xa9'
p1344
S'forgotten'
p1345
sS'arrondie'
p1346
S'rounded'
p1347
sS'portrait'
p1348
S'portrait'
p1349
sS'matin'
p1350
S'morning'
p1351
sS'apparu'
p1352
S'appeared'
p1353
sS'jardin'
p1354
S'garden'
p1355
sS'lee'
p1356
S'lee'
p1357
sS'gryffondor'
p1358
S'gryffindor'
p1359
sS'voyage'
p1360
S'trip'
p1361
sS'arbre'
p1362
S'tree'
p1363
sS'\xc3\xa9paules'
p1364
S'shoulders'
p1365
sS'mur'
p1366
S'wall'
p1367
sS'mine'
p1368
S'mine'
p1369
sS'sorciers'
p1370
S'sorcerers'
p1371
sS'pourpre'
p1372
S'purple'
p1373
sS'flitwick'
p1374
S'flitwick'
p1375
sS'manqu\xc3\xa9'
p1376
S'missed'
p1377
sS'ordinateur'
p1378
S'computer'
p1379
sS'secondes'
p1380
S'seconds'
p1381
sS'bien'
p1382
S'okay'
p1383
sS'favori'
p1384
S'favorite'
p1385
sS'chemin'
p1386
S'path'
p1387
sS'\xc3\xa9tincelles'
p1388
S'sparks'
p1389
sS'horrible'
p1390
S'horrible'
p1391
sS'moldu'
p1392
S'muggle'
p1393
sS'trente'
p1394
S'thirty'
p1395
sS'sorts'
p1396
S'spells'
p1397
sS'cru'
p1398
S'believed'
p1399
sS'm\xc3\xaame'
p1400
S'even'
p1401
sS'montagne'
p1402
S'mountain'
p1403
sS'heureux'
p1404
S'happy'
p1405
sS'mang\xc3\xa9'
p1406
S'ate'
p1407
sS'f\xc3\xaates'
p1408
S'holidays'
p1409
sS'plong\xc3\xa9'
p1410
S'dived'
p1411
sS'\xc3\xa9tranger'
p1412
S'stranger'
p1413
sS'attention'
p1414
S'attention'
p1415
sS'choqu\xc3\xa9'
p1416
S'shocked'
p1417
sS'parfaitement'
p1418
S'perfectly'
p1419
sS'vernon'
p1420
g1420
sS'acheter'
p1421
S'buy'
p1422
sS'g\xc3\xa9mit'
p1423
S'moaned'
p1424
sS'agr\xc3\xa9able'
p1425
S'nice'
p1426
sS'genre'
p1427
S'kind'
p1428
sS'signifiait'
p1429
S'meant'
p1430
sS'vrai'
p1431
S'true'
p1432
sS'brillant'
p1433
S'brilliant'
p1434
sS'recherche'
p1435
S'looking'
p1436
sS'dedalus'
p1437
S'dedalus'
p1438
sS'cou'
p1439
S'neck'
p1440
sS'chaudron'
p1441
S'cauldron'
p1442
sS'norbert'
p1443
S'norbert'
p1444
sS'narines'
p1445
S'nostrils'
p1446
sS'dumbledore'
p1447
S'dumbledores'
p1448
sS'plongeon'
p1449
S'dive'
p1450
sS'terme'
p1451
S'term'
p1452
sS'v\xc3\xa9rit\xc3\xa9'
p1453
S'truth'
p1454
sS'hibou'
p1455
S'owl'
p1456
sS'tour'
p1457
S'lap'
p1458
sS'tout'
p1459
S'everything'
p1460
sS'encore'
p1461
S'yet'
p1462
sS'jumelles'
p1463
S'binoculars'
p1464
sS'demander'
p1465
S'ask'
p1466
sS'plastique'
p1467
S'plastic'
p1468
sS'stupide'
p1469
S'stupid'
p1470
sS'gringotts'
p1471
S'gringotts'
p1472
sS'vent'
p1473
S'wind'
p1474
sS'portant'
p1475
S'carrying'
p1476
sS'point'
p1477
S'point'
p1478
sS'demain'
p1479
S'tomorrow'
p1480
sS'devrait'
p1481
S'should'
p1482
sS're\xc3\xa7u'
p1483
S'received'
p1484
sS'fl\xc3\xbbte'
p1485
S'flute'
p1486
sS'sauver'
p1487
S'save'
p1488
sS'glac\xc3\xa9'
p1489
S'icy'
p1490
sS'ravi'
p1491
S'delighted'
p1492
sS'rapidement'
p1493
S'quickly'
p1494
sS'besoin'
p1495
S'need'
p1496
sS'semaines'
p1497
S'weeks'
p1498
sS'garde'
p1499
S'keeping'
p1500
sS'table'
p1501
S'table'
p1502
sS'mouchoir'
p1503
S'handkerchief'
p1504
sS'averti'
p1505
S'warned'
p1506
sS'minist\xc3\xa8re'
p1507
S'ministry'
p1508
sS'armure'
p1509
S'armor'
p1510
sS'bottes'
p1511
S'boots'
p1512
sS'souffle'
p1513
S'breath'
p1514
sS'papier'
p1515
S'paper'
p1516
sS'dernier'
p1517
S'last'
p1518
sS'souffla'
p1519
S'blew'
p1520
sS'capable'
p1521
S'able'
p1522
sS'chapitre'
p1523
S'chapter'
p1524
sS'parler'
p1525
S'speak'
p1526
sS'cent'
p1527
S'hundred'
p1528
sS'coupe'
p1529
S'cut'
p1530
sS'puissance'
p1531
S'might'
p1532
sS'attendu'
p1533
S'expected'
p1534
sS'bronze'
p1535
S'bronze'
p1536
sS'mensonges'
p1537
S'lies'
p1538
sS'moine'
p1539
S'friar'
p1540
sS'parents'
p1541
S'parents'
p1542
sS'regardant'
p1543
S'glancing'
p1544
sS'voiture'
p1545
S'car'
p1546
sS'rappel\xc3\xa9'
p1547
S'reminded'
p1548
sS'baguettes'
p1549
S'wands'
p1550
sS'avis'
p1551
S'notice'
p1552
sS'suivre'
p1553
S'follow'
p1554
sS'bras'
p1555
S'arm'
p1556
sS'cartes'
p1557
S'cards'
p1558
sS'monsieur'
p1559
S'sir'
p1560
sS'piquer'
p1561
S'poking'
p1562
sS'terre'
p1563
S'earth'
p1564
sS'lunettes'
p1565
S'glasses'
p1566
sS'd\xc3\xa9sesp\xc3\xa9r\xc3\xa9'
p1567
S'desperate'
p1568
sS'plumes'
p1569
S'feathers'
p1570
sS'serpentard'
p1571
S'slytherin'
p1572
sS'vue'
p1573
S'sight'
p1574
sS'larmes'
p1575
S'tears'
p1576
sS'cheveux'
p1577
S'hair'
p1578
sS'enfin'
p1579
S'finally'
p1580
sS'quatre'
p1581
S'four'
p1582
sS'argent'
p1583
S'silver'
p1584
sS'respiration'
p1585
S'breathing'
p1586
sS'marche'
p1587
S'walking'
p1588
sS'jamais'
p1589
S'ever'
p1590
sS'marcha'
p1591
S'marched'
p1592
sS'r\xc3\xa9flexion'
p1593
S'thinking'
p1594
sS'pi\xc3\xa8ge'
p1595
S'snare'
p1596
sS'rapide'
p1597
S'quick'
p1598
sS'd\xc3\xa9chira'
p1599
S'tore'
p1600
sS'puissant'
p1601
S'powerful'
p1602
sS'voldemort'
p1603
S'voldemorts'
p1604
sS'air'
p1605
S'air'
p1606
sS'th\xc3\xa9'
p1607
S'tea'
p1608
sS'g\xc3\xa2teaux'
p1609
S'cakes'
p1610
sS'plante'
p1611
S'plant'
p1612
sS'grogna'
p1613
S'growled'
p1614
sS'm\xc3\xa8re'
p1615
S'mother'
p1616
sS'crabbe'
p1617
S'crabbe'
p1618
sS'moustache'
p1619
S'mustache'
p1620
sS'sombre'
p1621
S'dark'
p1622
sS'va'
p1623
S'goes'
p1624
sS'doucement'
p1625
S'softly'
p1626
sS'vol'
p1627
S'vol'
p1628
sS'\xc3\xa9vident'
p1629
S'obvious'
p1630
sS'spectacle'
p1631
S'show'
p1632
sS'chapeau'
p1633
S'hat'
p1634
sS'moto'
p1635
S'motorcycle'
p1636
sS'chaussettes'
p1637
S'socks'
p1638
sS'partout'
p1639
S'everywhere'
p1640
sS'vu'
p1641
S'seen'
p1642
sS'raison'
p1643
S'reason'
p1644
sS'soeur'
p1645
S'sister'
p1646
sS'debout'
p1647
S'standing'
p1648
sS'percy'
p1649
S'percy'
p1650
sS'utile'
p1651
S'useful'
p1652
sS'pi\xc3\xa8ce'
p1653
S'piece'
p1654
sS'\xc3\xa9carlate'
p1655
S'scarlet'
p1656
sS'esp\xc3\xa9rant'
p1657
S'hoping'
p1658
sS'fauteuils'
p1659
S'armchairs'
p1660
sS'd\xc3\xaener'
p1661
S'dinner'
p1662
sS'sourire'
p1663
S'grin'
p1664
sS'il'
p1665
S'he'
p1666
sS'pr\xc3\xa9sent\xc3\xa9'
p1667
S'offered'
p1668
sS'weasley'
p1669
S'weasleys'
p1670
sS'rat'
p1671
S'rat'
p1672
sS'myst\xc3\xa8re'
p1673
S'mystery'
p1674
sS'le\xc3\xa7ons'
p1675
S'lessons'
p1676
sS'lumi\xc3\xa8res'
p1677
S'lights'
p1678
sS'grand'
p1679
S'tall'
p1680
sS'\xc3\xa9lev\xc3\xa9'
p1681
S'high'
p1682
sS'poignet'
p1683
S'wrist'
p1684
sS'suivant'
p1685
S'following'
p1686
sS'haut'
p1687
S'top'
p1688
sS'heures'
p1689
S'hours'
p1690
sS'cinq'
p1691
S'five'
p1692
sS'genoux'
p1693
S'knees'
p1694
sS'tromper'
p1695
S'fool'
p1696
sS'trolls'
p1697
S'trolls'
p1698
sS'livre'
p1699
S'book'
p1700
sS'fix\xc3\xa9'
p1701
S'fixed'
p1702
sS'bon'
p1703
S'good'
p1704
sS'achet\xc3\xa9'
p1705
S'bought'
p1706
sS'marcher'
p1707
S'walk'
p1708
sS'coffre'
p1709
S'bin'
p1710
sS'elle'
p1711
S'she'
p1712
sS'sauter'
p1713
S'jump'
p1714
sS'moment'
p1715
S'moment'
p1716
sS'vieux'
p1717
S'old'
p1718
sS'boa'
p1719
S'boa'
p1720
sS'parfait'
p1721
S'perfect'
p1722
sS'sauv\xc3\xa9'
p1723
S'saved'
p1724
sS'fabrication'
p1725
S'making'
p1726
sS'cognard'
p1727
S'bludger'
p1728
sS'solide'
p1729
S'solid'
p1730
sS'entre'
p1731
S'between'
p1732
sS'demande'
p1733
S'wondering'
p1734
sS'dessous'
p1735
S'underneath'
p1736
sS'\xc3\xa9checs'
p1737
S'chess'
p1738
sS'poches'
p1739
S'pockets'
p1740
sS'invisibilit\xc3\xa9'
p1741
S'invisibility'
p1742
sS'concentrer'
p1743
S'concentrate'
p1744
sS'contact'
p1745
S'contact'
p1746
sS'nicolas'
p1747
S'nicolas'
p1748
sS'haine'
p1749
S'hate'
p1750
sS'entr\xc3\xa9'
p1751
S'entered'
p1752
sS'plaque'
p1753
S'plate'
p1754
sS'traverser'
p1755
S'cross'
p1756
sS'pense'
p1757
S'thinks'
p1758
sS'coup'
p1759
S'shot'
p1760
sS'moments'
p1761
S'moments'
p1762
sS'taille'
p1763
S'size'
p1764
sS'livres'
p1765
S'books'
p1766
sS'h\xc3\xb4pital'
p1767
S'hospital'
p1768
sS'crier'
p1769
S'yell'
p1770
sS'\xc3\xa9paule'
p1771
S'shoulder'
p1772
sS'blague'
p1773
S'joke'
p1774
sS'f\xc3\xa9roce'
p1775
S'fierce'
p1776
sS'questions'
p1777
g1777
sS'perdu'
p1778
S'lost'
p1779
sS'c\xc3\xa9l\xc3\xa8bre'
p1780
S'famous'
p1781
sS'hiboux'
p1782
S'owls'
p1783
sS'femme'
p1784
S'woman'
p1785
sS'humide'
p1786
S'damp'
p1787
sS'lit'
p1788
S'bed'
p1789
sS'champignons'
p1790
S'fungi'
p1791
sS'expliqu\xc3\xa9'
p1792
S'explained'
p1793
sS'prix'
p1794
S'award'
p1795
sS'd\xc3\xa9sol\xc3\xa9'
p1796
S'sorry'
p1797
sS'haricots'
p1798
S'beans'
p1799
sS'cage'
p1800
S'cage'
p1801
sS'ciel'
p1802
S'sky'
p1803
sS'joueurs'
p1804
S'players'
p1805
sS'impressionn\xc3\xa9'
p1806
S'impressed'
p1807
sS'd\xc3\xa9but'
p1808
S'start'
p1809
sS'chaudrons'
p1810
S'cauldrons'
p1811
sS'difficile'
p1812
S'difficult'
p1813
sS'maison'
p1814
S'house'
p1815
sS'manquer'
p1816
S'miss'
p1817
sS'g\xc3\xa9ant'
p1818
S'giant'
p1819
sS'commenc\xc3\xa9'
p1820
S'started'
p1821
sS'\xc3\xa9v\xc3\xa9nement'
p1822
S'happening'
p1823
sS'bande'
p1824
S'tape'
p1825
sS'v\xc3\xa9lo'
p1826
S'bike'
p1827
sS'match'
p1828
S'match'
p1829
sS'ami'
p1830
S'friend'
p1831
sS'hurlant'
p1832
S'howling'
p1833
sS'gris'
p1834
S'gray'
p1835
sS'curieux'
p1836
S'curious'
p1837
sS'pardonner'
p1838
S'forgive'
p1839
sS'compter'
p1840
S'reckon'
p1841
sS'd\xc3\xa9truit'
p1842
S'destroyed'
p1843
sS'para\xc3\xaetre'
p1844
S'seem'
p1845
sS'pied'
p1846
S'foot'
p1847
sS'possible'
p1848
S'possible'
p1849
sS'mot'
p1850
S'word'
p1851
sS'flottaient'
p1852
S'fluttered'
p1853
sS'certains'
p1854
S'some'
p1855
sS'touch\xc3\xa9'
p1856
S'touched'
p1857
sS'pente'
p1858
S'cant'
p1859
sS'encre'
p1860
S'ink'
p1861
sS'ayant'
p1862
S'having'
p1863
sS'poser'
p1864
S'lay'
p1865
sS'unique'
p1866
S'single'
p1867
sS'tusaisqui'
p1868
S'youknowwho'
p1869
sS'mille'
p1870
S'thousand'
p1871
sS'\xc3\xa9tude'
p1872
S'study'
p1873
sS'disparu'
p1874
S'disappeared'
p1875
sS'sauvage'
p1876
S'wild'
p1877
sS'pens\xc3\xa9e'
p1878
S'thought'
p1879
sS'exactement'
p1880
S'exactly'
p1881
sS'payer'
p1882
S'pay'
p1883
sS'n\xc3\xa9cessaire'
p1884
S'needed'
p1885
sS'bruit'
p1886
S'noise'
p1887
sS'tomber'
p1888
S'drop'
p1889
sS'mince'
p1890
S'thin'
p1891
sS'oser'
p1892
S'dare'
p1893
sS'cheval'
p1894
S'horse'
p1895
sS'd\xc3\xa9barrasser'
p1896
S'rid'
p1897
sS'ordinaire'
p1898
S'ordinary'
p1899
sS'marques'
p1900
S'marks'
p1901
sS'norv\xc3\xa9gien'
p1902
S'norwegian'
p1903
sS't\xc3\xaate'
p1904
S'head'
p1905
sS'permettre'
p1906
S'afford'
p1907
sS'musique'
p1908
S'music'
p1909
sS'aucun'
p1910
S'none'
p1911
sS'compartiment'
p1912
S'compartment'
p1913
sS'panique'
p1914
S'panic'
p1915
sS'licorne'
p1916
S'unicorn'
p1917
sS'\xc3\xa9troit'
p1918
S'narrow'
p1919
sS'envelopp\xc3\xa9'
p1920
S'wrapped'
p1921
sS'vouloir'
p1922
S'want'
p1923
sS'arriv\xc3\xa9e'
p1924
S'arrived'
p1925
sS'attrapeur'
p1926
S'seeker'
p1927
sS'charlie'
p1928
S'charlie'
p1929
sS'laisser'
p1930
S'leave'
p1931
sS'mesures'
p1932
S'steps'
p1933
sS'pierre'
p1934
S'stone'
p1935
sS'inhabituel'
p1936
S'unusual'
p1937
sS'ah'
p1938
S'ah'
p1939
sS'jouer'
p1940
S'playing'
p1941
sS'\xc3\xa9tant'
p1942
S'being'
p1943
sS'surpris'
p1944
S'surprised'
p1945
sS'atteint'
p1946
S'reached'
p1947
sS'ouvert'
p1948
S'opened'
p1949
sS'fou'
p1950
S'mad'
p1951
sS'aim\xc3\xa9'
p1952
S'liked'
p1953
sS'quidditch'
p1954
S'quidditch'
p1955
sS'serr\xc3\xa9'
p1956
S'tight'
p1957
sS'donne'
p1958
S'gives'
p1959
sS'peu'
p1960
S'little'
p1961
sS'depuis'
p1962
S'since'
p1963
sS'peeves'
p1964
S'peeves'
p1965
sS'effray\xc3\xa9'
p1966
S'frightened'
p1967
sS'fa\xc3\xa7on'
p1968
S'way'
p1969
sS'tir\xc3\xa9'
p1970
S'pulled'
p1971
sS'for\xc3\xaat'
p1972
S'forest'
p1973
sS'gorge'
p1974
S'throat'
p1975
sS'bateaux'
p1976
S'boats'
p1977
sS'gliss\xc3\xa9'
p1978
S'slipped'
p1979
sS'carte'
p1980
S'map'
p1981
sS'portes'
p1982
S'doors'
p1983
sS'lampe'
p1984
S'lamp'
p1985
sS'football'
p1986
S'soccer'
p1987
sS'malefoy'
p1988
S'malfoys'
p1989
sS'bloquer'
p1990
S'lock'
p1991
sS'roul\xc3\xa9'
p1992
S'rolled'
p1993
sS'journal'
p1994
S'newspaper'
p1995
sS'soigneusement'
p1996
S'carefully'
p1997
sS'rue'
p1998
S'street'
p1999
sS'directeur'
p2000
S'headmaster'
p2001
sS'entr\xc3\xa9e'
p2002
S'entrance'
p2003
sS'barbe'
p2004
S'beard'
p2005
sS'particuli\xc3\xa8rement'
p2006
S'particularly'
p2007
sS'devoirs'
p2008
S'homework'
p2009
sS'inquiet'
p2010
S'worried'
p2011
sS'dangereux'
p2012
S'dangerous'
p2013
sS'hurla'
p2014
S'yelled'
p2015
sS'cass\xc3\xa9'
p2016
S'broken'
p2017
sS'choc'
p2018
S'shock'
p2019
sS'placard'
p2020
S'cupboard'
p2021
sS'adress\xc3\xa9e'
p2022
S'addressed'
p2023
sS'oh'
p2024
S'oh'
p2025
sS'faufiler'
p2026
S'sneaking'
p2027
sS'traces'
p2028
S'footsteps'
p2029
sS'furieusement'
p2030
S'furiously'
p2031
sS'chuchotement'
p2032
S'whispering'
p2033
sS'sourcils'
p2034
S'eyebrows'
p2035
sS'madame'
p2036
S'mrs'
p2037
sS'cro\xc3\xbbtard'
p2038
S'scabbers'
p2039
sS'hier'
p2040
S'yesterday'
p2041
sS'sorcellerie'
p2042
S'witchcraft'
p2043
sS'obtenu'
p2044
S'gotten'
p2045
sS'sept'
p2046
S'seven'
p2047
sS'or'
p2048
S'gold'
p2049
sS'foule'
p2050
S'crowd'
p2051
sS'escalier'
p2052
S'staircase'
p2053
sS'rats'
p2054
S'rats'
p2055
sS'chaque'
p2056
S'every'
p2057
sS'citron'
p2058
S'lemon'
p2059
sS'reconnu'
p2060
S'recognized'
p2061
sS'sorcier'
p2062
S'wizard'
p2063
sS'arr\xc3\xaat'
p2064
S'halt'
p2065
sS'fant\xc3\xb4me'
p2066
S'ghost'
p2067
sS'dame'
p2068
S'lady'
p2069
sS'aventure'
p2070
S'adventure'
p2071
sS'robinet'
p2072
S'tap'
p2073
sS'mort'
p2074
S'dead'
p2075
sS'l\xc3\xa8vres'
p2076
S'lips'
p2077
sS'lieu'
p2078
S'place'
p2079
sS'milieu'
p2080
S'middle'
p2081
sS'habituellement'
p2082
S'usually'
p2083
sS'r\xc3\xa9pondu'
p2084
S'answered'
p2085
sS'dessin'
p2086
S'drawing'
p2087
sS'bienvenue'
p2088
S'welcome'
p2089
sS'plaindre'
p2090
S'complain'
p2091
sS'parvati'
p2092
g2092
sS'frapp\xc3\xa9'
p2093
S'struck'
p2094
sS'\xc3\xa9couter'
p2095
S'listen'
p2096
sS'enfer'
p2097
S'hell'
p2098
sS'cicatrice'
p2099
S'scar'
p2100
sS'gobelin'
p2101
S'goblin'
p2102
sS'rang\xc3\xa9e'
p2103
S'row'
p2104
sS'pomfresh'
p2105
S'pomfrey'
p2106
sS'envoyer'
p2107
S'send'
p2108
sS'brun'
p2109
S'brown'
p2110
sS'parchemin'
p2111
S'parchment'
p2112
sS'oiseaux'
p2113
S'birds'
p2114
sS'cach\xc3\xa9'
p2115
S'hidden'
p2116
sS'manteau'
p2117
S'coat'
p2118
sS'fer'
p2119
S'fer'
p2120
sS'vague'
p2121
S'wave'
p2122
sS'marbre'
p2123
S'marble'
p2124
sS'autres'
p2125
S'others'
p2126
sS'pr\xc3\xaat'
p2127
S'ready'
p2128
sS'conduite'
p2129
S'drove'
p2130
sS'chats'
p2131
S'cats'
p2132
sS'fen\xc3\xaatre'
p2133
S'window'
p2134
sS'simplement'
p2135
S'simply'
p2136
sS'portait'
p2137
S'wore'
p2138
sS'le\xc3\xa7on'
p2139
S'lesson'
p2140
sS'v\xc3\xa9cu'
p2141
S'lived'
p2142
sS'ligne'
p2143
S'line'
p2144
sS'regard'
p2145
S'stare'
p2146
sS'but'
p2147
S'purpose'
p2148
sS'jus'
p2149
S'jus'
p2150
sS'poufsouffle'
p2151
S'hufflepuff'
p2152
sS'humain'
p2153
S'human'
p2154
sS'amis'
p2155
S'friends'
p2156
sS'id\xc3\xa9e'
p2157
S'idea'
p2158
sS'truc'
p2159
S'stuff'
p2160
sS'ha'
p2161
S'ha'
p2162
sS'eau'
p2163
S'water'
p2164
sS'dur'
p2165
S'hard'
p2166
sS'fort'
p2167
S'loudly'
p2168
sS'balais'
p2169
S'broomsticks'
p2170
sS'escaliers'
p2171
S'stairs'
p2172
sS'flamboyant'
p2173
S'flaming'
p2174
sS'bord'
p2175
S'edge'
p2176
sS'plafond'
p2177
S'ceiling'
p2178
sS'paires'
p2179
S'pairs'
p2180
sS'faute'
p2181
S'foul'
p2182
sS'r\xc3\xa9sist\xc3\xa9'
p2183
S'stood'
p2184
sS'pire'
p2185
S'worse'
p2186
sS'nerfs'
p2187
S'nerves'
p2188
sS'magique'
p2189
S'magical'
p2190
sS'\xc3\xa9videmment'
p2191
S'obviously'
p2192
sS'arrive'
p2193
S'happens'
p2194
sS'entendu'
p2195
S'heard'
p2196
sS'venir'
p2197
S'come'
p2198
sS'bateau'
p2199
S'boat'
p2200
sS'si\xc3\xa8ges'
p2201
S'seats'
p2202
sS'fils'
p2203
S'son'
p2204
sS'net'
p2205
S'sharp'
p2206
sS'seigneur'
p2207
S'lord'
p2208
sS'moldus'
p2209
S'muggles'
p2210
sS'lieux'
p2211
S'places'
p2212
sS'jumeaux'
p2213
S'twins'
p2214
sS'petit'
p2215
S'small'
p2216
sS'apport\xc3\xa9'
p2217
S'brought'
p2218
sS'essayer'
p2219
S'trying'
p2220
sS'direction'
p2221
S'direction'
p2222
sS'sale'
p2223
S'dirty'
p2224
sS'championnat'
p2225
S'championship'
p2226
sS'd\xc3\xa9sagr\xc3\xa9able'
p2227
S'unpleasant'
p2228
sS'chambre'
p2229
S'chamber'
p2230
sS'pourquoi'
p2231
S'why'
p2232
sS'd\xc3\xa9j\xc3\xa0'
p2233
S'already'
p2234
sS'chat'
p2235
S'cat'
p2236
sS'rouge'
p2237
S'red'
p2238
sS'imm\xc3\xa9diatement'
p2239
S'immediately'
p2240
sS'clairement'
p2241
S'clearly'
p2242
sS'pench\xc3\xa9'
p2243
S'leaning'
p2244
sS'd\xc3\xa9sesp\xc3\xa9r\xc3\xa9ment'
p2245
S'desperately'
p2246
sS'flammes'
p2247
S'flames'
p2248
sS'r\xc3\xa8gles'
p2249
S'rules'
p2250
sS'courage'
p2251
S'courage'
p2252
sS'ni'
p2253
S'nor'
p2254
sS'plongeant'
p2255
S'swooping'
p2256
sS'murs'
p2257
S'walls'
p2258
sS'dursley'
p2259
S'dursleys'
p2260
sS'moins'
p2261
S'least'
p2262
sS'idiot'
p2263
S'idiot'
p2264
sS'chocolat'
p2265
S'chocolate'
p2266
sS'seul'
p2267
S'alone'
p2268
sS'gripsec'
p2269
S'griphook'
p2270
sS'classe'
p2271
S'class'
p2272
sS'tard'
p2273
S'late'
p2274
sS'balai'
p2275
S'broom'
p2276
sS'\xc3\xa9trange'
p2277
S'strange'
p2278
sS'marque'
p2279
S'mark'
p2280
sS'personnes'
p2281
S'people'
p2282
sS'donnant'
p2283
S'giving'
p2284
sS'prise'
p2285
S'taking'
p2286
sS'oublier'
p2287
S'forget'
p2288
sS'ch\xc3\xa2teau'
p2289
S'castle'
p2290
sS'potion'
p2291
S'potion'
p2292
sS'joueur'
p2293
S'player'
p2294
sS'rester'
p2295
S'staying'
p2296
sS'excitation'
p2297
S'excitement'
p2298
sS'herbe'
p2299
S'grass'
p2300
sS'milliers'
p2301
S'thousands'
p2302
sS'imaginant'
p2303
S'imagining'
p2304
sS'papa'
p2305
S'dad'
p2306
sS'fois'
p2307
S'times'
p2308
sS'faire'
p2309
S'make'
p2310
sS'int\xc3\xa9ressant'
p2311
S'interesting'
p2312
sS'chance'
p2313
S'luck'
p2314
sS'important'
p2315
S'important'
p2316
sS'per\xc3\xa7ant'
p2317
S'piercing'
p2318
sS'lignes'
p2319
S'lines'
p2320
sS'prudent'
p2321
S'careful'
p2322
sS'ceux'
p2323
S'those'
p2324
sS'tasse'
p2325
S'cup'
p2326
sS'saisir'
p2327
S'grab'
p2328
sS'doute'
p2329
S'doubt'
p2330
sS'plut\xc3\xb4t'
p2331
S'rather'
p2332
sS'p\xc3\xa8re'
p2333
S'father'
p2334
sS'goyle'
p2335
S'goyle'
p2336
sS'terrifi\xc3\xa9'
p2337
S'terrified'
p2338
sS'murmurant'
p2339
S'muttering'
p2340
sS'apporter'
p2341
S'bring'
p2342
sS'coll\xc3\xa9'
p2343
S'stuck'
p2344
sS'pr\xc3\xa9fets'
p2345
S'prefects'
p2346
sS'voulu'
p2347
S'wanted'
p2348
sS'train'
p2349
S'train'
p2350
sS'prot\xc3\xa9ger'
p2351
S'protect'
p2352
sS'coeur'
p2353
S'heart'
p2354
sS'bond\xc3\xa9'
p2355
S'crowded'
p2356
sS'\xc3\xa9pais'
p2357
S'thick'
p2358
sS'prochaine'
p2359
S'next'
p2360
sS'\xc3\xa9criture'
p2361
S'writing'
p2362
s.