(dp0
S'pass\xc3\xa9'
p1
(lp2
(S'lots'
p3
S'beaucoup'
p4
tp5
a(S'troll'
p6
S'troll'
p7
tp8
a(S'forgotten'
p9
S'oubli\xc3\xa9'
p10
tp11
a(S'place'
p12
S'lieu'
p13
tp14
a(S'these'
p15
S'ces'
p16
tp17
a(S'match'
p18
S'match'
p19
tp20
a(S'nasty'
p21
S'm\xc3\xa9chant'
p22
tp23
a(S'seemed'
p24
S'semblait'
p25
tp26
a(S'goyle'
p27
S'goyle'
p28
tp29
a(S'day'
p30
S'jour'
p31
tp32
asS'grossier'
p33
(lp34
(S'welcome'
p35
S'bienvenue'
p36
tp37
a(S'destroyed'
p38
S'd\xc3\xa9truit'
p39
tp40
a(S'term'
p41
S'terme'
p42
tp43
a(S'awake'
p44
S'\xc3\xa9veill\xc3\xa9'
p45
tp46
a(S'want'
p47
S'vouloir'
p48
tp49
a(S'picked'
p50
S'choisi'
p51
tp52
a(S'happening'
p53
S'\xc3\xa9v\xc3\xa9nement'
p54
tp55
a(S'lessons'
p56
S'le\xc3\xa7ons'
p57
tp58
a(S'imagine'
p59
S'imaginer'
p60
tp61
a(S'touched'
p62
S'touch\xc3\xa9'
p63
tp64
asS'semble'
p65
(lp66
(S'late'
p67
S'tard'
p68
tp69
a(S'lost'
p70
S'perdu'
p71
tp72
a(S'snitch'
p73
S'vif'
p74
tp75
a(S'secret'
p76
S'secret'
p77
tp78
a(S'sharply'
p79
S'nettement'
p80
tp81
a(S'don'
p82
S'don'
p83
tp84
a(S'seat'
p85
S'si\xc3\xa8ge'
p86
tp87
a(S'presents'
p88
S'cadeaux'
p89
tp90
a(S'put'
p91
S'mettre'
p92
tp93
a(S'fighting'
p94
S'combat'
p95
tp96
asS'ron'
p97
(lp98
(S'ready'
p99
S'pr\xc3\xaat'
p100
tp101
a(S'where'
p102
S'o\xc3\xb9'
p103
tp104
a(S'may'
p105
S'peut'
p106
tp107
a(S'potions'
p108
S'potions'
p109
tp110
a(S'family'
p111
S'famille'
p112
tp113
a(S'make'
p114
S'faire'
p115
tp116
a(S'did'
p117
S'fait'
p118
tp119
a(S'exams'
p120
S'examens'
p121
tp122
a(S'potter'
p123
g123
tp124
a(S'famous'
p125
S'c\xc3\xa9l\xc3\xa8bre'
p126
tp127
asS'r\xc3\xa9veiller'
p128
(lp129
(S'thirty'
p130
S'trente'
p131
tp132
a(S'staircase'
p133
S'escalier'
p134
tp135
a(S'music'
p136
S'musique'
p137
tp138
a(S'wind'
p139
S'vent'
p140
tp141
a(S'arrived'
p142
S'arriv\xc3\xa9e'
p143
tp144
a(S'baron'
p145
S'baron'
p146
tp147
a(S'hear'
p148
S'entendre'
p149
tp150
a(S'asleep'
p151
S'endormi'
p152
tp153
a(S'hide'
p154
S'cacher'
p155
tp156
a(S'chest'
p157
S'poitrine'
p158
tp159
asS'dessus'
p160
(lp161
(S'pain'
p162
S'douleur'
p163
tp164
a(S'trapdoor'
p165
S'trappe'
p166
tp167
a(S'away'
p168
S'loin'
p169
tp170
a(S'earth'
p171
S'terre'
p172
tp173
a(S'leapt'
p174
S'bondit'
p175
tp176
a(S'icy'
p177
S'glac\xc3\xa9'
p178
tp179
a(S'marched'
p180
S'marcha'
p181
tp182
a(S'magical'
p183
S'magique'
p184
tp185
a(S'simply'
p186
S'simplement'
p187
tp188
a(S'knees'
p189
S'genoux'
p190
tp191
asg166
(lp192
(S'bad'
p193
S'mauvais'
p194
tp195
a(S'shoulder'
p196
S'\xc3\xa9paule'
p197
tp198
a(S'queen'
p199
S'reine'
p200
tp201
a(S'leave'
p202
S'laisser'
p203
tp204
a(S'peeves'
p205
S'peeves'
p206
tp207
a(S'leaned'
p208
S'pencha'
p209
tp210
a(S'wants'
p211
S'veut'
p212
tp213
a(S'families'
p214
S'familles'
p215
tp216
a(S'invisible'
p217
S'invisible'
p218
tp219
a(S'foot'
p220
S'pied'
p221
tp222
asS'gronda'
p223
(lp224
(S'saturday'
p225
S'samedi'
p226
tp227
a(S'shame'
p228
S'honte'
p229
tp230
a(S'agreed'
p231
S'convenu'
p232
tp233
a(S'stopped'
p234
S'arr\xc3\xaat\xc3\xa9'
p235
tp236
a(S'age'
p237
S'\xc3\xa2ge'
p238
tp239
ag61
ag64
a(S'complete'
p240
S'complet'
p241
tp242
a(S'lines'
p243
S'lignes'
p244
tp245
ag40
asg45
(lp246
(S'business'
p247
S'entreprise'
p248
tp249
a(S'drawing'
p250
S'dessin'
p251
tp252
ag46
ag49
ag55
a(S'threatening'
p253
S'mena\xc3\xa7ant'
p254
tp255
a(S'marks'
p256
S'marques'
p257
tp258
a(S'bike'
p259
S'v\xc3\xa9lo'
p260
tp261
a(S'hell'
p262
S'enfer'
p263
tp264
a(S'crowded'
p265
S'bond\xc3\xa9'
p266
tp267
asS'r\xc3\xaaver'
p268
(lp269
g49
ag40
a(S'turned'
p270
S'tourn\xc3\xa9'
p271
tp272
a(S'crash'
p273
S'fracas'
p274
tp275
a(S'boots'
p276
S'bottes'
p277
tp278
ag55
ag58
a(S'powerful'
p279
S'puissant'
p280
tp281
ag61
ag64
asS'r\xc3\xaaves'
p282
(lp283
g233
ag40
ag43
ag242
ag236
a(S'trip'
p284
S'voyage'
p285
tp286
a(S'snout'
p287
S'museau'
p288
tp289
a(S'spoke'
p290
S'rayon'
p291
tp292
ag61
ag64
asg212
(lp293
(S'keep'
p294
S'garder'
p295
tp296
a(S'afford'
p297
S'permettre'
p298
tp299
a(S'plan'
p300
S'plan'
p301
tp302
a(S'pile'
p303
S'pile'
p304
tp305
a(S'office'
p306
S'bureau'
p307
tp308
a(S'lose'
p309
S'perdre'
p310
tp311
a(S'nerves'
p312
S'nerfs'
p313
tp314
a(S'move'
p315
S'mouvement'
p316
tp317
a(S'reached'
p318
S'atteint'
p319
tp320
a(S'staying'
p321
S'rester'
p322
tp323
asS'\xc3\xa9t\xc3\xa9'
p324
(lp325
(S'ron'
p326
g97
tp327
a(S'sudden'
p328
S'soudain'
p329
tp330
a(S'note'
p331
S'note'
p332
tp333
ag110
ag113
ag116
a(S'hermione'
p334
S'hermione'
p335
tp336
a(S'notes'
p337
S'notes'
p338
tp339
ag124
ag127
asS'retour'
p340
(lp341
(S'hold'
p342
S'tenir'
p343
tp344
ag72
a(S'doubt'
p345
S'doute'
p346
tp347
ag75
a(S'means'
p348
S'moyens'
p349
tp350
a(S'happen'
p351
S'arriver'
p352
tp353
a(S'delighted'
p354
S'ravi'
p355
tp356
a(S'side'
p357
S'c\xc3\xb4t\xc3\xa9'
p358
tp359
a(S'london'
p360
S'londres'
p361
tp362
a(S'white'
p363
S'blanc'
p364
tp365
asS'aider'
p366
(lp367
(S'order'
p368
S'ordre'
p369
tp370
a(S'brown'
p371
S'brun'
p372
tp373
ag75
ag359
a(S'appeared'
p374
S'apparu'
p375
tp376
a(S'sight'
p377
S'vue'
p378
tp379
ag93
a(S'braver'
p380
S'courageux'
p381
tp382
a(S'received'
p383
S're\xc3\xa7u'
p384
tp385
ag365
asS'pr\xc3\xa9fet'
p386
(lp387
g49
ag233
a(S'lent'
p388
S'pr\xc3\xaat\xc3\xa9'
p389
tp390
a(S'angelina'
p391
S'angelina'
p392
tp393
a(S'bought'
p394
S'achet\xc3\xa9'
p395
tp396
a(S'package'
p397
S'paquet'
p398
tp399
ag64
a(S'eagerly'
p400
S'avidement'
p401
tp402
ag61
ag40
asS'minuscule'
p403
(lp404
(S'asked'
p405
S'demand\xc3\xa9'
p406
tp407
a(S'ran'
p408
S'courut'
p409
tp410
ag135
a(S'important'
p411
S'important'
p412
tp413
a(S'frantically'
p414
S'fr\xc3\xa9n\xc3\xa9tiquement'
p415
tp416
ag210
ag147
ag150
ag156
ag296
asS'mesures'
p417
(lp418
g252
a(S'ink'
p419
S'encre'
p420
tp421
ag43
ag46
ag49
ag55
a(S'making'
p422
S'fabrication'
p423
tp424
ag261
ag264
ag64
asg241
(lp425
(S'shelves'
p426
S'\xc3\xa9tag\xc3\xa8res'
p427
tp428
ag390
ag396
a(S'armchairs'
p429
S'fauteuils'
p430
tp431
ag402
a(S'rules'
p432
S'r\xc3\xa8gles'
p433
tp434
a(S'wore'
p435
S'portait'
p436
tp437
a(S'pulled'
p438
S'tir\xc3\xa9'
p439
tp440
a(S'shoulders'
p441
S'\xc3\xa9paules'
p442
tp443
a(S'sleeve'
p444
S'manche'
p445
tp446
asS'facilement'
p447
(lp448
(S'ordinary'
p449
S'ordinaire'
p450
tp451
a(S'sky'
p452
S'ciel'
p453
tp454
a(S'faces'
p455
S'visages'
p456
tp457
a(S'beat'
p458
S'battre'
p459
tp460
a(S'trembling'
p461
S'tremblant'
p462
tp463
a(S'chapter'
p464
S'chapitre'
p465
tp466
a(S'path'
p467
S'chemin'
p468
tp469
a(S'showed'
p470
S'montr\xc3\xa9'
p471
tp472
a(S'laughter'
p473
S'rire'
p474
tp475
a(S'fire'
p476
S'feu'
p477
tp478
asg146
(lp479
g132
ag135
a(S'silently'
p480
S'silencieusement'
p481
tp482
a(S'carefully'
p483
S'soigneusement'
p484
tp485
ag144
a(S'ear'
p486
S'oreille'
p487
tp488
ag153
a(S'bloody'
p489
S'sanglant'
p490
tp491
ag150
ag141
asS'voli\xc3\xa8re'
p492
(lp493
(S'toward'
p494
S'vers'
p495
tp496
a(S'nobody'
p497
S'personne'
p498
tp499
a(S'except'
p500
S'sauf'
p501
tp502
a(S'shout'
p503
S'cri'
p504
tp505
a(S'window'
p506
S'fen\xc3\xaatre'
p507
tp508
a(S'thinks'
p509
S'pense'
p510
tp511
a(S'dead'
p512
S'mort'
p513
tp514
a(S'kind'
p515
S'genre'
p516
tp517
a(S'vol'
p518
S'vol'
p519
tp520
a(S'adventure'
p521
S'aventure'
p522
tp523
asS'donner'
p524
(lp525
(S'forget'
p526
S'oublier'
p527
tp528
a(S'show'
p529
S'spectacle'
p530
tp531
a(S'room'
p532
S'salle'
p533
tp534
a(S'blood'
p535
S'sang'
p536
tp537
a(S'courage'
p538
S'courage'
p539
tp540
a(S'sick'
p541
S'malade'
p542
tp543
a(S'least'
p544
S'moins'
p545
tp546
a(S'cold'
p547
S'froid'
p548
tp549
a(S'table'
p550
S'table'
p551
tp552
a(S'before'
p553
S'avant'
p554
tp555
asS'plan\xc3\xa8tes'
p556
(lp557
(S'trees'
p558
S'arbres'
p559
tp560
a(S'quick'
p561
S'rapide'
p562
tp563
a(S'hidden'
p564
S'cach\xc3\xa9'
p565
tp566
a(S'blew'
p567
S'souffla'
p568
tp569
a(S'centaur'
p570
S'centaure'
p571
tp572
a(S'believed'
p573
S'cru'
p574
tp575
a(S'such'
p576
S'tel'
p577
tp578
a(S'knows'
p579
S'sait'
p580
tp581
a(S'blue'
p582
S'bleu'
p583
tp584
a(S'crossbow'
p585
S'arbal\xc3\xa8te'
p586
tp587
asS'lourd'
p588
(lp589
g451
ag454
a(S'halloween'
p590
g590
tp591
a(S'feathers'
p592
S'plumes'
p593
tp594
ag317
a(S'gave'
p595
S'donn\xc3\xa9'
p596
tp597
a(S'feel'
p598
S'sentir'
p599
tp600
a(S'poking'
p601
S'piquer'
p602
tp603
a(S'light'
p604
S'lumi\xc3\xa8re'
p605
tp606
a(S'books'
p607
S'livres'
p608
tp609
asS'qui'
p610
(lp611
(S'those'
p612
S'ceux'
p613
tp614
a(S'corner'
p615
S'coin'
p616
tp617
a(S'robes'
p618
S'robes'
p619
tp620
a(S'terrified'
p621
S'terrifi\xc3\xa9'
p622
tp623
a(S'petunia'
p624
S'p\xc3\xa9tunia'
p625
tp626
a(S'notice'
p627
S'avis'
p628
tp629
a(S'air'
p630
S'air'
p631
tp632
a(S'pass'
p633
S'passer'
p634
tp635
a(S'aunt'
p636
S'tante'
p637
tp638
a(S'keeper'
p639
S'gardien'
p640
tp641
asS'maman'
p642
(lp643
(S'helped'
p644
S'aid\xc3\xa9'
p645
tp646
a(S'curtains'
p647
S'rideaux'
p648
tp649
a(S'sandwiches'
p650
S'sandwiches'
p651
tp652
a(S'nimbus'
p653
S'nimbus'
p654
tp655
a(S'player'
p656
S'joueur'
p657
tp658
a(S'umbrella'
p659
S'parapluie'
p660
tp661
a(S'recognized'
p662
S'reconnu'
p663
tp664
a(S'fool'
p665
S'tromper'
p666
tp667
a(S'muggle'
p668
S'moldu'
p669
tp670
a(S'years'
p671
S'ans'
p672
tp673
asS'passage'
p674
(lp675
(S'done'
p676
S'fini'
p677
tp678
a(S'looks'
p679
S'regards'
p680
tp681
ag413
a(S'letter'
p682
S'lettre'
p683
tp684
a(S'breath'
p685
S'souffle'
p686
tp687
ag606
ag407
a(S'course'
p688
S'cours'
p689
tp690
a(S'reason'
p691
S'raison'
p692
tp693
a(S'hoping'
p694
S'esp\xc3\xa9rant'
p695
tp696
asg395
(lp697
(S'seekers'
p698
S'attrapeurs'
p699
tp700
a(S'bludgers'
p701
S'cognards'
p702
tp703
ag390
a(S'toast'
p704
S'toast'
p705
tp706
ag393
ag402
ag434
a(S'fell'
p707
S'abattre'
p708
tp709
a(S'johnson'
p710
S'johnson'
p711
tp712
a(S'blocked'
p713
S'bloqu\xc3\xa9'
p714
tp715
asS'victoire'
p716
(lp717
g496
a(S'mrs'
p718
S'madame'
p719
tp720
a(S'wall'
p721
S'mur'
p722
tp723
a(S'close'
p724
S'pr\xc3\xa8s'
p725
tp726
ag514
a(S'owlery'
p727
g492
tp728
a(S'really'
p729
S'vraiment'
p730
tp731
ag523
a(S'pomfrey'
p732
S'pomfresh'
p733
tp734
a(S'celebrating'
p735
S'c\xc3\xa9l\xc3\xa9brer'
p736
tp737
asS'malheureusement'
p738
(lp739
(S'everywhere'
p740
S'partout'
p741
tp742
a(S'broom'
p743
S'balai'
p744
tp745
a(S'clothes'
p746
S'v\xc3\xaatements'
p747
tp748
a(S'seconds'
p749
S'secondes'
p750
tp751
a(S'cause'
p752
S'cause'
p753
tp754
a(S'bottom'
p755
S'bas'
p756
tp757
ag478
ag188
a(S'contact'
p758
S'contact'
p759
tp760
a(S'surprised'
p761
S'surpris'
p762
tp763
asg389
(lp764
g700
ag40
ag703
ag706
ag393
ag396
ag402
ag434
ag709
ag712
asS'sens'
p765
(lp766
(S'emptied'
p767
S'vide'
p768
tp769
a(S'glancing'
p770
S'regardant'
p771
tp772
a(S'baby'
p773
S'b\xc3\xa9b\xc3\xa9'
p774
tp775
a(S'panic'
p776
S'panique'
p777
tp778
a(S'pretend'
p779
S'pr\xc3\xa9tendre'
p780
tp781
a(S'footsteps'
p782
S'traces'
p783
tp784
a(S'library'
p785
S'biblioth\xc3\xa8que'
p786
tp787
a(S'spell'
p788
S'sortil\xc3\xa8ge'
p789
tp790
a(S'map'
p791
S'carte'
p792
tp793
a(S'championship'
p794
S'championnat'
p795
tp796
asS'sifflet'
p797
(lp798
g40
ag43
ag46
ag49
ag233
ag55
a(S'joke'
p799
S'blague'
p800
tp801
a(S'desperately'
p802
S'd\xc3\xa9sesp\xc3\xa9r\xc3\xa9ment'
p803
tp804
ag61
ag64
asg60
(lp805
(S'youknowwho'
p806
S'tusaisqui'
p807
tp808
a(S'blankets'
p809
S'couvertures'
p810
tp811
a(S'sea'
p812
S'mer'
p813
tp814
a(S'miss'
p815
S'manquer'
p816
tp817
ag49
a(S'roof'
p818
S'toit'
p819
tp820
a(S'roared'
p821
S'rugit'
p822
tp823
a(S'storm'
p824
S'temp\xc3\xaate'
p825
tp826
a(S'ticket'
p827
S'billet'
p828
tp829
ag64
asS'ph\xc3\xa9nix'
p830
(lp831
(S'street'
p832
S'rue'
p833
tp834
ag40
ag55
ag49
a(S'ollivander'
p835
S'ollivander'
p836
tp837
a(S'goblin'
p838
S'gobelin'
p839
tp840
a(S'meet'
p841
S'rencontrer'
p842
tp843
ag264
ag61
ag64
asg229
(lp844
g227
a(S'listen'
p845
S'\xc3\xa9couter'
p846
tp847
ag236
a(S'homework'
p848
S'devoirs'
p849
tp850
a(S'bell'
p851
S'cloche'
p852
tp853
a(S'romania'
p854
S'roumanie'
p855
tp856
a(S'nervous'
p857
S'nerveux'
p858
tp859
a(S'study'
p860
S'\xc3\xa9tude'
p861
tp862
a(S'warn'
p863
S'pr\xc3\xa9venir'
p864
tp865
ag245
asS'figg'
p866
(lp867
g249
ag252
ag46
ag49
ag55
ag255
ag258
ag261
ag264
ag267
asg495
(lp868
g499
ag505
ag508
ag511
ag514
ag517
ag520
ag728
a(S'touch'
p869
S'toucher'
p870
tp871
ag523
asS'vert'
p872
(lp873
(S'silver'
p874
S'argent'
p875
tp876
a(S'sleep'
p877
S'sommeil'
p878
tp879
a(S'hour'
p880
S'heure'
p881
tp882
a(S'times'
p883
S'fois'
p884
tp885
a(S'flames'
p886
S'flammes'
p887
tp888
a(S'found'
p889
S'trouv\xc3\xa9'
p890
tp891
a(S'yesterday'
p892
S'hier'
p893
tp894
a(S'alone'
p895
S'seul'
p896
tp897
a(S'moments'
p898
S'moments'
p899
tp900
a(S'mother'
p901
S'm\xc3\xa8re'
p902
tp903
asg459
(lp904
g454
ag132
a(S'results'
p905
S'r\xc3\xa9sultats'
p906
tp907
ag135
ag413
a(S'ghost'
p908
S'fant\xc3\xb4me'
p909
tp910
ag147
ag678
ag491
a(S'mistake'
p911
S'erreur'
p912
tp913
asg406
(lp914
(S'warning'
p915
S'avertissement'
p916
tp917
a(S'hey'
p918
S'h\xc3\xa9'
p919
tp920
a(S'twins'
p921
S'jumeaux'
p922
tp923
a(S'work'
p924
S'travail'
p925
tp926
a(S'arts'
p927
S'lettres'
p928
tp929
ag413
a(S'interested'
p930
S'int\xc3\xa9ress\xc3\xa9'
p931
tp932
a(S'coldly'
p933
S'froidement'
p934
tp935
a(S'tree'
p936
S'arbre'
p937
tp938
a(S'immediately'
p939
S'imm\xc3\xa9diatement'
p940
tp941
asS'neuf'
p942
(lp943
g40
ag43
ag46
ag49
a(S'steps'
p944
g417
tp945
a(S'car'
p946
S'voiture'
p947
tp948
ag55
ag264
ag61
ag64
asg619
(lp949
g641
a(S'quidditch'
p950
S'quidditch'
p951
tp952
a(S'wizard'
p953
S'sorcier'
p954
tp955
a(S'point'
p956
S'point'
p957
tp958
ag897
ag20
a(S'under'
p959
S'sous'
p960
tp961
a(S'hogwarts'
p962
S'poudlard'
p963
tp964
a(S'christmas'
p965
S'no\xc3\xabl'
p966
tp967
a(S'toad'
p968
S'crapaud'
p969
tp970
asS'pendre'
p971
(lp972
(S'floors'
p973
S'\xc3\xa9tages'
p974
tp975
a(S'yellow'
p976
S'jaune'
p977
tp978
ag40
a(S'patil'
p979
S'patil'
p980
tp981
a(S'road'
p982
S'route'
p983
tp984
a(S'chocolate'
p985
S'chocolat'
p986
tp987
a(S'cake'
p988
S'g\xc3\xa2teau'
p989
tp990
a(S'rat'
p991
S'rat'
p992
tp993
a(S'spells'
p994
S'sorts'
p995
tp996
a(S'boats'
p997
S'bateaux'
p998
tp999
asg548
(lp1000
(S'malfoys'
p1001
S'malefoy'
p1002
tp1003
a(S'hit'
p1004
S'frapper'
p1005
tp1006
ag534
ag537
ag540
ag546
a(S'another'
p1007
S'autre'
p1008
tp1009
a(S'cut'
p1010
S'coupe'
p1011
tp1012
ag552
a(S'merrily'
p1013
S'joyeusement'
p1014
tp1015
asS'horloge'
p1016
(lp1017
g252
ag43
ag49
ag55
a(S'cat'
p1018
S'chat'
p1019
tp1020
ag424
ag64
ag264
ag261
a(S'single'
p1021
S'unique'
p1022
tp1023
asS'voix'
p1024
(lp1025
g528
ag330
a(S'hoped'
p1026
S'esp\xc3\xa9r\xc3\xa9'
p1027
tp1028
ag11
ag20
a(S'attention'
p1029
S'attention'
p1030
tp1031
ag23
ag958
ag961
ag29
asS'londubat'
p1032
(lp1033
(S'outside'
p1034
S'ext\xc3\xa9rieur'
p1035
tp1036
a(S'green'
p1037
g872
tp1038
a(S'new'
p1039
S'nouveau'
p1040
tp1041
a(S'start'
p1042
S'd\xc3\xa9but'
p1043
tp1044
ag891
a(S'following'
p1045
S'suivant'
p1046
tp1047
ag897
a(S'asking'
p1048
S'demandant'
p1049
tp1050
a(S'houses'
p1051
S'maisons'
p1052
tp1053
a(S'full'
p1054
S'plein'
p1055
tp1056
asg295
(lp1057
(S'peas'
p1058
S'pois'
p1059
tp1060
a(S'dragons'
p1061
S'dragons'
p1062
tp1063
a(S'eyebrows'
p1064
S'sourcils'
p1065
tp1066
ag311
ag299
a(S'pay'
p1067
S'payer'
p1068
tp1069
ag156
a(S'early'
p1070
S't\xc3\xb4t'
p1071
tp1072
ag308
a(S'bowl'
p1073
S'bol'
p1074
tp1075
asS'mois'
p1076
(lp1077
(S'teams'
p1078
S'\xc3\xa9quipes'
p1079
tp1080
ag40
a(S'ground'
p1081
S'terrain'
p1082
tp1083
a(S'eight'
p1084
S'huit'
p1085
tp1086
a(S'called'
p1087
S'appel\xc3\xa9'
p1088
tp1089
a(S'wearing'
p1090
S'porter'
p1091
tp1092
ag673
a(S'shed'
p1093
S'hangar'
p1094
tp1095
a(S'people'
p1096
S'personnes'
p1097
tp1098
ag61
asS'\xc3\xa9crit'
p1099
(lp1100
(S'stuff'
p1101
S'truc'
p1102
tp1103
a(S'flute'
p1104
S'fl\xc3\xbbte'
p1105
tp1106
ag299
ag302
a(S'idiot'
p1107
S'idiot'
p1108
tp1109
ag311
ag314
ag317
ag320
ag323
asS'minute'
p1110
(lp1111
(S'face'
p1112
S'visage'
p1113
tp1114
a(S'disappeared'
p1115
S'disparu'
p1116
tp1117
ag879
a(S'smiling'
p1118
S'souriant'
p1119
tp1120
a(S'wondering'
p1121
S'demande'
p1122
tp1123
a(S'save'
p1124
S'sauver'
p1125
tp1126
a(S'swooping'
p1127
S'plongeant'
p1128
tp1129
a(S'sir'
p1130
S'monsieur'
p1131
tp1132
ag900
a(S'completely'
p1133
S'compl\xc3\xa8tement'
p1134
tp1135
asg121
(lp1136
(S'sorcerers'
p1137
S'sorciers'
p1138
tp1139
a(S'already'
p1140
S'd\xc3\xa9j\xc3\xa0'
p1141
tp1142
a(S'mirror'
p1143
S'miroir'
p1144
tp1145
a(S'every'
p1146
S'chaque'
p1147
tp1148
a(S'surprise'
p1149
S'surprise'
p1150
tp1151
a(S'gives'
p1152
S'donne'
p1153
tp1154
a(S'father'
p1155
S'p\xc3\xa8re'
p1156
tp1157
ag119
ag32
ag1015
asS'yeux'
p1158
(lp1159
g164
ag344
ag176
ag173
ag191
a(S'castle'
p1160
S'ch\xc3\xa2teau'
p1161
tp1162
a(S'hissed'
p1163
S'siffla'
p1164
tp1165
a(S'moaned'
p1166
S'g\xc3\xa9mit'
p1167
tp1168
a(S'bed'
p1169
S'lit'
p1170
tp1171
a(S'yell'
p1172
S'crier'
p1173
tp1174
asS'apprendre'
p1175
(lp1176
(S'planets'
p1177
g556
tp1178
a(S'drove'
p1179
S'conduite'
p1180
tp1181
a(S'cauldrons'
p1182
S'chaudrons'
p1183
tp1184
ag563
a(S'easy'
p1185
S'facile'
p1186
tp1187
ag569
ag575
ag578
a(S'history'
p1188
S'histoire'
p1189
tp1190
a(S'potion'
p1191
S'potion'
p1192
tp1193
asg648
(lp1194
(S'excitedly'
p1195
S'excit\xc3\xa9'
p1196
tp1197
ag658
a(S'wish'
p1198
S'souhaiter'
p1199
tp1200
ag1086
ag652
ag655
ag673
ag664
ag670
ag661
asS'sans'
p1201
(lp1202
(S'fudge'
p1203
S'caramel'
p1204
tp1205
a(S'badly'
p1206
S'mal'
p1207
tp1208
a(S'night'
p1209
S'nuit'
p1210
tp1211
a(S'relieved'
p1212
S'soulag\xc3\xa9'
p1213
tp1214
a(S'after'
p1215
S'apr\xc3\xa8s'
p1216
tp1217
a(S'truth'
p1218
S'v\xc3\xa9rit\xc3\xa9'
p1219
tp1220
a(S'quirrells'
p1221
S'quirrell'
p1222
tp1223
a(S'nothing'
p1224
S'rien'
p1225
tp1226
a(S'strange'
p1227
S'\xc3\xa9trange'
p1228
tp1229
a(S'mouth'
p1230
S'bouche'
p1231
tp1232
asg194
(lp1233
(S'enormous'
p1234
S'\xc3\xa9norme'
p1235
tp1236
ag296
a(S'force'
p1237
S'force'
p1238
tp1239
ag305
ag308
a(S'throat'
p1240
S'gorge'
p1241
tp1242
a(S'particularly'
p1243
S'particuli\xc3\xa8rement'
p1244
tp1245
ag1072
ag1066
a(S'answer'
p1246
S'r\xc3\xa9ponse'
p1247
tp1248
asS'extr\xc3\xa9mit\xc3\xa9s'
p1249
(lp1250
(S'boat'
p1251
S'bateau'
p1252
tp1253
a(S'witches'
p1254
S'sorci\xc3\xa8res'
p1255
tp1256
ag40
ag43
ag46
ag49
ag55
ag264
ag61
ag64
asS'courrier'
p1257
(lp1258
(S'softly'
p1259
S'doucement'
p1260
tp1261
a(S'hang'
p1262
g971
tp1263
a(S'usually'
p1264
S'habituellement'
p1265
tp1266
ag987
a(S'goblins'
p1267
S'gobelins'
p1268
tp1269
a(S'animals'
p1270
S'animaux'
p1271
tp1272
ag990
a(S'drive'
p1273
S'drive'
p1274
tp1275
a(S'jus'
p1276
S'jus'
p1277
tp1278
a(S'fluttered'
p1279
S'flottaient'
p1280
tp1281
asg338
(lp1282
g1003
ag1036
a(S'heard'
p1283
S'entendu'
p1284
tp1285
ag11
ag17
ag952
a(S'snape'
p1286
S'rogue'
p1287
tp1288
ag891
ag20
ag964
asg974
(lp1289
(S'compartment'
p1290
S'compartiment'
p1291
tp1292
ag978
ag40
a(S'scabbers'
p1293
S'cro\xc3\xbbtard'
p1294
tp1295
ag993
ag984
ag49
a(S'brought'
p1296
S'apport\xc3\xa9'
p1297
tp1298
ag999
ag61
asg158
(lp1299
g132
ag135
ag138
ag482
a(S'trouble'
p1300
S'difficult\xc3\xa9'
p1301
tp1302
ag144
ag147
ag153
ag491
a(S'wake'
p1303
g128
tp1304
asS'large'
p1305
(lp1306
(S'would'
p1307
S'voudrais'
p1308
tp1309
ag49
ag40
ag43
ag46
a(S'mixture'
p1310
S'm\xc3\xa9lange'
p1311
tp1312
ag233
ag55
ag61
ag64
asg536
(lp1313
g1003
ag1006
ag1012
ag534
ag540
ag546
ag1009
ag549
ag552
ag1015
asS'\xc3\xa9tourdi'
p1314
(lp1315
(S'visit'
p1316
S'visite'
p1317
tp1318
a(S'floating'
p1319
S'flottant'
p1320
tp1321
ag233
a(S'chair'
p1322
S'chaise'
p1323
tp1324
a(S'repeated'
p1325
S'r\xc3\xa9p\xc3\xa9t\xc3\xa9'
p1326
tp1327
a(S'break'
p1328
S'pause'
p1329
tp1330
ag49
ag64
ag61
ag40
asS'dix'
p1331
(lp1332
(S'even'
p1333
S'm\xc3\xaame'
p1334
tp1335
a(S'fifty'
p1336
S'cinquante'
p1337
tp1338
a(S'exactly'
p1339
S'exactement'
p1340
tp1341
a(S'head'
p1342
S't\xc3\xaate'
p1343
tp1344
a(S'longbottom'
p1345
g1032
tp1346
a(S'six'
p1347
S'six'
p1348
tp1349
a(S'arm'
p1350
S'bras'
p1351
tp1352
a(S'gryffindor'
p1353
S'gryffondor'
p1354
tp1355
a(S'number'
p1356
S'nombre'
p1357
tp1358
a(S'neville'
p1359
g1359
tp1360
asg1091
(lp1361
g1080
ag40
ag1089
a(S'growled'
p1362
S'grogna'
p1363
tp1364
ag1083
a(S'woken'
p1365
S'r\xc3\xa9veill\xc3\xa9'
p1366
tp1367
ag1095
a(S'students'
p1368
S'\xc3\xa9tudiants'
p1369
tp1370
ag1098
ag61
asg89
(lp1371
(S'impossible'
p1372
S'impossible'
p1373
tp1374
a(S'keys'
p1375
S'cl\xc3\xa9s'
p1376
tp1377
a(S'glasses'
p1378
S'lunettes'
p1379
tp1380
a(S'pair'
p1381
S'paire'
p1382
tp1383
a(S'grab'
p1384
S'saisir'
p1385
tp1386
ag179
ag182
a(S'cleared'
p1387
S'd\xc3\xa9gag\xc3\xa9'
p1388
tp1389
ag609
a(S'severus'
p1390
S'severus'
p1391
tp1392
asS'harry'
p1393
(lp1394
g327
a(S'oh'
p1395
S'oh'
p1396
tp1397
a(S'thanks'
p1398
S'merci'
p1399
tp1400
a(S'tall'
p1401
S'grand'
p1402
tp1403
a(S'speak'
p1404
S'parler'
p1405
tp1406
a(S'way'
p1407
S'fa\xc3\xa7on'
p1408
tp1409
a(S'certainly'
p1410
S's\xc3\xbbrement'
p1411
tp1412
ag113
ag124
a(S'he'
p1413
S'il'
p1414
tp1415
asS'dit'
p1416
(lp1417
g1409
ag107
a(S'funny'
p1418
S'dr\xc3\xb4le'
p1419
tp1420
a(S'world'
p1421
S'monde'
p1422
tp1423
a(S'she'
p1424
S'elle'
p1425
tp1426
ag336
ag1031
a(S'voice'
p1427
g1024
tp1428
a(S'fred'
p1429
S'fred'
p1430
tp1431
a(S'year'
p1432
S'ann\xc3\xa9e'
p1433
tp1434
asS'attendre'
p1435
(lp1436
(S'human'
p1437
S'humain'
p1438
tp1439
a(S'feeling'
p1440
S'sentiment'
p1441
tp1442
a(S'dreamed'
p1443
S'r\xc3\xaav\xc3\xa9'
p1444
tp1445
a(S'followed'
p1446
S'suivi'
p1447
tp1448
ag575
ag578
a(S'doors'
p1449
S'portes'
p1450
tp1451
a(S'pinned'
p1452
S'\xc3\xa9pingl\xc3\xa9'
p1453
tp1454
a(S'werewolf'
p1455
S'garou'
p1456
tp1457
a(S'ministry'
p1458
S'minist\xc3\xa8re'
p1459
tp1460
asg1453
(lp1461
g1442
a(S'dangerous'
p1462
S'dangereux'
p1463
tp1464
ag566
a(S'unicorns'
p1465
S'licornes'
p1466
tp1467
ag1439
a(S'worried'
p1468
S'inquiet'
p1469
tp1470
ag1451
a(S'frightened'
p1471
S'effray\xc3\xa9'
p1472
tp1473
ag1457
a(S'hurt'
p1474
S'blesser'
p1475
tp1476
asS'saut\xc3\xa9'
p1477
(lp1478
(S'hole'
p1479
S'trou'
p1480
tp1481
a(S'damp'
p1482
S'humide'
p1483
tp1484
ag138
ag135
ag1302
ag147
a(S'breathe'
p1485
S'respirer'
p1486
tp1487
ag153
ag159
ag1304
asS'ville'
p1488
(lp1489
g249
ag252
ag46
ag49
ag55
ag255
ag258
ag261
ag264
ag267
asS'cher'
p1490
(lp1491
g1080
ag649
ag1083
a(S'bring'
p1492
S'apporter'
p1493
tp1494
a(S'mum'
p1495
g642
tp1496
ag664
ag1092
ag856
ag1095
a(S'months'
p1497
g1076
tp1498
asg280
(lp1499
g40
ag46
a(S'call'
p1500
S'appel'
p1501
tp1502
ag49
a(S'difference'
p1503
S'diff\xc3\xa9rence'
p1504
tp1505
ag55
a(S'envelope'
p1506
S'enveloppe'
p1507
tp1508
ag264
ag61
ag64
asg1238
(lp1509
g1178
ag572
a(S'ronan'
p1510
S'ronan'
p1511
tp1512
a(S'moon'
p1513
S'lune'
p1514
tp1515
a(S'might'
p1516
S'puissance'
p1517
tp1518
ag1448
a(S'ears'
p1519
S'ou\xc3\xafe'
p1520
tp1521
ag581
a(S'desperate'
p1522
S'd\xc3\xa9sesp\xc3\xa9r\xc3\xa9'
p1523
tp1524
a(S'award'
p1525
S'prix'
p1526
tp1527
asg522
(lp1528
(S'ropes'
p1529
S'cordes'
p1530
tp1531
a(S'turban'
p1532
S'turban'
p1533
tp1534
a(S'george'
p1535
S'george'
p1536
tp1537
ag511
ag87
ag376
a(S'legs'
p1538
S'jambes'
p1539
tp1540
ag90
a(S'impressed'
p1541
S'impressionn\xc3\xa9'
p1542
tp1543
ag365
asS'lecture'
p1544
(lp1545
g55
ag233
ag40
ag46
ag49
a(S'stairs'
p1546
S'escaliers'
p1547
tp1548
ag709
a(S'together'
p1549
S'ensemble'
p1550
tp1551
ag61
ag64
asg1189
(lp1552
g1178
a(S'sense'
p1553
g765
tp1554
ag1184
ag772
ag563
ag1187
ag569
ag575
ag578
ag1193
asS'bacon'
p1555
(lp1556
g43
ag40
a(S'tired'
p1557
S'fatigu\xc3\xa9'
p1558
tp1559
ag46
ag49
ag233
ag55
ag804
ag61
ag64
asS'relev\xc3\xa9'
p1560
(lp1561
(S'transfiguration'
p1562
S'm\xc3\xa9tamorphose'
p1563
tp1564
a(S'usual'
p1565
S'habituel'
p1566
tp1567
ag40
ag242
ag236
a(S'explain'
p1568
S'expliquer'
p1569
tp1570
a(S'walls'
p1571
S'murs'
p1572
tp1573
a(S'pockets'
p1574
S'poches'
p1575
tp1576
ag61
ag64
asS'd\xc3\xa9cid\xc3\xa9'
p1577
(lp1578
(S'playing'
p1579
S'jouer'
p1580
tp1581
a(S'coins'
p1582
S'pi\xc3\xa8ces'
p1583
tp1584
a(S'obvious'
p1585
S'\xc3\xa9vident'
p1586
tp1587
a(S'pale'
p1588
S'p\xc3\xa2le'
p1589
tp1590
a(S'thrown'
p1591
S'jet\xc3\xa9'
p1592
tp1593
a(S'silent'
p1594
S'silencieux'
p1595
tp1596
a(S'rattled'
p1597
S'secou\xc3\xa9'
p1598
tp1599
a(S'needed'
p1600
S'n\xc3\xa9cessaire'
p1601
tp1602
a(S'game'
p1603
S'jeu'
p1604
tp1605
a(S'black'
p1606
S'noir'
p1607
tp1608
asS'\xc3\xa9clat'
p1609
(lp1610
(S'girl'
p1611
S'fille'
p1612
tp1613
a(S'excellent'
p1614
S'excellent'
p1615
tp1616
ag233
ag40
ag46
ag49
ag55
a(S'crying'
p1617
S'pleurs'
p1618
tp1619
ag61
ag64
asS'droit'
p1620
(lp1621
(S'beard'
p1622
S'barbe'
p1623
tp1624
a(S'piece'
p1625
S'pi\xc3\xa8ce'
p1626
tp1627
ag511
a(S'stop'
p1628
S'arr\xc3\xaater'
p1629
tp1630
a(S'tomorrow'
p1631
S'demain'
p1632
tp1633
a(S'door'
p1634
S'porte'
p1635
tp1636
a(S'shall'
p1637
S'doit'
p1638
tp1639
ag1543
a(S'listening'
p1640
S'\xc3\xa9coute'
p1641
tp1642
a(S'standing'
p1643
S'debout'
p1644
tp1645
asg453
(lp1646
g132
ag135
ag413
ag594
ag910
ag317
ag491
ag600
ag603
ag913
asg1618
(lp1647
(S'slightly'
p1648
S'l\xc3\xa9g\xc3\xa8rement'
p1649
tp1650
ag40
ag43
ag46
ag49
ag233
ag55
a(S'beaters'
p1651
S'batteurs'
p1652
tp1653
ag61
ag64
asg774
(lp1654
g646
a(S'stuck'
p1655
S'coll\xc3\xa9'
p1656
tp1657
ag40
a(S'flying'
p1658
S'volant'
p1659
tp1660
a(S'allowed'
p1661
S'permis'
p1662
tp1663
ag239
a(S'busy'
p1664
S'occup\xc3\xa9'
p1665
tp1666
ag661
a(S'quickly'
p1667
S'rapidement'
p1668
tp1669
ag673
asg864
(lp1670
g1197
ag649
ag40
ag49
ag242
ag853
ag859
ag670
ag61
ag64
asS'forc\xc3\xa9'
p1671
(lp1672
(S'frogs'
p1673
S'grenouilles'
p1674
tp1675
ag264
ag40
ag46
ag49
ag55
a(S'zoo'
p1676
S'zoo'
p1677
tp1678
a(S'mustache'
p1679
S'moustache'
p1680
tp1681
ag61
ag64
asS'inqui\xc3\xa9ter'
p1682
(lp1683
g1178
ag1181
ag1184
ag563
ag1187
ag575
ag578
a(S'learn'
p1684
g1175
tp1685
ag1190
ag1193
asS'mcgonagall'
p1686
(lp1687
(S'small'
p1688
S'petit'
p1689
tp1690
a(S'shot'
p1691
S'coup'
p1692
tp1693
a(S'hands'
p1694
S'mains'
p1695
tp1696
a(S'horrible'
p1697
S'horrible'
p1698
tp1699
ag1038
ag1288
a(S'giant'
p1700
S'g\xc3\xa9ant'
p1701
tp1702
ag958
a(S'professor'
p1703
S'professeur'
p1704
tp1705
ag897
asg906
(lp1706
(S'week'
p1707
S'semaine'
p1708
tp1709
a(S'brilliant'
p1710
S'brillant'
p1711
tp1712
a(S'leaves'
p1713
S'feuilles'
p1714
tp1715
a(S'oak'
p1716
S'ch\xc3\xaane'
p1717
tp1718
ag910
a(S'sparks'
p1719
S'\xc3\xa9tincelles'
p1720
tp1721
a(S'branches'
p1722
S'branches'
p1723
tp1724
a(S'gray'
p1725
S'gris'
p1726
tp1727
a(S'centaurs'
p1728
S'centaures'
p1729
tp1730
ag938
asS'\xc3\xa9tonn\xc3\xa9'
p1731
(lp1732
(S'walking'
p1733
S'marche'
p1734
tp1735
ag40
a(S'pink'
p1736
S'rose'
p1737
tp1738
ag49
a(S'glittering'
p1739
S'\xc3\xa9tincelant'
p1740
tp1741
a(S'perfect'
p1742
S'parfait'
p1743
tp1744
a(S'pairs'
p1745
S'paires'
p1746
tp1747
a(S'solid'
p1748
S'solide'
p1749
tp1750
ag61
ag64
asS'filles'
p1751
(lp1752
g40
ag43
ag46
ag49
ag233
ag55
ag64
ag267
ag61
ag804
asS'section'
p1753
(lp1754
(S'garden'
p1755
S'jardin'
p1756
tp1757
ag49
a(S'meant'
p1758
S'signifiait'
p1759
tp1760
ag40
a(S'bludger'
p1761
S'cognard'
p1762
tp1763
ag1660
a(S'wide'
p1764
g1305
tp1765
a(S'crowd'
p1766
S'foule'
p1767
tp1768
ag61
ag64
asg1649
(lp1769
(S'stick'
p1770
S'b\xc3\xa2ton'
p1771
tp1772
ag40
ag43
ag46
ag49
ag233
ag55
a(S'glass'
p1773
S'verre'
p1774
tp1775
ag61
ag64
asS'mille'
p1776
(lp1777
(S'run'
p1778
S'course'
p1779
tp1780
a(S'witchcraft'
p1781
S'sorcellerie'
p1782
tp1783
a(S'mine'
p1784
S'mine'
p1785
tp1786
a(S'herbs'
p1787
S'herbes'
p1788
tp1789
a(S'cakes'
p1790
S'g\xc3\xa2teaux'
p1791
tp1792
a(S'hurtled'
p1793
S'fon\xc3\xa7ait'
p1794
tp1795
a(S'feast'
p1796
S'f\xc3\xaate'
p1797
tp1798
a(S'crabbe'
p1799
S'crabbe'
p1800
tp1801
a(S'rolled'
p1802
S'roul\xc3\xa9'
p1803
tp1804
a(S'giving'
p1805
S'donnant'
p1806
tp1807
asS'nez'
p1808
(lp1809
g496
a(S'last'
p1810
S'dernier'
p1811
tp1812
ag505
a(S'none'
p1813
S'aucun'
p1814
tp1815
a(S'body'
p1816
S'corps'
p1817
tp1818
ag514
ag728
ag731
ag1645
ag903
asS'sur'
p1819
(lp1820
(S'since'
p1821
S'depuis'
p1822
tp1823
a(S'sun'
p1824
S'soleil'
p1825
tp1826
a(S'part'
p1827
S'partie'
p1828
tp1829
ag952
ag958
ag897
ag20
a(S'chess'
p1830
S'\xc3\xa9checs'
p1831
tp1832
ag964
ag967
asg415
(lp1833
g917
ag926
ag296
ag929
a(S'ask'
p1834
S'demander'
p1835
tp1836
ag1445
a(S'portrait'
p1837
S'portrait'
p1838
tp1839
ag156
ag1075
a(S'cards'
p1840
S'cartes'
p1841
tp1842
asS'aile'
p1843
(lp1844
(S'plant'
p1845
S'plante'
p1846
tp1847
a(S'confused'
p1848
S'confus'
p1849
tp1850
ag167
a(S'first'
p1851
S'premier'
p1852
tp1853
a(S'yelled'
p1854
S'hurla'
p1855
tp1856
a(S'witch'
p1857
S'sorci\xc3\xa8re'
p1858
tp1859
a(S'teeth'
p1860
S'dents'
p1861
tp1862
a(S'edge'
p1863
S'bord'
p1864
tp1865
a(S'rustling'
p1866
S'bruissement'
p1867
tp1868
a(S'birds'
p1869
S'oiseaux'
p1870
tp1871
asg1674
(lp1872
g40
ag49
ag945
ag948
ag55
a(S'nine'
p1873
g942
tp1874
ag1678
ag264
ag61
ag64
asS'chaleur'
p1875
(lp1876
(S'saying'
p1877
S'disant'
p1878
tp1879
a(S'woods'
p1880
S'bois'
p1881
tp1882
a(S'tiny'
p1883
g403
tp1884
a(S'color'
p1885
S'couleur'
p1886
tp1887
a(S'bottles'
p1888
S'bouteilles'
p1889
tp1890
ag179
a(S'paper'
p1891
S'papier'
p1892
tp1893
ag185
a(S'seven'
p1894
S'sept'
p1895
tp1896
ag478
asS'net'
p1897
(lp1898
(S'thousands'
p1899
S'milliers'
p1900
tp1901
a(S'handkerchief'
p1902
S'mouchoir'
p1903
tp1904
a(S'players'
p1905
S'joueurs'
p1906
tp1907
a(S'extremely'
p1908
S'extr\xc3\xaamement'
p1909
tp1910
ag850
ag853
a(S'names'
p1911
S'noms'
p1912
tp1913
a(S'hard'
p1914
S'dur'
p1915
tp1916
ag865
a(S'morning'
p1917
S'matin'
p1918
tp1919
asS'nicholas'
p1920
(lp1921
g40
ag43
ag46
ag49
ag55
ag52
ag264
ag267
ag61
ag64
asS'ginny'
p1922
(lp1923
g531
ag104
a(S'little'
p1924
S'peu'
p1925
tp1926
ag1148
a(S'friends'
p1927
S'amis'
p1928
tp1929
a(S'middle'
p1930
S'milieu'
p1931
tp1932
a(S'snake'
p1933
S'serpent'
p1934
tp1935
a(S'sister'
p1936
S'soeur'
p1937
tp1938
a(S'time'
p1939
S'temps'
p1940
tp1941
a(S'onto'
p1942
g1819
tp1943
asS'balle'
p1944
(lp1945
(S'extra'
p1946
S'suppl\xc3\xa9mentaire'
p1947
tp1948
ag49
ag40
a(S'soccer'
p1949
S'football'
p1950
tp1951
ag233
ag55
a(S'short'
p1952
S'court'
p1953
tp1954
ag64
ag61
a(S'duel'
p1955
S'duel'
p1956
tp1957
asg1320
(lp1958
g49
ag40
ag1324
a(S'expected'
p1959
S'attendu'
p1960
tp1961
a(S'food'
p1962
S'nourriture'
p1963
tp1964
ag1330
a(S'line'
p1965
S'ligne'
p1966
tp1967
a(S'marble'
p1968
S'marbre'
p1969
tp1970
a(S'squashy'
p1971
S'moelleux'
p1972
tp1973
ag61
asS'sourire'
p1974
(lp1975
g1400
a(S'cage'
p1976
S'cage'
p1977
tp1978
a(S'owl'
p1979
S'hibou'
p1980
tp1981
ag1403
a(S'ginny'
p1982
g1922
tp1983
ag1926
ag1932
ag1412
ag104
ag1434
asg392
(lp1984
g1613
a(S'amazed'
p1985
g1731
tp1986
ag1616
ag1619
a(S'skin'
p1987
S'peau'
p1988
tp1989
ag706
ag1741
a(S'enchantments'
p1990
S'enchantements'
p1991
tp1992
ag1735
a(S'stand'
p1993
S'supporter'
p1994
tp1995
asS'lee'
p1996
(lp1997
(S'oliver'
p1998
S'olivier'
p1999
tp2000
a(S'sausages'
p2001
S'saucisses'
p2002
tp2003
a(S'stomach'
p2004
S'estomac'
p2005
tp2006
a(S'bright'
p2007
S'clair'
p2008
tp2009
a(S'mysterious'
p2010
S'myst\xc3\xa9rieux'
p2011
tp2012
a(S'stared'
p2013
S'regard\xc3\xa9'
p2014
tp2015
ag399
a(S'obviously'
p2016
S'\xc3\xa9videmment'
p2017
tp2018
ag61
ag40
asS'd\xc3\xa9licieux'
p2019
(lp2020
(S'ahead'
p2021
S'devant'
p2022
tp2023
a(S'shouted'
p2024
S'cria'
p2025
tp2026
a(S'name'
p2027
S'nom'
p2028
tp2029
a(S'voldemorts'
p2030
S'voldemort'
p2031
tp2032
a(S'loudly'
p2033
S'fort'
p2034
tp2035
a(S'heads'
p2036
S't\xc3\xaates'
p2037
tp2038
a(S'stone'
p2039
S'pierre'
p2040
tp2041
a(S'evening'
p2042
S'soir\xc3\xa9e'
p2043
tp2044
a(S'happily'
p2045
S'heureusement'
p2046
tp2047
a(S'saved'
p2048
S'sauv\xc3\xa9'
p2049
tp2050
asg1629
(lp2051
(S'unicorn'
p2052
S'licorne'
p2053
tp2054
a(S'believe'
p2055
S'croire'
p2056
tp2057
a(S'whispered'
p2058
S'murmura'
p2059
tp2060
ag1639
ag379
a(S'anger'
p2061
S'col\xc3\xa8re'
p2062
tp2063
ag1543
ag382
ag385
ag376
asS'tenue'
p2064
(lp2065
(S'places'
p2066
S'lieux'
p2067
tp2068
ag252
ag43
ag817
ag46
ag49
ag55
ag264
ag267
ag64
asS'citron'
p2069
(lp2070
g249
ag252
ag46
ag49
ag55
ag255
ag258
ag261
ag264
ag267
asg1708
(lp2071
g1712
ag1715
ag1718
ag1448
a(S'unusual'
p2072
S'inhabituel'
p2073
tp2074
ag1721
ag1724
ag1727
ag1730
ag938
asg813
(lp2075
g811
ag252
ag49
ag55
ag820
a(S'television'
p2076
S't\xc3\xa9l\xc3\xa9vision'
p2077
tp2078
a(S'addressed'
p2079
S'adress\xc3\xa9e'
p2080
tp2081
ag826
ag261
ag64
asg358
(lp2082
g1581
ag75
ag1587
ag1383
ag1596
ag1165
ag1380
a(S'heart'
p2083
S'coeur'
p2084
tp2085
ag1608
ag365
asg1247
(lp2086
g1236
ag1239
ag305
ag1518
ag1066
ag311
ag1242
ag1527
ag1072
ag308
asg1411
(lp2087
g1397
ag1406
ag104
a(S'unpleasant'
p2088
S'd\xc3\xa9sagr\xc3\xa9able'
p2089
tp2090
a(S'also'
p2091
S'aussi'
p2092
tp2093
ag1420
ag113
a(S'stare'
p2094
S'regard'
p2095
tp2096
ag124
ag127
asg825
(lp2097
g811
ag252
ag49
ag55
ag820
ag2078
ag2081
ag264
ag261
ag64
asS'ombres'
p2098
(lp2099
(S'rule'
p2100
S'r\xc3\xa8gle'
p2101
tp2102
a(S'lock'
p2103
S'bloquer'
p2104
tp2105
a(S'whispering'
p2106
S'chuchotement'
p2107
tp2108
a(S'rage'
p2109
S'rage'
p2110
tp2111
ag402
a(S'burst'
p2112
g1609
tp2113
ag399
a(S'marcus'
p2114
S'marcus'
p2115
tp2116
ag446
a(S'tore'
p2117
S'd\xc3\xa9chira'
p2118
tp2119
asS'interdit'
p2120
(lp2121
g1397
ag2090
ag1420
ag1412
ag2093
a(S'perfectly'
p2122
S'parfaitement'
p2123
tp2124
a(S'wizardry'
p2125
S'magie'
p2126
tp2127
ag2096
a(S'house'
p2128
S'maison'
p2129
tp2130
a(S'behind'
p2131
S'derri\xc3\xa8re'
p2132
tp2133
asg1940
(lp2134
g2023
ag720
ag1044
a(S'win'
p2135
g716
tp2136
ag731
a(S'old'
p2137
S'vieux'
p2138
tp2139
ag1050
ag734
ag737
ag1041
asg1359
(lp2140
(S'ten'
p2141
g1331
tp2142
ag1338
ag1344
ag1346
a(S'nearly'
p2143
S'presque'
p2144
tp2145
ag1349
ag2136
ag1352
ag1355
ag737
asS'connaissance'
p2146
(lp2147
g233
ag428
ag49
ag399
a(S'prefect'
p2148
g386
tp2149
a(S'able'
p2150
S'capable'
p2151
tp2152
ag64
ag40
ag61
ag2119
asS'respiration'
p2153
(lp2154
g2102
a(S'distance'
p2155
S'distance'
p2156
tp2157
a(S'shadows'
p2158
g2098
tp2159
ag40
ag1364
ag402
ag399
a(S'read'
p2160
S'lire'
p2161
tp2162
ag443
ag2119
asg1592
(lp2163
g1581
ag1584
ag1587
ag1590
ag1596
a(S'decided'
p2164
g1577
tp2165
ag1602
ag1605
ag1608
ag1599
asg4
(lp2166
(S'normal'
p2167
S'normal'
p2168
tp2169
a(S'above'
p2170
g160
tp2171
ag1114
ag1534
ag882
ag1624
a(S'rather'
p2172
S'plut\xc3\xb4t'
p2173
tp2174
a(S'possible'
p2175
S'possible'
p2176
tp2177
ag1642
ag373
asg870
(lp2178
(S'alive'
p2179
S'vivant'
p2180
tp2181
ag81
ag1135
ag1117
ag1126
a(S'stood'
p2182
S'r\xc3\xa9sist\xc3\xa9'
p2183
tp2184
ag517
ag2177
ag362
ag376
asg1662
(lp2185
g646
ag1657
ag40
ag1660
ag1666
ag661
ag667
ag1669
ag61
ag673
asS'lentement'
p2186
(lp2187
g451
a(S'rid'
p2188
S'd\xc3\xa9barrasser'
p2189
tp2190
ag594
a(S'probably'
p2191
S'probablement'
p2192
tp2193
a(S'class'
p2194
S'classe'
p2195
tp2196
ag1890
a(S'purpose'
p2197
S'but'
p2198
tp2199
ag478
ag1893
a(S'left'
p2200
S'gauche'
p2201
tp2202
asS'fabriqu\xc3\xa9'
p2203
(lp2204
g233
ag40
ag43
ag46
ag49
ag242
ag1666
ag1669
ag61
ag64
asg1074
(lp2205
g1060
a(S'grass'
p2206
S'herbe'
p2207
tp2208
ag572
ag1069
a(S'shook'
p2209
S'secoua'
p2210
tp2211
ag578
ag1473
ag1521
a(S'cursed'
p2212
S'maudit'
p2213
tp2214
a(S'practice'
p2215
S'pratique'
p2216
tp2217
asg1774
(lp2218
g40
ag275
ag1502
ag278
ag1505
ag61
ag1508
ag281
a(S'opposite'
p2219
S'oppos\xc3\xa9'
p2220
tp2221
a(S'dream'
p2222
g268
tp2223
asS'bon'
p2224
(lp2225
(S'why'
p2226
S'pourquoi'
p2227
tp2228
a(S'protect'
p2229
S'prot\xc3\xa9ger'
p2230
tp2231
a(S'sure'
p2232
S's\xc3\xbbr'
p2233
tp2234
a(S'need'
p2235
S'besoin'
p2236
tp2237
ag1123
a(S'friend'
p2238
S'ami'
p2239
tp2240
ag1132
a(S'nicolas'
p2241
S'nicolas'
p2242
tp2243
a(S'eat'
p2244
S'manger'
p2245
tp2246
ag900
asS'coffre'
p2247
(lp2248
g1675
ag264
ag40
ag49
ag55
a(S'forced'
p2249
g1671
tp2250
ag1678
ag1681
ag61
ag64
asS'boa'
p2251
(lp2252
g249
ag252
ag46
ag49
ag55
ag255
ag258
ag261
ag264
ag267
asg1817
(lp2253
g496
a(S'straight'
p2254
g1620
tp2255
ag1812
ag505
ag1815
ag514
a(S'nose'
p2256
g1808
tp2257
ag728
ag1645
ag903
asg316
(lp2258
g926
ag1442
ag1103
a(S'stamp'
p2259
S'timbre'
p2260
tp2261
ag929
ag1836
ag299
a(S'jump'
p2262
S'sauter'
p2263
tp2264
ag1839
ag1842
asg855
(lp2265
g1197
ag1080
a(S'covered'
p2266
S'couvert'
p2267
tp2268
ag1083
ag1089
ag1092
ag1498
ag1095
ag862
a(S'warned'
p2269
S'averti'
p2270
tp2271
asS'reste'
p2272
(lp2273
g1120
a(S'case'
p2274
S'cas'
p2275
tp2276
ag1123
a(S'hate'
p2277
S'haine'
p2278
tp2279
ag1126
ag871
ag517
ag2177
a(S'thought'
p2280
S'pens\xc3\xa9e'
p2281
tp2282
a(S'understand'
p2283
S'comprendre'
p2284
tp2285
asg2284
(lp2286
g347
ag1120
ag2276
ag356
a(S'lay'
p2287
S'poser'
p2288
tp2289
a(S'broomsticks'
p2290
S'balais'
p2291
tp2292
ag1132
ag2177
ag1171
ag2282
asg1329
(lp2293
g49
ag40
ag1324
ag1961
ag1964
ag1967
ag1970
ag1973
ag61
ag804
asg1794
(lp2294
g1783
ag1786
a(S'sitting'
p2295
S's\xc3\xa9ance'
p2296
tp2297
ag428
a(S'broken'
p2298
S'cass\xc3\xa9'
p2299
tp2300
a(S'rain'
p2301
S'pluie'
p2302
tp2303
a(S'knowing'
p2304
g2146
tp2305
ag673
a(S'finding'
p2306
S'd\xc3\xa9couverte'
p2307
tp2308
ag2152
asg74
(lp2309
g1374
ag1386
ag1383
ag179
a(S'gringotts'
p2310
S'gringotts'
p2311
tp2312
ag1380
a(S'speed'
p2313
S'vitesse'
p2314
tp2315
ag1392
ag2085
ag365
asS'dire'
p2316
(lp2317
g2228
ag2231
ag2234
ag2237
a(S'rest'
p2318
g2272
tp2319
a(S'thing'
p2320
S'chose'
p2321
tp2322
a(S'good'
p2323
g2224
tp2324
ag871
a(S'forgive'
p2325
S'pardonner'
p2326
tp2327
ag2246
asS'danger'
p2328
(lp2329
(S'waved'
p2330
S'agita'
p2331
tp2332
ag40
a(S'horse'
p2333
S'cheval'
p2334
tp2335
ag242
ag311
a(S'lead'
p2336
S'conduire'
p2337
tp2338
a(S'forehead'
p2339
S'front'
p2340
tp2341
ag236
ag61
ag64
asg361
(lp2342
g742
ag170
ag359
ag757
a(S'dog'
p2343
S'chien'
p2344
tp2345
a(S'hungry'
p2346
S'avide'
p2347
tp2348
a(S'unfortunately'
p2349
g738
tp2350
ag2054
a(S'forest'
p2351
S'for\xc3\xaat'
p2352
tp2353
ag365
asg2156
(lp2354
g2102
ag2105
ag2159
ag1364
ag402
ag399
ag2162
ag443
ag446
ag2119
asg1714
(lp2355
g1712
ag2074
a(S'noticed'
p2356
S'remarqu\xc3\xa9'
p2357
tp2358
ag1718
ag1512
ag1448
ag1721
ag1727
ag1730
ag938
asg1343
(lp2359
(S'ceiling'
p2360
S'plafond'
p2361
tp2362
a(S'stars'
p2363
S'\xc3\xa9toiles'
p2364
tp2365
ag1338
ag1346
a(S'bewitched'
p2366
S'enchant\xc3\xa9'
p2367
tp2368
ag2145
ag1223
ag1047
ag1349
ag1352
asS'rouleau'
p2369
(lp2370
g454
ag2332
a(S'flitwick'
p2371
S'flitwick'
p2372
tp2373
ag594
ag2193
ag210
ag600
a(S'shock'
p2374
S'choc'
p2375
tp2376
ag1896
ag606
asg401
(lp2377
g2102
ag2105
ag700
ag2111
ag703
ag390
ag396
ag393
ag434
ag712
asS'chaud'
p2378
(lp2379
g55
ag40
ag43
ag46
ag49
ag706
ag233
ag1548
ag61
ag64
asS'bient\xc3\xb4t'
p2380
(lp2381
g8
a(S'next'
p2382
S'prochaine'
p2383
tp2384
ag1285
ag107
a(S'past'
p2385
g1
tp2386
ag11
ag110
a(S'end'
p2387
S'fin'
p2388
tp2389
a(S'everything'
p2390
S'tout'
p2391
tp2392
a(S'life'
p2393
S'vie'
p2394
tp2395
asg1085
(lp2396
g1200
a(S'armor'
p2397
S'armure'
p2398
tp2399
ag49
a(S'captain'
p2400
S'capitaine'
p2401
tp2402
a(S'socks'
p2403
S'chaussettes'
p2404
tp2405
ag233
ag55
ag64
ag61
ag40
asS't\xc3\xa9l\xc3\xa9phone'
p2406
(lp2407
g249
ag252
ag46
ag49
ag55
ag255
ag258
ag261
ag264
ag267
asS'directeur'
p2408
(lp2409
g2228
ag2231
ag2234
a(S'invisibility'
p2410
S'invisibilit\xc3\xa9'
p2411
tp2412
a(S'curious'
p2413
S'curieux'
p2414
tp2415
ag2237
ag2324
ag2327
ag2243
ag2246
asg1861
(lp2416
g195
ag1847
ag167
ag1853
ag204
ag207
ag210
ag216
ag219
ag222
asS'raide'
p2417
(lp2418
g1439
ag1442
ag1448
ag1460
ag1445
ag314
a(S'wait'
p2419
g1435
tp2420
ag1451
ag1454
a(S'flat'
p2421
S'plat'
p2422
tp2423
asg2104
(lp2424
g1613
ag2111
ag1616
ag233
ag49
ag2113
ag64
ag1619
ag61
ag40
asg1934
(lp2425
(S'owls'
p2426
S'hiboux'
p2427
tp2428
a(S'entrance'
p2429
S'entr\xc3\xa9e'
p2430
tp2431
ag876
a(S'filled'
p2432
S'rempli'
p2433
tp2434
ag1929
a(S'gold'
p2435
S'or'
p2436
tp2437
a(S'lap'
p2438
S'tour'
p2439
tp2440
a(S'school'
p2441
S'\xc3\xa9cole'
p2442
tp2443
ag885
ag894
asS'commun'
p2444
(lp2445
g40
ag43
ag46
ag49
ag233
ag55
ag1967
ag804
ag61
ag64
asS'rencontr\xc3\xa9'
p2446
(lp2447
g2231
ag2276
a(S'headmaster'
p2448
g2408
tp2449
ag2412
ag2415
a(S'goes'
p2450
S'va'
p2451
tp2452
ag2237
ag2289
a(S'possession'
p2453
S'possession'
p2454
tp2455
ag2285
asg152
(lp2456
g132
ag1106
ag135
ag138
ag141
ag144
ag147
ag150
ag156
ag1304
asS'chemin\xc3\xa9e'
p2457
(lp2458
(S'clearing'
p2459
S'clairi\xc3\xa8re'
p2460
tp2461
ag1239
ag1512
ag1515
ag1518
ag1521
ag581
ag1524
a(S'pull'
p2462
S'tirer'
p2463
tp2464
a(S'wild'
p2465
S'sauvage'
p2466
tp2467
asg890
(lp2468
g1036
a(S'things'
p2469
S'choses'
p2470
tp2471
ag505
a(S'eyes'
p2472
g1158
tp2473
ag879
ag882
ag888
a(S'afraid'
p2474
S'peur'
p2475
tp2476
ag894
ag1636
asg1308
(lp2477
g43
ag40
ag1312
ag46
ag49
ag233
ag55
ag804
ag61
ag64
asg477
(lp2478
g1377
ag1882
ag1884
ag1887
a(S'dived'
p2479
S'plong\xc3\xa9'
p2480
tp2481
a(S'row'
p2482
S'rang\xc3\xa9e'
p2483
tp2484
a(S'warmth'
p2485
g1875
tp2486
ag179
ag1893
ag1896
asg1222
(lp2487
g1205
ag1208
ag1211
a(S'horror'
p2488
S'horreur'
p2489
tp2490
ag1214
a(S'drop'
p2491
S'tomber'
p2492
tp2493
ag2322
ag1220
ag1229
ag1232
asS'marmonn\xc3\xa9'
p2494
(lp2495
(S'joking'
p2496
S'plaisanterie'
p2497
tp2498
ag296
ag1106
ag141
ag485
ag416
ag144
ag314
ag317
ag150
asS'fr\xc3\xa8res'
p2499
(lp2500
(S'breathing'
p2501
g2153
tp2502
ag2157
ag2159
ag2268
ag1364
ag443
ag399
ag2162
a(S'cats'
p2503
S'chats'
p2504
tp2505
a(S'lived'
p2506
S'v\xc3\xa9cu'
p2507
tp2508
asg471
(lp2509
g296
ag2261
ag1063
ag2335
ag2264
ag317
ag213
ag600
ag591
ag40
asg822
(lp2510
g811
ag814
ag49
ag252
ag55
ag820
ag261
ag826
ag829
ag64
asS'odeur'
p2511
(lp2512
g1531
a(S'known'
p2513
S'connu'
p2514
tp2515
a(S'tight'
p2516
S'serr\xc3\xa9'
p2517
tp2518
a(S'punished'
p2519
S'puni'
p2520
tp2521
a(S'cauldron'
p2522
S'chaudron'
p2523
tp2524
ag188
a(S'century'
p2525
S'si\xc3\xa8cle'
p2526
tp2527
ag2085
a(S'come'
p2528
S'venir'
p2529
tp2530
a(S'noise'
p2531
S'bruit'
p2532
tp2533
asS'assez'
p2534
(lp2535
g2060
a(S'opened'
p2536
S'ouvert'
p2537
tp2538
a(S'weeks'
p2539
S'semaines'
p2540
tp2541
a(S'snare'
p2542
S'pi\xc3\xa8ge'
p2543
tp2544
ag78
ag2057
a(S'screaming'
p2545
S'hurlement'
p2546
tp2547
a(S'worse'
p2548
S'pire'
p2549
tp2550
ag475
ag1392
asg708
(lp2551
g40
ag43
ag46
ag1989
ag49
ag233
ag55
ag1551
ag61
ag64
asS'regarder'
p2552
(lp2553
g170
a(S'quietly'
p2554
S'tranquillement'
p2555
tp2556
ag2348
a(S'follow'
p2557
S'suivre'
p2558
tp2559
a(S'man'
p2560
S'homme'
p2561
tp2562
a(S'stupid'
p2563
S'stupide'
p2564
tp2565
a(S'train'
p2566
S'train'
p2567
tp2568
a(S'weak'
p2569
S'faible'
p2570
tp2571
ag362
ag2353
asg2454
(lp2572
g1593
ag1605
ag1590
ag1584
ag2289
ag2292
ag2165
ag1602
ag1171
ag1599
asg1311
(lp2573
g40
ag43
ag46
ag49
a(S'dirty'
p2574
S'sale'
p2575
tp2576
ag233
ag55
ag804
ag61
ag64
asS'paroles'
p2577
(lp2578
g834
ag233
ag55
ag49
ag837
ag840
ag61
ag64
a(S'phoenix'
p2579
g830
tp2580
ag40
asg1271
(lp2581
g40
ag1263
ag981
ag1266
ag987
ag990
ag1278
ag61
ag996
ag1281
asg2216
(lp2582
g769
a(S'thick'
p2583
S'\xc3\xa9pais'
p2584
tp2585
ag230
a(S'narrow'
p2586
S'\xc3\xa9troit'
p2587
tp2588
ag787
ag1473
a(S'tail'
p2589
S'queue'
p2590
tp2591
a(S'snarled'
p2592
g223
tp2593
a(S'lamp'
p2594
S'lampe'
p2595
tp2596
ag245
asS'percy'
p2597
(lp2598
(S'others'
p2599
S'autres'
p2600
tp2601
a(S'my'
p2602
S'ma'
p2603
tp2604
a(S'foul'
p2605
S'faute'
p2606
tp2607
ag2368
ag330
ag2365
a(S'prefects'
p2608
S'pr\xc3\xa9fets'
p2609
tp2610
a(S'younger'
p2611
S'jeune'
p2612
tp2613
a(S'brother'
p2614
S'fr\xc3\xa8re'
p2615
tp2616
ag2362
asg654
(lp2617
g1763
ag2006
ag2009
a(S'walk'
p2618
S'marcher'
p2619
tp2620
a(S'carrying'
p2621
S'portant'
p2622
tp2623
a(S'girls'
p2624
g1751
tp2625
ag2018
ag40
ag61
ag2003
asg1806
(lp2626
g1780
ag1783
ag1786
ag2297
ag2300
ag2303
ag1795
ag1804
ag2308
ag673
asg828
(lp2627
g811
ag814
a(S'bartender'
p2628
S'barman'
p2629
tp2630
a(S'dedalus'
p2631
S'dedalus'
p2632
tp2633
a(S'racing'
p2634
S'courses'
p2635
tp2636
a(S'country'
p2637
S'pays'
p2638
tp2639
a(S'knee'
p2640
S'genou'
p2641
tp2642
ag820
ag826
a(S'stranger'
p2643
S'\xc3\xa9tranger'
p2644
tp2645
asg931
(lp2646
g917
ag1178
ag923
ag926
ag929
ag2208
ag1069
ag1454
ag1060
ag1075
asS'hein'
p2647
(lp2648
g1197
ag649
ag1498
ag1907
a(S'lies'
p2649
S'mensonges'
p2650
tp2651
a(S'lesson'
p2652
S'le\xc3\xa7on'
p2653
tp2654
ag1913
ag286
ag1919
ag856
asS'excuse'
p2655
(lp2656
g649
ag40
ag1494
ag1496
ag652
ag1083
ag655
ag664
ag670
ag847
asg2567
(lp2657
g170
ag2556
ag2348
ag2559
ag2562
ag2565
a(S'watch'
p2658
g2552
tp2659
ag2571
ag362
ag2353
asg1615
(lp2660
g1613
a(S'privet'
p2661
g2661
tp2662
ag40
ag1650
ag49
ag1275
ag1653
ag1619
ag61
ag64
asg329
(lp2663
(S'knew'
p2664
S'savait'
p2665
tp2666
ag2604
ag2607
a(S'terrible'
p2667
S'terrible'
p2668
tp2669
a(S'kill'
p2670
S'tuer'
p2671
tp2672
ag2145
a(S'moment'
p2673
S'moment'
p2674
tp2675
ag1031
a(S'true'
p2676
S'vrai'
p2677
tp2678
a(S'tears'
p2679
S'larmes'
p2680
tp2681
asg1858
(lp2682
(S'sorts'
p2683
S'sortes'
p2684
tp2685
ag1847
ag167
ag1853
ag204
ag1484
ag207
ag1862
ag219
ag222
asg2296
(lp2686
g428
ag2300
ag2303
ag2305
a(S'roughly'
p2687
S'grossi\xc3\xa8rement'
p2688
tp2689
ag399
ag2149
ag673
ag2119
ag2152
asg1511
(lp2690
(S'dark'
p2691
S'sombre'
p2692
tp2693
a(S'hair'
p2694
S'cheveux'
p2695
tp2696
ag2358
ag560
ag575
ag1521
ag581
ag584
ag2467
a(S'silvery'
p2697
S'argent\xc3\xa9'
p2698
tp2699
asg2201
(lp2700
g451
a(S'erised'
p2701
S'ris\xc3\xa9d'
p2702
tp2703
ag2190
ag594
ag2193
ag2196
ag1890
ag2199
ag1893
ag478
asg2603
(lp2704
g2666
ag2607
ag2669
ag2672
a(S'fair'
p2705
S'juste'
p2706
tp2707
a(S'useful'
p2708
S'utile'
p2709
tp2710
a(S'sometimes'
p2711
S'parfois'
p2712
tp2713
a(S'share'
p2714
S'part'
p2715
tp2716
ag2678
ag2681
asg2706
(lp2717
g2412
ag2452
a(S'word'
p2718
S'mot'
p2719
tp2720
ag2322
a(S'flamel'
p2721
S'flamel'
p2722
tp2723
a(S'met'
p2724
g2446
tp2725
ag2327
a(S'send'
p2726
S'envoyer'
p2727
tp2728
a(S'mark'
p2729
S'marque'
p2730
tp2731
a(S'mind'
p2732
S'esprit'
p2733
tp2734
asg2022
(lp2735
(S'find'
p2736
S'trouver'
p2737
tp2738
ag1012
ag726
ag2443
ag2319
a(S'tell'
p2739
g2316
tp2740
ag2041
ag871
a(S'between'
p2741
S'entre'
p2742
tp2743
a(S'matter'
p2744
S'question'
p2745
tp2746
asg2267
(lp2747
g2502
ag2157
ag2159
ag1364
ag443
ag399
ag2162
ag2505
a(S'brothers'
p2748
g2499
tp2749
ag2119
asg2275
(lp2750
g2181
ag1135
ag1120
ag356
ag517
ag2289
ag1132
ag2177
ag2282
ag2285
asS'\xc3\xa9lixir'
p2751
(lp2752
g170
ag2556
ag2348
ag2559
ag2562
ag2565
ag2568
ag2571
ag362
ag2659
asg1027
(lp2753
g5
a(S'dragon'
p2754
S'dragon'
p2755
tp2756
ag2728
a(S'live'
p2757
S'vivre'
p2758
tp2759
ag1929
a(S'help'
p2760
g366
tp2761
ag26
a(S'red'
p2762
S'rouge'
p2763
tp2764
a(S'should'
p2765
S'devrait'
p2766
tp2767
ag29
asg989
(lp2768
g975
ag978
ag40
ag981
ag984
ag49
ag993
ag996
ag999
ag61
asg810
(lp2769
g252
ag46
ag49
ag55
ag820
ag2078
ag2081
ag264
ag261
ag64
asg960
(lp2770
(S'kitchen'
p2771
S'cuisine'
p2772
tp2773
ag373
a(S'elixir'
p2774
g2751
tp2775
ag723
a(S'steal'
p2776
S'voler'
p2777
tp2778
a(S'questions'
p2779
g2779
tp2780
ag2324
ag2174
a(S'quite'
p2781
g2534
tp2782
ag900
asg335
(lp2783
g327
a(S'gotten'
p2784
S'obtenu'
p2785
tp2786
ag330
ag1932
ag1420
ag339
ag116
ag1031
ag1428
ag1943
asS'pauvres'
p2787
(lp2788
g249
ag252
ag46
ag49
ag55
ag255
ag258
ag261
ag264
ag267
asg878
(lp2789
g373
a(S'wrist'
p2790
S'poignet'
p2791
tp2792
ag2060
ag84
a(S'strangely'
p2793
S'\xc3\xa9trangement'
p2794
tp2795
a(S'heavy'
p2796
g588
tp2797
ag2196
a(S'neck'
p2798
S'cou'
p2799
tp2800
ag176
ag191
asS'ricana'
p2801
(lp2802
g249
ag252
ag46
ag49
ag55
ag255
ag258
ag261
ag264
ag267
asg1456
(lp2803
g1464
a(S'dear'
p2804
g1490
tp2805
ag1789
ag1910
ag796
ag1470
ag856
a(S'charlie'
p2806
S'charlie'
p2807
tp2808
ag2596
ag1476
asg983
(lp2809
g1292
ag978
ag233
ag1295
ag993
ag49
ag1298
ag64
ag61
ag40
asS'enfant'
p2810
(lp2811
g249
ag252
ag46
ag49
ag55
ag255
ag258
ag261
ag264
ag267
asg1504
(lp2812
g40
ag43
ag46
ag1502
ag49
ag55
ag1508
ag264
ag61
ag64
asg852
(lp2813
g233
ag1086
ag49
ag242
ag673
ag859
ag64
ag670
ag61
ag40
asS'hagrid'
p2814
(lp2815
(S'lake'
p2816
S'lac'
p2817
tp2818
a(S'give'
p2819
g524
tp2820
a(S'grinned'
p2821
S'sourit'
p2822
tp2823
ag333
a(S'chamber'
p2824
S'chambre'
p2825
tp2826
ag2038
a(S'cross'
p2827
S'traverser'
p2828
tp2829
ag2047
ag1431
ag2050
asS'hamburger'
p2830
(lp2831
g252
ag264
ag46
ag49
ag55
ag1020
ag424
ag261
ag1023
ag64
asg1113
(lp2832
g370
ag2169
ag2171
ag373
ag1117
ag1120
ag1129
ag376
ag93
ag1135
asS'figure'
p2833
(lp2834
(S'ball'
p2835
g1944
tp2836
ag49
ag233
ag40
ag1951
ag1948
ag1954
ag64
ag61
ag1957
asS'profond\xc3\xa9ment'
p2837
(lp2838
(S'seems'
p2839
g65
tp2840
ag72
ag347
a(S'lets'
p2841
S'laisse'
p2842
tp2843
ag2731
a(S'sign'
p2844
S'signe'
p2845
tp2846
ag84
a(S'liked'
p2847
S'aim\xc3\xa9'
p2848
tp2849
ag2174
ag96
asg590
(lp2850
g296
ag2261
ag1063
ag236
ag2264
ag64
ag242
ag40
ag61
ag233
asg115
(lp2851
g1003
ag101
a(S'woman'
p2852
S'femme'
p2853
tp2854
ag1028
ag1288
a(S'barrier'
p2855
S'barri\xc3\xa8re'
p2856
tp2857
a(S'during'
p2858
S'pendant'
p2859
tp2860
ag339
a(S'five'
p2861
S'cinq'
p2862
tp2863
ag964
asg1062
(lp2864
g566
ag2208
ag572
ag1069
ag2211
ag578
ag1473
ag1521
ag587
ag2214
asg2307
(lp2865
g2297
ag428
ag2300
ag2303
ag2305
a(S'buy'
p2866
S'acheter'
p2867
tp2868
ag399
ag2149
ag673
ag2152
asg2772
(lp2869
g502
ag347
ag72
ag2778
a(S'against'
p2870
S'contre'
p2871
tp2872
ag2780
a(S'return'
p2873
g340
tp2874
ag359
ag362
ag350
asg2856
(lp2875
g2181
ag1135
ag1117
ag511
a(S'leg'
p2876
S'jambe'
p2877
tp2878
ag2060
ag871
ag1165
a(S'key'
p2879
S'cl\xc3\xa9'
p2880
tp2881
ag2353
asg893
(lp2882
g2840
ag2471
ag373
ag879
ag882
ag173
ag1630
ag84
ag1543
ag191
asg1589
(lp2883
g1581
ag1593
ag1587
ag1584
ag1596
ag2165
ag1602
ag1605
ag1608
ag1599
asS'gar\xc3\xa7on'
p2884
(lp2885
(S'furious'
p2886
S'furieux'
p2887
tp2888
ag2365
a(S'us'
p2889
S'nous'
p2890
tp2891
a(S'seen'
p2892
S'vu'
p2893
tp2894
a(S'scarlet'
p2895
S'\xc3\xa9carlate'
p2896
tp2897
ag2368
a(S'forever'
p2898
S'toujours'
p2899
tp2900
ag101
ag2145
ag2362
asg969
(lp2901
g2169
ag2471
ag1114
ag876
ag2761
ag1630
ag2764
ag2437
ag376
ag1935
asg291
(lp2902
g227
ag40
ag1496
ag1663
ag242
ag787
ag286
ag236
ag61
ag64
asg1046
(lp2903
(S'better'
p2904
S'mieux'
p2905
tp2906
ag1041
ag1815
ag2675
ag1044
a(S'parents'
p2907
S'parents'
p2908
tp2909
a(S'die'
p2910
S'mourir'
p2911
tp2912
ag1050
ag1053
ag903
asS'r\xc3\xa9el'
p2913
(lp2914
g40
ag43
ag46
ag49
ag233
ag55
ag64
ag267
ag61
ag804
asg2008
(lp2915
g2003
ag2006
a(S'being'
p2916
S'\xc3\xa9tant'
p2917
tp2918
a(S'mail'
p2919
g1257
tp2920
ag49
ag2012
ag2015
ag2018
ag61
ag40
asg1094
(lp2921
g1080
ag40
ag1083
ag1089
ag1364
ag1092
ag1367
ag655
ag1098
ag61
asg1583
(lp2922
g1581
ag1871
ag1587
a(S'direction'
p2923
S'direction'
p2924
tp2925
ag1596
ag1602
a(S'wing'
p2926
g1843
tp2927
a(S'underneath'
p2928
S'dessous'
p2929
tp2930
ag1868
ag1608
asS'glace'
p2931
(lp2932
(S'lips'
p2933
S'l\xc3\xa8vres'
p2934
tp2935
a(S'nor'
p2936
S'ni'
p2937
tp2938
ag353
a(S'size'
p2939
S'taille'
p2940
tp2941
a(S'binoculars'
p2942
S'jumelles'
p2943
tp2944
ag1890
a(S'bite'
p2945
S'mordre'
p2946
tp2947
a(S'trust'
p2948
S'confiance'
p2949
tp2950
a(S'parchment'
p2951
S'parchemin'
p2952
tp2953
a(S'bottle'
p2954
S'bouteille'
p2955
tp2956
asg689
(lp2957
g678
ag920
ag413
ag932
ag684
ag407
ag935
ag693
ag696
ag941
asg1953
(lp2958
g1613
a(S'stunned'
p2959
g1314
tp2960
ag40
a(S'remembrall'
p2961
S'rapeltout'
p2962
tp2963
ag49
a(S'clearly'
p2964
S'clairement'
p2965
tp2966
ag64
a(S'parvati'
p2967
g2967
tp2968
ag61
ag1957
asS'bonbons'
p2969
(lp2970
g2836
a(S'quaffle'
p2971
S'souafle'
p2972
tp2973
a(S'leviosa'
p2974
S'leviosa'
p2975
tp2976
a(S'waving'
p2977
S'agitant'
p2978
tp2979
ag1951
ag1948
ag2012
ag1954
a(S'tap'
p2980
S'robinet'
p2981
tp2982
a(S'figure'
p2983
g2833
tp2984
asg1825
(lp2985
g2840
ag373
ag879
ag882
a(S'take'
p2986
S'prendre'
p2987
tp2988
ag1829
a(S'beautiful'
p2989
S'beau'
p2990
tp2991
a(S'minute'
p2992
g1110
tp2993
a(S'taken'
p2994
S'pris'
p2995
tp2996
ag1832
asS'noises'
p2997
(lp2998
g817
ag43
ag46
ag49
ag2642
ag55
ag264
ag829
ag61
ag64
asg2233
(lp2999
g2228
ag2231
a(S'throw'
p3000
S'jeter'
p3001
tp3002
a(S'calm'
p3003
S'calme'
p3004
tp3005
ag1123
ag2240
ag1132
ag2327
ag2243
a(S'deep'
p3006
S'profond'
p3007
tp3008
asg2357
(lp3009
g772
ag1464
a(S'draco'
p3010
S'drago'
p3011
tp3012
a(S'serious'
p3013
S'grave'
p3014
tp3015
ag778
a(S'fierce'
p3016
S'f\xc3\xa9roce'
p3017
tp3018
a(S'wands'
p3019
S'baguettes'
p3020
tp3021
a(S'twitching'
p3022
S'tremblement'
p3023
tp3024
ag2699
ag2464
asg1348
(lp3025
g1041
ag1338
ag1044
a(S'ravenclaw'
p3026
S'serdaigle'
p3027
tp3028
a(S'hufflepuff'
p3029
S'poufsouffle'
p3030
tp3031
a(S'twenty'
p3032
S'vingt'
p3033
tp3034
a(S'third'
p3035
S'troisi\xc3\xa8me'
p3036
tp3037
ag1047
ag1050
a(S'present'
p3038
S'pr\xc3\xa9sent'
p3039
tp3040
asg2337
(lp3041
g2332
ag1181
ag1184
ag1187
ag2335
a(S'worry'
p3042
g1682
tp3043
ag1685
ag2341
ag1190
a(S'danger'
p3044
g2328
tp3045
asS'pr\xc3\xa9cipit\xc3\xa9'
p3046
(lp3047
g40
ag43
ag46
ag49
ag233
ag55
a(S'proud'
p3048
S'fier'
p3049
tp3050
ag804
ag61
ag64
asS'rapport'
p3051
(lp3052
(S'our'
p3053
S'notre'
p3054
tp3055
ag2181
ag2169
ag2471
ag1627
ag2319
ag2279
a(S'mad'
p3056
S'fou'
p3057
tp3058
ag2177
a(S'trying'
p3059
S'essayer'
p3060
tp3061
asg3004
(lp3062
(S'fingers'
p3063
S'doigts'
p3064
tp3065
a(S'slowly'
p3066
g2186
tp3067
ag3002
ag2196
a(S'smell'
p3068
g2511
tp3069
a(S'flew'
p3070
S'vol\xc3\xa9'
p3071
tp3072
ag2085
ag1174
ag2202
a(S'albus'
p3073
S'albus'
p3074
tp3075
asS'anniversaire'
p3076
(lp3077
g40
ag43
ag46
ag49
ag233
ag55
ag2620
ag804
ag61
ag64
asg1213
(lp3078
g1205
ag1208
ag2234
ag2490
ag2493
ag2322
ag2740
ag1220
ag2327
ag1232
asg1659
(lp3079
g40
ag49
ag55
a(S'real'
p3080
g2913
tp3081
a(S'thin'
p3082
S'mince'
p3083
tp3084
ag2625
ag64
ag1768
ag61
ag233
asg2442
(lp3085
g2428
ag879
ag2434
ag1929
ag2319
ag2909
ag2431
ag882
ag2746
ag894
asS'plastique'
p3086
(lp3087
g700
a(S'writing'
p3088
S'\xc3\xa9criture'
p3089
tp3090
ag40
ag428
ag2689
a(S'rounded'
p3091
S'arrondie'
p3092
tp3093
ag2868
ag2116
a(S'list'
p3094
S'liste'
p3095
tp3096
ag446
asg2401
(lp3097
g40
a(S'distant'
p3098
S'lointain'
p3099
tp3100
ag2399
ag49
ag233
ag55
ag2116
ag64
ag61
a(S'warm'
p3101
g2378
tp3102
asg1301
(lp3103
g132
ag299
a(S'dormitory'
p3104
S'dortoir'
p3105
tp3106
ag135
ag482
ag485
ag1109
ag147
ag488
ag491
asg1059
(lp3107
g566
ag2208
ag572
ag1069
ag2211
ag578
ag1473
ag1521
ag2214
ag1075
asg2192
(lp3108
(S'having'
p3109
S'ayant'
p3110
tp3111
a(S'fireplace'
p3112
g2457
tp3113
ag1239
ag1106
ag2461
ag1518
ag1242
ag1245
ag600
a(S'often'
p3114
S'souvent'
p3115
tp3116
asg430
(lp3117
g700
ag703
ag706
ag390
ag393
ag396
ag402
ag434
ag712
ag446
asg3054
(lp3118
g1123
ag1120
ag2276
ag2319
ag2279
ag3058
ag2177
ag3061
ag2282
ag2285
asg3071
(lp3119
g3065
ag3067
ag2538
ag3002
ag2057
ag1540
ag379
ag1174
ag2202
ag3075
asg1071
(lp3120
g1178
ag1239
ag572
ag1518
ag1066
ag311
ag1448
ag581
ag587
ag1527
asg2817
(lp3121
g2820
ag2823
ag2026
ag333
ag2826
ag2041
ag2829
a(S'shocked'
p3122
S'choqu\xc3\xa9'
p3123
tp3124
ag1431
ag2050
asg1419
(lp3125
g720
ag330
ag2090
ag11
ag2093
ag1031
a(S'ah'
p3126
S'ah'
p3127
tp3128
ag2096
ag734
ag2857
asg1909
(lp3129
g227
ag2805
ag796
ag853
ag856
ag1095
ag2808
ag236
ag865
ag1498
asg274
(lp3130
g49
ag40
ag1502
ag278
ag1505
ag55
ag1508
ag281
ag61
ag64
asS'oser'
p3131
(lp3132
(S'complain'
p3133
S'plaindre'
p3134
tp3135
ag40
ag43
ag46
ag49
ag233
ag55
ag2223
ag61
ag64
asg2955
(lp3136
g2935
ag2938
ag2941
a(S'roll'
p3137
g2369
tp3138
ag2944
ag1890
ag2947
ag2953
ag2373
ag1896
asg881
(lp3139
g176
ag3067
ag1534
ag2792
ag2547
ag2797
ag2057
ag2878
ag191
ag2202
asg1207
(lp3140
g1205
ag1211
ag2490
ag1214
ag2493
ag2322
ag2740
ag1220
ag1223
ag1232
asS'probl\xc3\xa8me'
p3141
(lp3142
g49
ag40
ag43
ag46
a(S'bacon'
p3143
g1555
tp3144
ag1559
ag233
ag55
ag61
ag64
asS'tordu'
p3145
(lp3146
g249
ag252
ag46
ag49
ag55
ag255
ag258
ag261
ag264
ag267
asS'a'
p3147
(lp3148
g122
ag1148
ag3028
ag1151
ag1154
ag1157
ag119
ag2786
ag32
ag1015
asS'\xc3\xa9quipe'
p3149
(lp3150
(S'water'
p3151
S'eau'
p3152
tp3153
a(S'wave'
p3154
S'vague'
p3155
tp3156
ag40
ag1496
a(S'mars'
p3157
S'mars'
p3158
tp3159
a(S'midnight'
p3160
S'minuit'
p3161
tp3162
ag787
ag236
ag61
ag292
asg1723
(lp3163
g1709
ag1712
ag1715
ag1718
ag1448
ag2074
ag1721
ag1727
ag1730
ag938
asg1623
(lp3164
g1534
ag1633
a(S'nostrils'
p3165
S'narines'
p3166
tp3167
ag2792
ag2795
ag1636
ag1380
a(S'bald'
p3168
S'chauve'
p3169
tp3170
ag1543
ag1389
asg711
(lp3171
g1613
ag1616
ag40
ag703
ag1989
ag706
ag393
ag1995
ag1619
ag61
asg1186
(lp3172
g1178
ag1554
ag1184
ag772
ag563
ag569
ag575
ag578
ag1190
ag1193
asS'nouvelles'
p3173
(lp3174
g249
ag252
ag46
ag49
ag55
ag255
ag258
ag261
ag264
ag267
asg1444
(lp3175
g1442
ag1464
ag1439
ag1470
ag2211
ag1451
ag1454
ag1457
ag1476
ag2217
asg554
(lp3176
g528
ag2428
ag2434
ag1929
ag2909
ag2431
ag2443
ag1050
ag1935
ag894
asg3105
(lp3177
(S'dogs'
p3178
S'chiens'
p3179
tp3180
ag1060
ag929
ag1106
ag302
ag299
ag1069
ag1839
ag1075
a(S'some'
p3181
S'certains'
p3182
tp3183
asg2755
(lp3184
g370
ag164
ag2169
ag373
ag344
ag75
ag2761
ag359
ag93
ag365
asS'bo\xc3\xaete'
p3185
(lp3186
g1904
ag289
a(S'rats'
p3187
S'rats'
p3188
tp3189
a(S'sound'
p3190
S'sonner'
p3191
tp3192
a(S'norwegian'
p3193
S'norv\xc3\xa9gien'
p3194
tp3195
ag850
ag3162
a(S'quill'
p3196
S'plume'
p3197
tp3198
a(S'smoke'
p3199
S'fum\xc3\xa9e'
p3200
tp3201
ag2808
asS'si'
p3202
(lp3203
g2820
a(S'silence'
p3204
S'silence'
p3205
tp3206
ag614
ag534
a(S'slytherin'
p3207
S'serpentard'
p3208
tp3209
ag552
ag537
ag540
ag549
ag1358
asg1287
(lp3210
g1036
ag876
ag1003
ag2743
ag1696
ag888
ag891
ag2437
ag1705
a(S'granger'
p3211
S'granger'
p3212
tp3213
asS'serrant'
p3214
(lp3215
g923
ag40
ag1106
ag1066
ag572
a(S'dursleys'
p3216
S'dursley'
p3217
tp3218
ag587
ag236
ag61
ag64
asg1767
(lp3219
g40
ag43
ag46
ag49
ag233
ag55
ag3081
ag2116
ag61
ag64
asg2367
(lp3220
g2906
ag531
ag2362
ag2365
ag2675
ag1044
ag2145
ag1047
ag1053
ag1012
asg963
(lp3221
g1003
ag1038
ag1036
ag1832
ag1823
ag1829
ag891
ag958
ag1826
ag961
asg2890
(lp3222
g2888
ag2365
ag101
ag1344
ag2897
ag2368
ag2900
ag2145
a(S'boy'
p3223
g2884
tp3224
ag2362
asg2344
(lp3225
g745
ag748
ag751
a(S'trolls'
p3226
S'trolls'
p3227
tp3228
ag2060
a(S'idea'
p3229
S'id\xc3\xa9e'
p3230
tp3231
ag754
ag2881
ag760
ag763
asS'seamus'
p3232
(lp3233
g49
ag233
ag40
ag46
a(S'finds'
p3234
S'd\xc3\xa9couvertes'
p3235
tp3236
ag706
ag55
a(S'finnigan'
p3237
S'finnigan'
p3238
tp3239
ag61
ag64
asg980
(lp3240
g975
ag978
ag40
ag993
ag984
ag49
ag996
ag999
ag61
ag64
asS'd\xc3\xa9m\xc3\xa9nag\xc3\xa9'
p3241
(lp3242
g233
ag40
ag1312
a(S'excitement'
p3243
S'excitation'
p3244
tp3245
ag49
a(S'dad'
p3246
S'papa'
p3247
tp3248
ag55
ag46
ag61
ag64
asg756
(lp3249
g745
ag748
ag751
ag754
ag3170
ag478
ag2350
ag188
ag760
ag763
asg2845
(lp3250
g2840
ag72
ag347
ag2843
ag2731
ag84
ag2849
ag2174
ag96
a(S'deeply'
p3251
g2837
tp3252
asg1422
(lp3253
g617
ag1690
ag2823
ag1699
ag2050
ag1428
ag629
ag1705
a(g1686
g1686
tp3254
ag964
asg3191
(lp3255
g646
ag1760
ag3201
ag236
ag850
ag3162
a(S'fangs'
p3256
S'crocs'
p3257
tp3258
ag859
ag289
ag847
asg3027
(lp3259
g1041
ag1044
ag3031
ag3034
ag2909
ag3037
ag1047
ag1349
ag1050
ag3040
asg2475
(lp3260
g2840
ag72
ag505
ag2872
ag78
a(S'interest'
p3261
S'int\xc3\xa9r\xc3\xaat'
p3262
tp3263
ag84
ag87
ag96
ag3008
asg2880
(lp3264
g745
ag748
ag751
ag3228
ag754
ag3231
ag3170
ag478
ag760
ag763
asg3238
(lp3265
g49
ag40
ag43
ag46
ag3236
ag233
ag55
ag804
ag61
ag64
asg369
(lp3266
g69
ag75
ag3167
ag81
ag173
ag2792
ag2547
ag1380
ag93
ag191
asg474
(lp3267
g748
a(S'easily'
p3268
g447
tp3269
ag457
ag1887
ag463
ag466
ag2486
ag185
ag478
ag1392
asS'longue'
p3270
(lp3271
g170
ag2775
ag2556
ag2348
ag2559
ag2562
ag2568
ag2659
ag2571
ag2565
asg106
(lp3272
g8
ag1285
ag2386
ag11
a(S'soon'
p3273
g2380
tp3274
ag110
ag2389
ag2392
ag2395
ag32
asS'weasley'
p3275
(lp3276
g528
ag1397
ag1406
ag1409
ag1941
ag2820
ag2613
ag113
ag1428
ag124
asg1779
(lp3277
g1783
ag1786
ag2297
ag2300
ag2305
ag2303
ag1795
ag1804
ag2308
ag673
asg1326
(lp3278
g49
ag1321
ag40
ag1324
ag1330
ag1967
ag1970
ag1973
ag61
ag64
asg1463
(lp3279
g3024
ag3189
ag778
ag3018
ag796
a(S'hours'
p3280
S'heures'
p3281
tp3282
ag1910
ag2808
ag2596
a(S'box'
p3283
g3185
tp3284
asg596
(lp3285
g296
ag299
ag302
ag485
ag1109
ag311
ag314
ag213
ag320
ag323
asg2644
(lp3286
g252
ag2630
a(S'town'
p3287
g1488
tp3288
ag46
ag2639
ag55
ag49
ag261
ag264
ag64
asg1138
(lp3289
(S'wanted'
p3290
S'voulu'
p3291
tp3292
ag2449
ag1145
ag2324
a(S'luck'
p3293
S'chance'
p3294
tp3295
ag1157
ag1142
a(S'answered'
p3296
S'r\xc3\xa9pondu'
p3297
tp3298
ag3128
ag1015
asg112
(lp3299
g888
a(S'floor'
p3300
S'\xc3\xa9tage'
p3301
tp3302
ag14
a(S'second'
p3303
S'deuxi\xc3\xa8me'
p3304
tp3305
ag2857
ag3061
ag3128
ag26
ag1056
ag127
asg2794
(lp3306
g1879
ag591
ag40
ag2792
ag597
ag600
ag603
ag236
ag61
ag64
asS'tournant'
p3307
(lp3308
g804
ag40
ag43
ag46
ag49
ag233
ag55
a(S'starting'
p3309
S'd\xc3\xa9part'
p3310
tp3311
ag61
ag64
asS'dame'
p3312
(lp3313
g1564
a(S'sharp'
p3314
g1897
tp3315
a(S'raised'
p3316
g1560
tp3317
ag2654
ag1913
a(S'eh'
p3318
g2647
tp3319
ag1570
ag2596
ag1576
ag1919
asg928
(lp3320
g917
ag1178
ag923
ag926
ag566
ag2696
ag1439
ag1454
ag1467
ag2217
asg1052
(lp3321
g2756
ag2906
ag2169
ag723
ag1627
ag2743
ag885
ag2991
a(S'book'
p3322
S'livre'
p3323
tp3324
ag2440
asg1035
(lp3325
g1624
ag2471
ag1633
ag888
ag891
ag1636
ag1639
ag2174
ag1543
ag385
asg487
(lp3326
g917
ag3180
ag926
ag929
ag3106
ag485
ag1109
ag308
ag299
ag1069
asS'changement'
p3327
(lp3328
g249
ag252
ag46
ag49
ag55
ag255
ag258
ag261
ag264
ag267
asg1014
(lp3329
g3292
ag1139
ag2449
ag1145
ag2324
ag3295
ag1157
ag1142
ag3298
ag3128
asS'exclu'
p3330
(lp3331
(S'amazement'
p3332
S'stup\xc3\xa9faction'
p3333
tp3334
a(S'uniform'
p3335
S'uniforme'
p3336
tp3337
ag40
ag49
a(S'griphook'
p3338
S'gripsec'
p3339
tp3340
a(S'seats'
p3341
S'si\xc3\xa8ges'
p3342
tp3343
a(S'reminded'
p3344
S'rappel\xc3\xa9'
p3345
tp3346
a(S'shops'
p3347
S'boutiques'
p3348
tp3349
a(S'underground'
p3350
S'souterrain'
p3351
tp3352
ag61
asg762
(lp3353
g745
ag748
ag751
ag3228
ag754
ag3231
ag3170
ag188
ag760
ag478
asS'fen\xc3\xaatres'
p3354
(lp3355
g1789
ag1792
ag1798
ag1801
ag1913
ag3198
a(S'thousand'
p3356
g1776
tp3357
ag2596
ag1807
a(S'fungi'
p3358
S'champignons'
p3359
tp3360
asg2180
(lp3361
g742
ag81
ag1135
ag1117
ag757
ag2184
ag376
ag2350
ag362
ag2054
asg2470
(lp3362
g502
ag347
ag72
a(S'careful'
p3363
S'prudent'
p3364
tp3365
ag2872
ag2780
ag520
ag2874
a(S'sighed'
p3366
S'soupira'
p3367
tp3368
ag350
asg1533
(lp3369
g2797
ag472
ag2518
ag2521
ag2792
ag2312
ag2315
ag469
a(S'interesting'
p3370
S'int\xc3\xa9ressant'
p3371
tp3372
ag2530
asg663
(lp3373
g658
ag40
ag1763
ag652
ag655
ag49
ag2623
ag670
ag61
ag64
asg780
(lp3374
g769
ag646
ag775
ag1496
ag1663
ag239
ag787
ag790
ag649
ag661
asg2460
(lp3375
g2074
ag1239
ag1512
ag1515
ag1518
ag1448
ag1521
ag581
ag1524
ag2467
asS'main'
p3376
(lp3377
g531
ag1696
ag1818
ag2257
ag1288
ag3254
ag543
ag1705
ag2912
a(S'however'
p3378
S'cependant'
p3379
tp3380
asg3297
(lp3381
g3292
ag2449
ag1145
ag2237
ag2324
ag3295
ag1142
ag3128
ag2246
ag2734
asg613
(lp3382
g2906
ag876
ag723
ag511
ag885
ag2675
ag1044
ag1702
ag3254
ag1012
asg92
(lp3383
g370
ag69
ag75
ag3167
ag3067
ag81
ag2792
ag2547
ag1380
ag2202
asg1743
(lp3384
g233
ag40
ag1295
ag49
ag55
a(S'dare'
p3385
g3131
tp3386
ag46
ag1750
ag61
ag64
asg2028
(lp3387
g2023
ag2026
ag2746
ag726
ag2743
ag2041
ag2032
ag3124
ag2443
ag1012
asg1791
(lp3388
g1780
ag1783
ag1786
ag2300
ag1795
ag1798
ag1801
ag1804
ag1807
ag2308
asg2758
(lp3389
g2773
ag499
ag502
ag2778
ag2872
ag2780
ag2756
ag2761
ag2471
ag2767
asg484
(lp3390
g3180
ag926
ag929
ag3106
ag1109
ag308
ag311
ag299
ag1069
ag323
asg2062
(lp3391
g1890
ag3269
ag3372
ag2060
ag2199
ag2057
ag469
a(S'gotta'
p3392
S'dois'
p3393
tp3394
ag2054
ag1896
asg498
(lp3395
g2471
ag508
ag2872
ag1126
ag520
ag2874
ag3368
ag502
ag3008
ag2780
asg2126
(lp3396
g1397
a(S'forbidden'
p3397
g2120
tp3398
ag2090
ag1420
ag1412
ag2093
ag2124
ag2096
ag2130
ag2133
asg172
(lp3399
g1531
ag2541
ag2878
ag2547
ag1165
ag2797
ag3167
ag176
ag191
ag609
asS'prise'
p3400
(lp3401
g40
ag43
ag46
ag49
ag233
ag55
ag715
a(S'best'
p3402
S'meilleur'
p3403
tp3404
ag61
ag64
asg16
(lp3405
g5
ag1624
ag876
ag1633
ag2255
ag2764
ag2437
ag20
ag1636
ag1935
asS'tableaux'
p3406
(lp3407
g37
ag49
ag40
ag43
ag46
a(S'rude'
p3408
g33
tp3409
ag55
ag58
ag61
ag64
asg1357
(lp3410
g1335
a(S'whether'
p3411
g3202
tp3412
ag1338
ag534
ag3209
ag537
ag540
ag1355
ag549
ag552
asg2340
(lp3413
g2332
ag1181
ag1184
ag1187
ag2335
ag3043
ag311
ag1685
ag1190
ag1193
asg71
(lp3414
g164
ag2840
ag359
ag350
ag78
ag84
ag87
ag90
ag362
ag96
asg625
(lp3415
g2384
ag1696
ag1028
a(S'hand'
p3416
g3376
tp3417
ag110
ag113
ag2124
ag1705
ag638
ag2133
asg1652
(lp3418
g1650
ag40
ag43
ag46
ag49
ag233
ag55
ag804
ag61
ag64
asg1268
(lp3419
g1261
ag40
ag1263
ag981
ag1266
ag987
ag1272
ag990
ag1278
ag1281
asg637
(lp3420
g2384
ag626
ag1028
ag3417
ag110
ag113
ag2124
ag1705
ag2133
ag1696
asg1507
(lp3421
g40
ag43
ag46
ag49
ag55
ag264
ag267
a(S'pig'
p3422
S'cochon'
p3423
tp3424
ag61
ag64
asg842
(lp3425
g40
ag43
ag46
ag49
ag55
ag3349
a(S'shop'
p3426
S'boutique'
p3427
tp3428
ag264
ag61
ag64
asS'compter'
p3429
(lp3430
g40
ag43
ag46
ag49
ag233
ag55
ag64
ag267
ag61
ag804
asg1244
(lp3431
g3111
ag3113
ag1236
ag2461
ag305
ag308
ag1242
ag1072
ag1066
ag1248
asg364
(lp3432
g472
ag1386
ag75
ag609
ag1383
ag2312
ag1380
ag2315
ag2085
ag478
asg1068
(lp3433
g1554
ag2208
ag572
ag784
ag2211
ag578
ag1075
ag1521
ag2217
ag3156
asg3023
(lp3434
g1901
ag3189
ag3315
ag865
ag3282
ag1910
ag3198
ag2808
ag1916
ag3284
asg1814
(lp3435
g2840
ag72
ag505
ag2872
ag2761
ag84
ag2476
ag3263
ag96
ag3008
asg1635
(lp3436
g1534
ag1633
ag2518
ag2878
ag1380
ag2797
ag2524
ag2202
ag2085
ag2530
asg2671
(lp3437
g2666
ag2604
ag2607
ag2720
ag2669
ag2707
ag2710
ag2713
ag2678
ag2681
asg2314
(lp3438
g591
ag472
ag1063
ag2335
ag2312
ag317
a(S'dinner'
p3439
S'd\xc3\xaener'
p3440
tp3441
ag213
ag600
ag296
asg2641
(lp3442
g252
ag2633
ag2636
ag43
ag46
ag49
ag55
ag261
ag264
ag64
asg2635
(lp3443
g252
ag2633
ag43
ag46
ag49
ag55
ag261
ag264
ag267
ag64
asg3212
(lp3444
(S'long'
p3445
g3270
tp3446
ag2775
a(S'looking'
p3447
S'recherche'
p3448
tp3449
ag2568
a(S'happens'
p3450
S'arrive'
p3451
tp3452
a(S'scar'
p3453
S'cicatrice'
p3454
tp3455
ag2716
a(S'master'
p3456
S'ma\xc3\xaetre'
p3457
tp3458
a(S'clean'
p3459
S'propre'
p3460
tp3461
ag903
asg934
(lp3462
g917
ag920
ag923
ag926
ag929
ag932
ag1178
ag1454
ag938
ag941
asg2946
(lp3463
g2938
ag2941
ag3138
ag2944
ag1890
a(S'threw'
p3464
S'jeta'
p3465
tp3466
ag2953
ag2373
ag1896
a(S'feet'
p3467
S'pieds'
p3468
tp3469
asS'choix'
p3470
(lp3471
g2498
ag296
ag314
a(S'stiffly'
p3472
g2417
tp3473
ag147
ag597
ag150
ag491
ag2423
ag606
asg2862
(lp3474
g2490
ag1145
ag2854
ag2988
ag2322
ag2740
ag2738
a(S'pocket'
p3475
S'poche'
p3476
tp3477
ag3295
ag2449
asg783
(lp3478
g769
ag775
ag1663
ag778
ag781
ag239
ag787
ag790
ag793
ag796
asg3257
(lp3479
g646
ag1760
ag236
a(S'temper'
p3480
S'humeur'
p3481
tp3482
ag658
ag1669
ag859
ag289
ag1765
ag847
asg1144
(lp3483
g3292
ag1139
ag2449
ag2324
ag3295
ag2725
ag1157
ag1142
ag3298
ag3128
asS'oui'
p3484
(lp3485
g2820
ag3206
ag531
ag2362
ag2365
ag3417
ag2368
ag543
ag2912
ag3380
asg2077
(lp3486
g249
ag252
ag46
ag49
ag55
ag255
ag258
ag261
ag264
ag267
asg1514
(lp3487
g3153
ag2467
ag2358
ag1512
ag778
ag1521
ag581
ag1524
ag587
ag2464
asS'doux'
p3488
(lp3489
g233
ag40
ag43
ag236
ag2651
a(S'entered'
p3490
S'entr\xc3\xa9'
p3491
tp3492
ag289
ag242
ag61
ag64
asg2887
(lp3493
g2756
ag1624
ag2731
ag2846
ag888
ag2897
ag2849
ag1636
ag2857
ag3252
asg1569
(lp3494
g1567
ag233
ag40
ag43
ag242
ag236
ag2651
ag1573
ag61
ag64
asg2615
(lp3495
g2601
ag2604
ag330
a(S'percy'
p3496
g2597
tp3497
a(S'happy'
p3498
S'heureux'
p3499
tp3500
ag2610
ag1344
ag2897
ag2613
ag2672
asg2842
(lp3501
g69
ag347
ag2731
ag2846
ag385
ag84
ag376
ag2174
ag2800
ag3252
asg1373
(lp3502
g1879
ag314
ag2498
ag135
ag3473
ag147
ag150
ag491
ag2423
ag913
asS'fix\xc3\xa9'
p3503
(lp3504
g1850
ag2515
ag1587
ag1882
ag2196
ag1856
ag1859
ag1868
a(S'seeker'
p3505
S'attrapeur'
p3506
tp3507
ag2527
asg2561
(lp3508
g170
ag2556
ag2559
ag2571
ag2565
ag2345
ag2348
ag362
ag2353
ag2950
asg7
(lp3509
g5
ag1036
ag1696
ag2386
ag26
ag891
ag2437
ag20
ag1935
ag32
asg1441
(lp3510
(S'team'
p3511
g3149
tp3512
ag1464
ag3159
ag1439
ag1470
ag1451
ag1454
ag1457
ag1476
ag3156
asg1493
(lp3513
g658
ag649
ag1763
ag1496
ag652
ag1083
ag655
ag664
ag670
ag847
asg2364
(lp3514
g2906
ag1053
ag531
ag2362
ag2675
ag2368
ag2145
ag1047
ag543
ag1044
asg3427
(lp3515
g808
ag49
ag1256
ag40
a(S'imagining'
p3516
S'imaginant'
p3517
tp3518
ag823
a(S'mystery'
p3519
S'myst\xc3\xa8re'
p3520
tp3521
ag829
ag61
a(S'bronze'
p3522
S'bronze'
p3523
tp3524
asg2619
(lp3525
g40
ag43
ag46
ag49
ag233
ag55
ag64
ag267
ag61
ag804
asg1088
(lp3526
g40
ag49
ag1364
ag1367
ag1370
ag3096
ag3404
ag1098
ag61
ag64
asg1991
(lp3527
g1986
ag2662
ag40
ag49
ag1275
ag1747
a(S'flaming'
p3528
S'flamboyant'
p3529
tp3530
ag64
ag61
ag233
asg571
(lp3531
g2596
ag1789
a(S'eleven'
p3532
S'onze'
p3533
tp3534
a(S'windows'
p3535
g3354
tp3536
ag1913
ag3198
ag3357
ag587
ag1916
ag3360
asS'valeur'
p3537
(lp3538
g40
ag43
ag46
ag49
ag55
ag58
a(S'howling'
p3539
S'hurlant'
p3540
tp3541
ag267
ag61
ag64
asg2526
(lp3542
(S'jumped'
p3543
g1477
tp3544
a(S'norbert'
p3545
S'norbert'
p3546
tp3547
ag2312
ag1484
a(S'top'
p3548
S'haut'
p3549
tp3550
ag3466
ag1487
a(S'half'
p3551
S'moiti\xc3\xa9'
p3552
tp3553
ag3507
a(S'difficult'
p3554
S'difficile'
p3555
tp3556
asg1150
(lp3557
g1139
ag1145
ag122
ag1148
ag1154
ag1157
ag1705
ag119
ag32
ag1015
asS'moldus'
p3558
(lp3559
g617
ag620
ag641
ag1699
ag1423
ag629
ag635
ag3254
ag2139
ag964
asg1963
(lp3560
(S'twitched'
p3561
S'remua'
p3562
tp3563
ag40
a(S'decide'
p3564
S'd\xc3\xa9cider'
p3565
tp3566
a(S'thinking'
p3567
S'r\xc3\xa9flexion'
p3568
tp3569
a(S'rang'
p3570
S'rang'
p3571
tp3572
a(S'friar'
p3573
S'moine'
p3574
tp3575
a(S'twin'
p3576
S'double'
p3577
tp3578
ag804
a(S'purple'
p3579
S'pourpre'
p3580
tp3581
a(S'stool'
p3582
S'tabouret'
p3583
tp3584
asg753
(lp3585
g3045
ag1377
ag1882
ag751
ag2338
ag2481
ag2484
ag3170
ag760
ag478
asg3074
(lp3586
g3065
ag3067
ag2190
ag1383
ag2196
ag1890
ag2199
ag1380
ag1174
ag2202
asg2497
(lp3587
g311
ag1060
ag1063
ag932
a(S'firenze'
p3588
S'firenze'
p3589
tp3590
ag2208
ag299
ag1069
ag3218
ag1075
asg680
(lp3591
g678
ag920
ag413
ag684
ag935
ag407
ag690
ag693
ag696
ag941
asg1369
(lp3592
g40
ag43
ag46
ag49
ag233
ag55
ag715
ag3404
ag61
ag64
asg3552
(lp3593
g1481
ag1484
ag138
ag135
ag147
ag1487
ag153
ag159
ag1304
ag3544
asg1210
(lp3594
g1205
ag1208
ag2490
ag1214
ag2493
ag2322
ag1220
ag1223
ag1229
ag1232
asg616
(lp3595
g1690
ag1693
ag1699
ag1038
ag629
ag958
ag1705
ag897
ag3254
ag970
asg1430
(lp3596
g2818
ag2820
ag2823
ag333
ag2826
ag2041
ag2829
ag3124
ag2050
a(S'sorry'
p3597
S'd\xc3\xa9sol\xc3\xa9'
p3598
tp3599
asg103
(lp3600
g1036
ag531
ag8
ag1929
ag26
ag127
ag2440
ag1009
ag1935
ag32
asg3481
(lp3601
g1309
ag658
ag40
ag49
ag1765
ag1669
ag2162
a(S'moved'
p3602
g3241
tp3603
ag61
ag64
asg2584
(lp3604
g230
ag40
ag1907
ag2588
a(S'son'
p3605
S'fils'
p3606
tp3607
ag236
ag61
ag2591
ag2593
ag245
asS'que'
p3608
(lp3609
g327
ag1397
ag623
ag2891
ag2900
ag101
ag116
ag1226
ag1415
a(S'okay'
p3610
S'bien'
p3611
tp3612
asg2859
(lp3613
g2490
ag2854
ag2988
ag2322
ag14
ag2738
ag3477
ag23
ag2863
ag29
asg1598
(lp3614
g1581
ag1584
ag1871
ag1587
ag2925
ag1596
ag1602
ag2927
ag2930
ag1608
asg1391
(lp3615
g748
ag1882
ag1887
ag1890
ag2486
ag179
ag1893
ag185
ag1896
ag478
asS'couloir'
p3616
(lp3617
g132
a(S'clutching'
p3618
g3214
tp3619
ag482
ag135
ag144
ag147
ag150
ag491
ag488
ag141
asg2073
(lp3620
g772
ag2358
ag3012
ag3015
ag778
ag3018
ag3021
ag3024
ag2699
ag1464
asg1022
(lp3621
g252
ag43
ag46
ag49
ag55
ag1020
ag261
ag264
ag267
ag64
asg2777
(lp3622
g2773
ag502
ag347
ag72
ag2872
ag2780
ag2874
ag359
ag362
ag350
asg398
(lp3623
g2102
ag2105
ag2111
ag393
ag2012
ag402
ag2015
ag2113
ag446
ag2119
asS'gar\xc3\xa7ons'
p3624
(lp3625
g233
ag40
ag46
a(S'cup'
p3626
S'tasse'
p3627
tp3628
ag49
ag55
ag1967
a(S'common'
p3629
g2444
tp3630
ag61
ag64
asg1771
(lp3631
g40
ag275
ag1502
ag49
ag1505
ag55
ag1775
ag281
ag61
ag64
asg232
(lp3632
g834
a(S'expelled'
p3633
g3330
tp3634
ag40
ag49
ag837
ag840
ag61
ag843
ag2580
ag64
asg1235
(lp3635
g1178
ag1527
ag1239
ag305
ag1518
ag1066
ag311
ag1448
ag1072
ag308
asg2668
(lp3636
g2666
ag2720
ag2607
ag2672
ag2707
ag2710
ag2713
ag2716
ag2678
ag2681
asg2520
(lp3637
g233
ag40
ag43
ag236
ag2651
ag472
ag289
ag242
ag61
ag64
asg1011
(lp3638
g2906
ag2743
ag726
ag2319
ag2740
ag3324
ag2440
ag1009
ag1053
ag2746
asg3301
(lp3639
g3055
ag2276
ag2319
ag14
ag3305
ag3058
a(S'report'
p3640
g3051
tp3641
ag3061
ag2282
ag2285
asg1382
(lp3642
g1879
ag1386
a(S'choice'
p3643
g3470
tp3644
ag2685
ag2481
a(S'passageway'
p3645
g674
tp3646
ag1380
a(S'started'
p3647
S'commenc\xc3\xa9'
p3648
tp3649
ag1389
ag3045
asg2911
(lp3650
g1812
ag1815
ag1818
ag514
ag2257
ag2255
ag2476
ag3380
ag1645
ag903
asg3115
(lp3651
g3111
ag2461
ag1239
ag1181
ag1518
ag1515
ag3043
ag3113
ag1242
ag1245
asg2059
(lp3652
g745
ag748
ag751
ag3228
ag754
ag3231
ag469
ag2881
ag760
ag763
asg109
(lp3653
g8
ag26
ag1028
ag11
ag2386
ag2764
ag20
ag2145
ag17
ag32
asg1849
(lp3654
g1847
ag167
ag1853
ag207
ag1856
ag1859
ag1862
ag1865
ag219
ag1868
asg1520
(lp3655
g3153
ag3024
ag1901
ag778
ag3315
ag3159
ag2467
ag587
ag1916
ag2464
asg786
(lp3656
g227
ag775
ag1496
ag1663
ag649
ag236
ag239
ag661
ag646
ag847
asg583
(lp3657
g2696
ag227
ag3534
ag3159
ag3282
ag3162
a(S'grabbed'
p3658
S'saisi'
p3659
tp3660
ag2596
ag787
ag1913
asg3571
(lp3661
g3563
ag40
ag3566
ag3569
ag840
a(S'walked'
p3662
S'march\xc3\xa9'
p3663
tp3664
ag3575
ag3578
ag3581
ag3584
asg1388
(lp3665
g2498
ag1106
ag1181
ag314
ag3473
ag3043
ag3441
ag1685
ag2423
ag3116
asg343
(lp3666
g451
ag1531
ag2315
ag1168
ag2878
ag2312
ag1165
ag478
ag2797
ag609
asg559
(lp3667
g2696
ag2464
ag778
ag3159
ag572
ag3536
ag3660
ag584
ag2596
ag2467
asg2483
(lp3668
g410
ag1377
ag3619
ag2335
ag416
ag210
ag213
ag156
ag2376
ag296
asg1134
(lp3669
g370
ag742
ag81
ag1117
ag69
ag2184
ag376
ag362
ag93
ag2054
asg123
(lp3670
g3206
ag531
ag1818
ag3417
ag26
ag2764
ag543
ag2912
ag3380
ag127
asg2025
(lp3671
g2023
ag731
ag2029
ag726
ag2041
ag2032
ag3124
ag1012
ag2050
ag3599
asg271
(lp3672
g1253
ag40
ag43
ag46
ag49
ag55
a(S'ends'
p3673
g1249
tp3674
ag264
ag61
ag64
asg1762
(lp3675
g233
ag40
ag46
ag49
ag55
ag3081
ag2620
ag2625
ag61
ag64
asg1376
(lp3676
g2498
ag198
ag201
ag135
ag2335
ag147
ag597
ag2484
ag213
ag913
asg2046
(lp3677
g2023
a(S'delicious'
p3678
g2019
tp3679
ag2026
ag2029
ag2032
ag2035
ag2038
ag2041
ag2044
ag2050
asg2347
(lp3680
g745
ag170
ag751
ag3228
ag2060
ag3231
ag2345
ag2881
ag2353
ag763
asg2702
(lp3681
g296
ag2261
ag1063
ag1106
ag3043
ag2264
ag210
ag317
a(S'concentrate'
p3682
S'concentrer'
p3683
tp3684
ag938
asg2433
(lp3685
g2840
ag2471
ag373
ag879
ag882
ag1630
ag2255
ag894
ag96
ag1543
asg577
(lp3686
g769
ag772
ag563
ag778
ag569
ag784
ag1554
ag790
ag793
ag781
asg1536
(lp3687
g1879
ag1386
ag3644
ag1383
ag2481
ag3646
ag179
ag90
ag1389
ag1380
asg2388
(lp3688
g8
ag2384
ag1285
ag107
ag2386
ag11
ag3274
ag110
ag2392
ag2395
asg634
(lp3689
(S'two'
p3690
S'deux'
p3691
tp3692
ag620
a(S'three'
p3693
S'trois'
p3694
tp3695
ag641
ag1699
ag629
ag955
ag958
ag2139
ag964
asg1881
(lp3696
g410
ag1377
ag1484
ag1884
ag2685
ag210
ag2484
ag3649
ag1896
ag1481
asg2698
(lp3697
g772
ag1464
ag3282
ag3012
ag3015
ag778
ag3018
ag3021
ag3024
ag3284
asg3506
(lp3698
g1481
ag1484
ag482
ag135
ag2685
ag1302
ag147
ag3649
ag159
ag3544
asg580
(lp3699
g3153
ag3024
ag778
ag3315
ag572
ag3536
ag2467
ag587
ag2596
ag2464
asg1867
(lp3700
g1847
ag1850
ag167
ag1853
ag207
ag1856
ag1859
ag1862
ag1865
ag219
asg789
(lp3701
g769
ag227
ag775
ag1496
ag1663
ag649
ag781
ag239
ag787
ag646
asg3262
(lp3702
g164
ag2840
ag72
ag75
ag78
ag84
ag87
ag90
ag2345
ag96
asg1912
(lp3703
(S'made'
p3704
g2203
tp3705
ag1197
ag227
ag775
ag1907
ag236
ag856
ag649
ag847
ag1919
asg2871
(lp3706
g2773
ag2840
ag502
ag72
ag347
ag2778
ag350
ag2780
ag2874
ag96
asg2877
(lp3707
g451
ag478
ag472
ag2518
ag2521
ag2530
ag2797
ag2524
ag606
ag609
asg2848
(lp3708
g2840
ag72
ag347
ag2843
ag2731
ag2846
ag84
ag2174
ag96
ag3252
asg3001
(lp3709
g3065
ag742
ag81
ag3067
ag3005
ag2184
ag3072
ag1174
ag2202
ag3075
asg2665
(lp3710
g2725
ag2713
ag3449
ag3452
ag3455
ag2710
ag3213
ag2716
ag2678
ag3461
asg456
(lp3711
g451
ag454
ag135
ag1484
ag460
ag463
ag466
ag147
ag913
ag478
asg2514
(lp3712
g3544
ag3547
ag1484
ag3550
ag3466
ag1487
ag2527
ag3553
ag3507
ag3556
asg1049
(lp3713
g2428
ag1815
ag2434
ag1929
ag1044
ag2909
ag2431
ag2443
ag894
ag903
asg3020
(lp3714
g3024
ag1464
ag3012
ag3189
ag778
ag3018
ag3282
ag3198
ag2808
ag3284
asg1729
(lp3715
g1712
ag1715
ag2358
ag1718
ag1512
ag1448
ag2074
ag1721
ag1727
ag938
asg925
(lp3716
g917
ag2696
ag923
ag929
ag566
ag584
ag1439
ag1454
ag1467
ag2217
asg599
(lp3717
g1442
ag2261
ag1106
ag2264
ag1439
ag317
a(S'soft'
p3718
g3488
tp3719
ag1467
ag1460
ag578
asg1079
(lp3720
g49
ag40
ag1089
ag1364
ag1083
ag1367
ag1370
ag3096
ag1098
ag61
asg730
(lp3721
g496
ag508
ag505
ag882
ag511
ag514
ag520
ag728
ag871
ag523
asS'plusieurs'
p3722
(lp3723
g451
ag1374
ag594
ag2193
ag2338
ag472
ag1893
ag591
a(S'mumbled'
p3724
g2494
tp3725
ag3045
asg1988
(lp3726
g40
ag43
ag46
ag49
ag233
ag55
ag1653
ag1619
ag61
ag64
asg1960
(lp3727
g3563
ag3566
ag3569
ag3572
ag3575
ag3578
ag1964
ag804
ag3581
ag3584
asg2220
(lp3728
g834
ag233
ag275
ag278
ag837
ag840
a(S'words'
p3729
g2577
tp3730
ag281
ag2580
ag2223
asg2715
(lp3731
g3446
ag2775
ag3449
ag3452
ag3455
ag2710
ag3213
ag3458
ag3461
ag903
asS'jordan'
p3732
(lp3733
g2000
ag2003
ag2006
ag2009
ag2012
a(S'lee'
p3734
g1996
tp3735
ag2015
ag399
ag2018
ag40
asg733
(lp3736
g2490
ag2854
ag2988
ag1056
ag2738
ag2136
ag3128
ag2863
ag737
ag720
asg3367
(lp3737
g3065
ag1531
ag1602
ag1537
ag173
ag520
ag87
ag1599
ag3069
ag2085
asg3095
(lp3738
g700
ag40
a(S'reading'
p3739
g1544
tp3740
ag61
ag2116
ag709
ag3404
ag446
ag1551
ag715
asg462
(lp3741
g451
ag3269
ag457
ag460
ag466
ag3469
ag475
a(S'darkness'
p3742
S'obscurit\xc3\xa9'
p3743
tp3744
ag1865
ag478
asg3227
(lp3745
g745
ag748
ag751
ag754
ag3231
ag3170
ag478
ag2881
ag760
ag763
asg3333
(lp3746
g3337
ag40
a(S'cupboard'
p3747
S'placard'
p3748
tp3749
a(S'james'
p3750
g3750
tp3751
ag3340
ag3343
ag3346
ag3352
ag61
a(S'lily'
p3752
g3752
tp3753
asg542
(lp3754
g2906
ag531
ag1818
ag3417
ag2675
ag1044
ag2257
ag2912
ag3380
ag1053
asg2302
(lp3755
g40
ag428
ag2689
ag2305
ag399
ag2149
ag673
ag3603
ag2119
ag2152
asg839
(lp3756
g1253
ag1675
ag40
ag3518
ag1874
ag3521
ag3349
ag3524
ag61
ag3428
asg2394
(lp3757
g8
ag2384
ag1285
ag107
ag2386
ag11
ag3274
ag110
ag2389
ag2392
asg2987
(lp3758
g2234
ag373
ag879
ag2780
ag2738
ag3477
ag2174
ag2327
ag2782
ag900
asg702
(lp3759
g712
ag40
ag1619
ag1989
ag49
ag706
ag393
ag1995
ag61
ag64
asg2011
(lp3760
g1948
ag40
ag2918
ag2920
ag49
ag1269
ag2015
ag1954
ag61
ag1957
asg2463
(lp3761
g3153
ag3024
ag230
ag1901
ag3189
ag778
ag3315
ag1910
ag1916
ag865
asg3577
(lp3762
g1675
ag40
ag49
ag55
ag840
ag1874
ag3664
ag3581
ag61
ag64
asg1704
(lp3763
g1690
ag1693
ag1139
ag1145
ag1696
ag1038
ag1288
ag1157
ag1142
ag3254
asg645
(lp3764
g658
ag1760
ag1657
ag1660
ag1765
ag3482
ag1666
ag661
ag1669
ag673
asg3351
(lp3765
g3337
a(S'tape'
p3766
S'bande'
p3767
tp3768
ag40
ag3749
ag3751
ag3343
ag3346
ag3521
ag61
ag3753
asg1399
(lp3769
g720
ag104
ag1941
ag2136
ag2139
ag734
ag124
ag737
ag127
ag1943
asg25
(lp3770
g5
ag1624
ag2471
ag1534
ag882
ag2991
ag1639
ag2174
ag523
ag1642
asg131
(lp3771
g1106
ag3106
ag141
ag485
ag1109
ag144
ag488
ag910
ag156
ag150
asg1558
(lp3772
g40
ag43
ag46
ag49
ag233
ag55
ag64
ag267
ag61
ag804
asg2260
(lp3773
g1564
ag40
a(S'keeping'
p3774
S'garde'
p3775
tp3776
ag236
ag572
ag2264
ag3719
ag1570
ag1576
ag61
asg10
(lp3777
g5
ag876
ag2386
ag17
ag2255
ag2764
ag2437
ag20
ag26
ag1935
asg175
(lp3778
g3644
ag3167
ag3138
ag191
ag1890
ag3466
ag2953
ag2373
ag1896
ag606
asg1366
(lp3779
g64
ag233
ag49
ag396
ag61
ag1370
ag3096
ag3404
ag715
ag40
asS'encore'
p3780
(lp3781
g2888
ag2891
ag101
ag2894
ag2897
ag2900
ag1426
a(S'vernon'
p3782
g3782
tp3783
a(S'ever'
p3784
S'jamais'
p3785
tp3786
ag3224
asS'\xc3\xa9cras\xc3\xa9'
p3787
(lp3788
g249
ag252
ag46
ag49
ag55
ag255
ag258
ag261
ag264
ag267
asg1337
(lp3789
g1355
ag3028
ag1346
ag3031
ag3034
ag3037
ag1047
ag1349
ag1352
ag3040
asg2195
(lp3790
g451
ag1484
ag2190
ag594
ag2193
ag2685
ag1890
ag2199
ag3649
ag1893
asg1486
(lp3791
g132
ag1481
ag1484
ag138
ag135
ag147
ag153
ag159
ag1304
ag3544
asg1641
(lp3792
g2547
ag1534
ag1627
ag882
ag1630
ag2255
ag2184
ag1639
ag1543
ag191
asS'sac'
p3793
(lp3794
g40
ag43
ag46
ag49
ag233
ag55
ag3386
ag1744
ag61
ag64
asg1575
(lp3795
g1564
ag1567
ag233
ag242
ag236
ag1570
ag64
ag1573
ag61
ag40
asg1852
(lp3796
g1847
ag1481
ag167
ag1484
ag204
ag207
ag1862
ag219
ag216
ag222
asg2092
(lp3797
g1397
ag3398
ag2090
ag1420
ag1412
ag2124
ag2127
ag2130
ag2096
ag2133
asg605
(lp3798
g454
ag678
ag681
ag413
ag594
ag687
ag684
ag690
ag693
ag696
asg1005
(lp3799
g2428
ag2246
ag3641
ag1627
ag2743
ag2991
ag3324
ag2440
ag1009
ag1053
asg992
(lp3800
g1292
ag837
ag978
ag40
ag1295
ag49
ag3634
ag1298
a(S'cart'
p3801
S'chariot'
p3802
tp3803
ag61
asg238
(lp3804
g646
ag1760
ag1657
ag40
ag1660
ag1663
ag661
ag49
ag61
ag673
asg3336
(lp3805
g252
ag49
ag3768
ag3749
ag817
ag3751
ag55
ag3343
ag64
ag3753
asg2822
(lp3806
g2023
ag731
ag2026
ag2029
ag2041
ag2032
ag3124
ag1012
ag2050
ag3599
asg672
(lp3807
g1200
ag428
ag1086
ag2402
ag2303
ag1660
ag2305
ag2399
ag2152
ag1657
asg3533
(lp3808
g1757
ag227
ag775
a(S'tea'
p3809
S'th\xc3\xa9'
p3810
tp3811
ag652
ag236
ag1913
ag847
a(S'section'
p3812
g1753
tp3813
ag787
asg2144
(lp3814
g531
ag2362
ag2365
ag11
ag2675
ag17
ag2993
ag20
ag1044
ag2368
asg1542
(lp3815
g1879
ag198
ag591
ag40
ag1386
ag2792
ag2338
ag2315
a(S'corridor'
p3816
g3616
tp3817
ag3045
asg200
(lp3818
g3180
ag296
ag1063
ag2335
ag1109
ag308
ag311
ag416
ag213
ag323
asg836
(lp3819
g55
ag40
ag46
ag49
ag834
ag840
ag843
ag264
ag61
ag64
asg3036
(lp3820
g1053
ag1041
ag3028
ag1044
ag2909
ag1047
ag2912
ag1349
ag1050
ag3031
asg1977
(lp3821
g1981
ag1983
ag1926
ag1932
ag104
ag2437
ag970
ag964
ag127
ag1943
asg977
(lp3822
g1292
ag837
ag40
ag1295
ag993
ag49
ag3634
ag1298
ag3803
ag61
asg725
(lp3823
g2228
ag1812
ag2743
ag2276
ag2319
ag1126
ag2740
ag871
ag517
ag2746
asg31
(lp3824
g3292
ag1139
ag1145
ag26
ag3295
ag1157
ag1142
ag3298
ag3128
ag1015
asg433
(lp3825
g1619
ag40
ag703
ag1989
ag3236
ag706
ag393
ag1995
a(S'control'
p3826
S'contr\xc3\xb4le'
p3827
tp3828
ag712
asg2245
(lp3829
g2228
ag2231
ag3005
ag2234
ag2237
ag1123
ag2240
ag2324
ag1132
ag2243
asS'favori'
p3830
(lp3831
g249
ag252
ag46
ag49
ag55
ag255
ag258
ag261
ag264
ag267
asg1677
(lp3832
(S'hospital'
p3833
S'h\xc3\xb4pital'
p3834
tp3835
ag2645
ag817
ag249
ag46
ag49
ag55
ag264
ag829
ag64
asg1170
(lp3836
g164
ag1590
ag1593
ag173
ag191
ag1162
ag2292
ag2165
ag1605
ag1174
asg1906
(lp3837
g1197
ag649
ag1200
ag1086
ag49
ag242
ag673
ag64
ag61
ag40
asg2129
(lp3838
g1397
ag3398
ag2090
ag1420
ag1412
ag2093
ag2124
ag2127
ag2096
ag2133
asg651
(lp3839
g1757
ag658
ag1760
ag1763
ag1660
ag1765
ag655
ag1768
ag670
ag3813
asg3691
(lp3840
g955
ag620
ag3695
ag641
ag3028
ag3031
ag635
ag3037
ag2139
ag964
asg1665
(lp3841
g40
ag49
ag3248
ag437
ag1669
ag443
ag3603
ag1768
ag61
ag64
asg1323
(lp3842
g40
ag49
ag1961
ag1964
ag1330
ag1967
ag1970
ag1973
ag61
ag804
asg2002
(lp3843
g40
ag2006
ag2918
ag2920
ag2009
ag2012
ag2015
ag2018
a(S'wrapped'
p3844
S'envelopp\xc3\xa9'
p3845
tp3846
ag61
asg3752
(lp3847
g814
ag49
ag3768
ag46
ag3751
ag252
ag55
ag261
ag264
ag64
asg1966
(lp3848
g233
ag40
ag49
ag1961
ag1964
ag1970
ag64
ag1973
ag61
ag804
asg1447
(lp3849
g2074
ag2358
ag3012
ag3015
ag572
ag3021
ag772
ag2699
ag1464
ag581
asg533
(lp3850
g1003
ag1006
ag1012
ag537
ag540
ag546
ag1009
ag549
ag552
ag1015
asg2688
(lp3851
g700
ag40
ag428
ag3740
ag2116
ag709
ag3096
ag446
ag1551
ag61
asg2095
(lp3852
g720
ag1285
ag2090
ag11
ag1420
ag2145
ag2857
ag339
ag20
ag734
asg95
(lp3853
g69
ag2840
ag72
ag90
ag78
ag81
ag84
ag87
ag362
ag93
asg2168
(lp3854
g2171
ag373
ag353
ag3365
ag2761
ag359
ag376
a(S'ice'
p3855
g2931
tp3856
ag2471
ag2950
asg3179
(lp3857
(S'dreams'
p3858
g282
tp3859
ag230
ag3776
ag1576
ag778
ag2211
ag3156
ag2596
ag2214
ag2217
asg2978
(lp3860
g2836
ag2973
ag40
ag1951
ag2012
ag61
ag1954
ag1957
ag1948
ag2984
asg1889
(lp3861
g451
ag2373
ag3138
ag2953
ag2484
ag1884
ag1893
ag2376
ag1896
ag594
asg3827
(lp3862
g40
ag43
ag46
ag49
ag233
ag55
ag64
ag267
ag61
ag804
asg2612
(lp3863
g2601
ag2604
ag2607
ag330
ag3497
ag3500
ag2610
ag2897
ag2672
ag2616
asg80
(lp3864
g742
ag745
ag751
ag757
ag2184
ag1380
ag2350
ag188
ag2054
ag763
asg1530
(lp3865
g2515
ag2518
ag3550
ag3069
ag2524
ag188
ag2533
ag2085
ag2530
ag2527
asg2422
(lp3866
g1439
ag1442
ag1448
ag3473
ag1445
ag314
ag2420
ag1451
ag1454
ag1460
asg1638
(lp3867
g1581
ag1584
ag1587
a(S'fixed'
p3868
g3503
tp3869
ag78
ag1630
ag1599
ag1602
ag1543
ag1608
asg1717
(lp3870
g2074
ag2358
ag3012
ag3015
ag1448
ag3021
ag772
ag2699
ag1721
ag938
asg858
(lp3871
g1309
ag658
ag1760
ag1200
ag1086
ag1765
ag3482
ag1669
ag2162
ag670
asg301
(lp3872
g2208
ag563
ag2214
ag566
ag311
ag299
ag1473
ag1839
ag323
ag3183
asg3393
(lp3873
g314
ag2498
ag147
ag135
ag3372
ag2338
ag597
ag213
ag913
ag3817
asg3134
(lp3874
g40
ag272
ag43
ag46
ag49
ag55
ag58
ag2223
ag61
ag64
asg2183
(lp3875
g742
ag745
ag2541
ag757
ag751
ag2350
ag188
ag2054
ag760
ag763
asg22
(lp3876
g2773
ag2728
ag2759
ag2778
ag2731
ag2846
ag3252
ag2849
ag2767
ag29
asg1595
(lp3877
g1581
ag1871
ag1587
ag2925
ag1856
ag2927
ag2930
ag1868
ag1608
ag1850
asg83
(lp3878
g1531
ag1374
ag75
ag78
ag3372
ag87
ag90
ag3394
ag3817
ag1392
asg586
(lp3879
g3153
ag3024
ag1901
ag1916
ag778
ag3315
ag572
ag3536
ag2596
ag292
asg3049
(lp3880
g40
ag43
ag46
ag49
ag233
ag55
ag3084
ag804
ag61
ag64
asg1274
(lp3881
g1650
ag49
ag2662
a(S'dive'
p3882
S'plongeon'
p3883
tp3884
ag233
ag55
ag1747
ag64
ag61
ag40
asg1797
(lp3885
g1780
ag1783
ag1786
ag2297
ag2300
ag1795
ag1801
ag1804
ag1807
ag2308
asg1612
(lp3886
g1650
ag1616
ag2662
ag1619
ag2963
ag2966
ag1653
ag2960
ag1275
ag2968
asg3423
(lp3887
g40
ag43
ag46
ag49
ag55
ag1678
ag264
ag267
ag61
ag64
asS'points'
p3888
(lp3889
g1335
ag3040
a(S'four'
p3890
S'quatre'
p3891
tp3892
ag2142
ag1338
ag1341
a(S'hundred'
p3893
S'cent'
p3894
tp3895
a(S'twelve'
p3896
S'douze'
p3897
tp3898
ag1355
ag1360
asg1161
(lp3899
g164
ag344
ag2878
ag1168
ag176
ag2547
ag1165
ag173
ag1171
ag191
asg235
(lp3900
g1757
ag2268
ag3811
ag652
ag2749
ag859
ag862
ag847
ag3813
ag2271
asg849
(lp3901
g646
ag2268
ag3201
ag236
ag3258
ag859
ag289
ag862
ag847
ag2271
asg3235
(lp3902
g40
ag43
ag46
ag49
ag233
ag55
a(S'whistle'
p3903
g797
tp3904
ag3828
ag61
ag64
asg381
(lp3905
g3269
ag2878
ag2057
ag2060
ag1165
ag379
ag469
ag2063
ag2054
ag385
asg3743
(lp3906
g681
ag3547
ag687
ag696
ag3646
ag690
ag1865
ag693
ag606
ag3556
asg3802
(lp3907
g3334
ag55
ag40
ag49
ag3340
ag3634
ag3349
ag3352
ag61
ag64
asg149
(lp3908
g1106
ag3106
ag3473
ag141
ag144
ag314
ag1839
ag2423
ag156
ag302
asS'diff\xc3\xa9rent'
p3909
(lp3910
g249
ag252
ag46
ag49
ag55
ag255
ag258
ag261
ag264
ag267
asg2084
(lp3911
g3556
ag1531
ag3547
ag2515
ag3550
ag3466
ag3069
ag188
ag2533
ag2527
asg3039
(lp3912
g1041
ag1338
ag3028
ag3031
ag3034
ag2786
ag3037
ag1047
ag1349
ag1044
asg3310
(lp3913
(S'realize'
p3914
S'r\xc3\xa9aliser'
p3915
tp3916
ag40
ag46
ag1502
ag49
ag55
ag58
ag1508
ag61
ag64
asg3583
(lp3917
g3563
ag3566
ag61
ag3569
ag840
ag3664
ag3575
ag3578
ag3581
ag40
asg1695
(lp3918
g5
ag1038
ag882
ag888
ag26
ag2991
ag3324
ag894
ag3213
ag1642
asg2014
(lp3919
g233
ag40
ag2918
ag2920
ag49
ag1269
ag55
ag46
ag61
ag64
asg288
(lp3920
g646
ag1760
ag664
ag652
ag236
ag3482
ag3258
ag859
ag670
ag847
asg2899
(lp3921
g2888
ag101
ag2891
ag2894
ag2897
ag1031
ag127
ag2857
ag1938
ag3224
asg677
(lp3922
g920
ag926
ag929
ag413
ag932
ag684
ag910
ag407
ag935
ag941
asg1526
(lp3923
g2696
ag560
ag572
ag1178
ag1448
ag3536
ag581
ag587
ag2596
ag3360
asg3457
(lp3924
g3446
ag2556
ag2775
ag2571
ag2659
ag3452
ag2568
ag3455
ag2562
ag2565
asg3064
(lp3925
g1531
ag3067
ag3869
ag2190
ag2196
ag2199
ag3069
ag2878
ag2085
ag2202
asg2763
(lp3926
g2171
ag72
ag876
ag2473
ag2872
ag882
ag1162
ag2437
ag1171
ag1174
asg3465
(lp3927
g1481
ag3544
ag3547
ag1484
ag138
ag3550
ag1487
ag159
ag3553
ag3556
asg2995
(lp3928
g2840
ag373
ag72
ag879
ag882
ag2988
ag1829
ag2991
ag1826
ag96
asS'trop'
p3929
(lp3930
g3055
ag885
ag2319
ag3302
ag14
ag3305
ag3058
ag3641
ag3061
ag2279
asg3348
(lp3931
g808
ag3337
ag40
ag3518
ag3343
ag3346
ag3521
ag3428
ag61
ag3524
asg1994
(lp3932
g1735
ag1986
ag40
ag49
ag1744
ag1741
ag1653
ag1738
ag61
ag64
asg1480
(lp3933
g132
ag135
ag138
ag482
ag1302
ag144
ag147
ag153
ag159
ag1304
asg3562
(lp3934
g1675
ag40
ag49
ag840
ag1874
ag3664
ag3581
ag3578
ag61
ag64
asg705
(lp3935
g1995
ag40
ag1989
ag49
ag1548
ag1653
a(S'slipped'
p3936
S'gliss\xc3\xa9'
p3937
tp3938
ag1619
ag61
ag64
asS'ha'
p3939
(lp3940
g40
ag43
ag46
ag49
ag55
ag58
ag264
ag267
ag61
ag64
asg1607
(lp3941
g1581
ag1871
ag1587
ag2925
ag1596
ag1856
ag2927
ag2930
ag1868
ag1850
asg1199
(lp3942
g40
ag3100
ag2399
ag2402
a(S'taking'
p3943
g3400
tp3944
ag2508
ag3404
ag1098
ag61
ag3102
asg3197
(lp3945
g1904
ag289
ag1789
ag3201
ag3195
ag850
ag3162
ag3258
ag3192
ag3357
asg1539
(lp3946
g451
ag3269
ag457
ag3167
ag2538
ag463
ag2057
ag475
ag466
ag478
asS'deviner'
p3947
(lp3948
g249
ag252
ag46
ag49
ag55
ag255
ag258
ag261
ag264
ag267
asg660
(lp3949
g49
ag1657
ag40
ag1660
a(S'birthday'
p3950
g3076
tp3951
ag655
ag673
ag2623
ag61
ag64
asg1886
(lp3952
g1103
ag1106
ag1882
ag1884
ag135
ag147
ag179
ag1893
ag1896
ag478
asg51
(lp3953
g40
ag43
ag46
ag49
ag55
ag1678
ag264
ag267
ag61
ag64
asg3379
(lp3954
g1812
ag2319
ag1818
ag511
ag2257
ag871
ag1126
ag2912
ag531
ag2746
asg468
(lp3955
g591
ag201
a(S'written'
p3956
g1099
tp3957
ag2703
ag210
ag314
ag597
ag213
ag3684
ag1389
asg1119
(lp3958
g370
ag1593
ag1590
ag356
ag2565
ag2292
ag1540
ag379
ag2177
ag93
asg215
(lp3959
g195
ag1236
ag296
ag305
ag308
ag1242
ag1245
ag1072
ag1066
ag1248
asg683
(lp3960
g917
ag920
ag923
ag926
ag929
ag413
ag932
ag407
ag935
ag941
asg1604
(lp3961
g1581
ag1584
ag1587
ag2925
ag1596
ag1599
ag1602
ag2927
ag2930
ag1608
asg2962
(lp3962
g2960
ag1321
ag1318
ag1324
ag2966
ag1327
ag1330
ag49
ag61
ag40
asg2990
(lp3963
g2169
ag2471
ag353
ag1627
ag3365
ag3324
ag2935
ag2956
ag3856
ag2950
asS'comprim\xc3\xa9'
p3964
(lp3965
g249
ag252
ag46
ag49
ag55
ag255
ag258
ag261
ag264
ag267
asg1698
(lp3966
g1690
ag1693
ag1696
ag1038
ag1288
ag891
ag958
ag1705
ag897
ag3254
asg1956
(lp3967
g2960
ag1318
ag40
ag2963
ag49
ag2966
ag1327
ag2968
ag61
ag64
asg3589
(lp3968
g1060
ag1512
ag1515
ag2208
ag1069
ag2211
ag578
ag1524
ag1075
ag1842
asg699
(lp3969
g40
ag703
ag1989
ag706
ag3740
ag393
ag709
ag712
ag1551
ag61
asg1164
(lp3970
g451
ag2797
ag472
ag2878
ag2312
ag609
ag2315
ag3744
ag606
ag478
asg2737
(lp3971
g2234
ag505
ag2988
ag2276
ag2319
ag1126
ag3477
ag871
ag517
ag2327
asg163
(lp3972
g2544
ag3644
ag3167
ag173
ag176
ag2550
ag2315
ag2953
ag191
ag3469
asg1433
(lp3973
g2820
ag1978
ag3679
ag104
ag1926
ag2035
ag1932
ag2047
ag2038
ag1943
asg2905
(lp3974
g2756
ag2169
ag723
ag1633
ag511
ag885
ag2761
ag2289
ag1624
ag2767
asg1972
(lp3975
g3569
ag3563
ag3572
ag3566
ag1961
ag1964
ag3575
ag1970
ag804
ag3584
asg2975
(lp3976
g2836
ag2973
ag40
ag2979
ag1951
ag1948
ag2012
ag1954
ag2982
ag2984
asg1055
(lp3977
g3055
ag2276
ag2319
ag3302
ag14
ag3305
ag3058
ag3641
ag3061
a(S'too'
p3978
g3929
tp3979
asg1040
(lp3980
g1812
ag1815
ag1044
ag2255
ag2909
ag2476
ag1047
ag1050
ag1645
ag903
asg1173
(lp3981
g3065
ag164
ag3067
ag2190
ag173
ag176
ag2196
ag191
ag2202
ag3075
asg1947
(lp3982
g1613
ag233
ag40
ag49
ag2966
ag1954
ag64
ag2968
ag61
ag1957
asg481
(lp3983
g132
ag3180
ag3106
ag135
ag485
ag1109
ag308
ag299
ag488
ag491
asg2828
(lp3984
g2818
ag2820
ag2823
ag2026
ag333
ag2826
ag2041
ag3124
ag1431
ag2050
asg574
(lp3985
g2693
ag2696
ag1554
ag560
ag563
ag569
ag784
ag772
ag3660
ag584
asg1196
(lp3986
g1200
ag40
ag1086
ag49
ag2402
ag2399
ag673
ag61
a(S'coat'
p3987
S'manteau'
p3988
tp3989
ag1669
asg490
(lp3990
g132
ag907
ag3106
ag3473
ag485
ag1109
ag314
ag488
ag910
ag2423
asg3033
(lp3991
g1041
ag1338
ag1044
ag3028
ag3031
ag2786
ag3037
ag1047
ag1349
ag3040
asg254
(lp3992
g249
ag252
ag46
ag49
ag55
ag255
ag258
ag261
ag264
ag267
asg1204
(lp3993
g2840
ag2234
ag885
ag2493
ag2322
ag2740
ag2327
ag96
ag3008
ag1232
asg501
(lp3994
g72
ag347
ag75
ag350
ag2780
ag2874
ag359
ag362
ag2872
ag365
asg714
(lp3995
g1986
ag2662
ag40
ag3144
ag49
ag1275
ag1992
a(S'problem'
p3996
g3141
tp3997
ag61
ag64
asg313
(lp3998
g1445
ag1442
ag302
ag311
ag299
ag2420
ag1454
ag1460
ag320
ag323
asg3663
(lp3999
g1675
ag40
ag49
ag948
ag55
ag1874
ag1678
ag1681
ag61
ag64
asg2629
(lp4000
g252
ag49
ag3288
ag46
ag2639
ag55
ag261
ag264
ag267
ag64
asg504
(lp4001
g2840
ag72
ag2872
ag3263
ag520
ag84
ag2476
ag87
ag96
ag3008
asg155
(lp4002
g917
ag2208
ag1060
ag1106
ag3106
ag302
ag1445
ag1839
ag1075
ag3183
asg118
(lp4003
g1139
ag1145
ag122
ag1148
ag1151
ag1154
ag1157
ag1142
ag32
ag1015
asg3011
(lp4004
g3024
ag1464
ag3189
ag778
ag3018
ag3195
ag3282
ag3198
ag2808
ag3284
asg2056
(lp4005
g451
ag3269
ag457
ag463
ag466
ag469
ag475
ag3725
a(S'several'
p4006
g3722
tp4007
ag478
asg2943
(lp4008
g2938
ag2373
ag3138
ag1890
ag2484
ag3466
ag2953
ag2376
ag1896
ag594
asS'montagne'
p4009
(lp4010
g40
ag43
ag46
ag49
ag55
ag1678
ag264
ag267
ag61
ag64
asS'tigr\xc3\xa9'
p4011
(lp4012
g249
ag252
ag46
ag49
ag55
ag255
ag258
ag261
ag264
ag267
asg427
(lp4013
g390
ag399
ag431
ag396
ag437
ag440
ag2116
ag2149
ag3096
ag2119
asg1082
(lp4014
g1309
ag1080
ag1763
ag1089
ag1364
ag1765
ag1367
ag1370
ag3096
ag1098
asg1740
(lp4015
g40
ag1738
ag49
ag55
ag1744
ag1747
ag64
ag1750
ag61
ag233
asg3169
(lp4016
g410
ag1377
ag201
ag3619
ag2335
ag2338
ag2481
ag2484
ag2341
ag3045
asg304
(lp4017
g1178
ag1236
ag1239
ag1518
ag1066
ag311
ag1448
ag1527
ag1072
ag308
asS'perceuses'
p4018
(lp4019
g249
ag252
ag46
ag49
ag55
ag255
ag258
ag261
ag264
ag267
asg3007
(lp4020
g370
ag69
ag2840
ag72
ag81
ag520
ag84
ag362
ag93
ag96
asg409
(lp4021
g407
ag920
ag296
ag1106
ag416
ag210
ag935
ag600
ag156
ag941
asS'arrach\xc3\xa9'
p4022
(lp4023
g49
ag40
ag275
ag278
ag1775
ag61
ag64
ag281
ag2221
ag2223
asS'sec'
p4024
(lp4025
(S'pointed'
p4026
S'pointu'
p4027
tp4028
ag3090
ag40
ag428
ag2689
ag3093
ag2868
a(S'hat'
p4029
S'chapeau'
p4030
tp4031
a(S'plastic'
p4032
g3086
tp4033
ag3096
asg3092
(lp4034
g700
ag3090
ag40
ag428
ag2689
ag3740
ag2116
ag3096
ag446
ag1551
asg1838
(lp4035
g3512
a(S'lady'
p4036
g3312
tp4037
ag1442
ag302
ag1836
ag2208
ag3156
ag1473
ag3183
ag1842
asg1918
(lp4038
g3705
ag1197
ag853
ag646
ag775
ag1663
ag1907
ag1666
ag856
ag649
asg375
(lp4039
g81
ag2054
ag1537
ag2184
ag87
ag379
ag90
ag2063
ag382
ag385
asg1756
(lp4040
g49
ag1760
ag40
ag1763
ag1660
ag1765
ag61
ag1768
ag3813
ag64
asg2321
(lp4041
g2234
ag508
ag1627
ag2452
ag2731
ag2740
ag3477
ag2723
ag2327
ag1645
asg1354
(lp4042
g1335
ag1338
ag1344
ag1346
ag3031
ag2145
ag1349
ag1352
ag1358
ag1360
asg285
(lp4043
g658
ag1760
ag233
ag40
ag43
ag46
ag49
ag242
ag61
ag64
asg937
(lp4044
g2693
ag923
ag2358
ag1718
ag3015
ag1448
ag2074
ag2699
ag1721
ag575
asg640
(lp4045
g720
ag620
ag1699
ag737
ag2136
ag2139
ag958
ag734
ag1941
ag964
asg442
(lp4046
g390
ag399
ag431
ag396
ag437
ag440
ag434
ag402
ag446
ag2119
asg722
(lp4047
g1624
ag373
ag1534
ag1633
ag885
ag2780
ag2289
ag2174
ag2782
ag900
asg1785
(lp4048
g1783
ag2297
ag428
ag2300
ag2303
ag2305
ag2149
ag673
ag2308
ag2152
asg3468
(lp4049
g681
ag3547
ag687
ag696
ag3646
ag690
ag3744
ag1865
ag606
ag3556
asg3580
(lp4050
g1675
ag40
ag46
ag49
ag55
ag1874
ag3664
ag264
ag61
ag64
asg2372
(lp4051
g2332
ag413
ag932
ag684
ag2335
ag920
ag407
ag935
ag2376
ag941
asS'manqu\xc3\xa9'
p4052
(lp4053
g40
ag43
ag46
ag49
a(S'knuts'
p4054
g2997
tp4055
ag55
ag264
ag267
ag61
ag64
asg807
(lp4056
g811
ag814
ag817
ag49
ag820
ag823
ag826
ag829
ag61
ag64
asg750
(lp4057
g1377
ag1882
ag3045
ag754
ag2338
ag2481
ag2484
ag3170
ag760
ag478
asg3611
(lp4058
g339
ag101
ag104
ag1926
ag1148
ag1285
ag116
ag543
ag2860
ag1226
asg1147
(lp4059
g1139
ag1145
ag1154
ag1157
ag1142
ag2860
ag3298
ag2863
ag32
ag1015
asg307
(lp4060
g3180
ag1178
ag1239
ag1518
ag1066
ag311
ag1448
ag581
ag1072
ag1527
asg1720
(lp4061
g2696
ag2074
ag2358
ag3012
ag3015
ag1448
ag3021
ag772
ag2699
ag1464
asg2037
(lp4062
g2023
ag3679
ag2823
ag2026
ag2029
ag2032
ag2035
ag2044
ag2047
ag2050
asg669
(lp4063
g658
ag40
ag1763
ag49
ag2405
ag655
ag3050
ag2162
ag2625
ag61
asg2972
(lp4064
g2836
ag49
ag40
ag1951
ag1948
ag1954
ag64
ag2984
ag61
ag1957
asg995
(lp4065
g975
ag1292
ag978
ag40
ag1295
ag993
ag984
ag1298
ag999
ag61
asg2489
(lp4066
g1205
ag2854
ag2988
ag2493
ag2322
ag2740
ag2738
ag3477
ag2863
ag1232
asg1483
(lp4067
g1481
ag153
ag138
ag482
ag2685
ag1302
ag147
ag3649
ag159
ag1304
asg3499
(lp4068
g2604
ag2669
ag2607
ag2672
ag2707
ag952
ag20
ag2678
ag2681
ag967
asg1125
(lp4069
g2181
ag81
ag1135
ag1117
ag517
ag520
ag2184
ag3368
ag3008
ag376
asg771
(lp4070
g1554
ag1464
ag3012
ag778
ag3018
ag781
ag784
ag3024
ag790
ag793
asg3775
(lp4071
g3859
ag233
ag40
ag1564
ag236
ag1570
ag64
ag242
ag61
ag292
asg1030
(lp4072
g5
ag876
ag330
ag2759
ag11
ag2764
ag891
ag2437
ag20
ag1935
asg3123
(lp4073
g496
ag728
ag2023
ag2746
ag726
ag2257
ag2041
ag731
ag1012
ag3599
asg2123
(lp4074
g3979
ag720
ag1932
ag14
ag113
ag2857
ag3128
ag2133
ag734
ag1056
asg1252
(lp4075
g808
ag49
ag1256
ag40
ag3518
ag55
ag3521
ag64
ag61
ag3524
asg42
(lp4076
g249
ag252
ag46
ag49
ag55
ag258
ag261
ag264
ag267
ag64
asg2867
(lp4077
g700
ag3090
ag40
ag428
ag2689
ag3093
ag4033
ag2116
ag3096
ag446
asg1167
(lp4078
g451
ag1531
ag2315
ag344
ag2878
ag2312
ag1165
ag478
ag2797
ag609
asS'agr\xc3\xa9able'
p4079
(lp4080
g40
ag43
ag46
ag49
ag2576
ag233
ag55
ag804
ag61
ag64
asg516
(lp4081
g2181
ag742
ag81
ag1135
ag1117
ag1126
ag2184
ag376
ag362
ag2054
asg1294
(lp4082
g1292
ag834
ag49
ag40
a(S'nicholas'
p4083
g1920
tp4084
a(S'high'
p4085
S'\xc3\xa9lev\xc3\xa9'
p4086
tp4087
ag3634
ag52
ag3803
ag61
asg1759
(lp4088
g1309
ag658
ag1763
ag1660
ag1765
ag3482
ag1669
ag2162
ag3603
ag1768
asg3523
(lp4089
g808
ag814
ag40
ag49
ag823
ag3521
ag826
ag829
ag61
ag64
asg1711
(lp4090
g2074
ag2358
ag3012
ag1718
ag3015
ag1448
ag3021
ag2699
ag1721
ag938
asg3448
(lp4091
g3446
ag2775
ag2568
ag3452
ag3455
ag3213
ag2716
ag3458
ag3461
ag903
asg2632
(lp4092
g249
ag252
ag46
ag49
ag55
ag258
ag261
ag264
ag267
ag64
asg2799
(lp4093
g591
ag1484
ag3957
ag2685
ag472
ag469
ag3684
ag1389
ag606
ag2530
asg2523
(lp4094
g2332
ag40
ag2193
ag2518
ag2521
ag236
ag61
ag472
ag2530
ag64
asg3546
(lp4095
g1481
ag3544
ag1484
ag687
ag606
ag3646
ag1487
ag3556
ag3553
ag3466
asg3166
(lp4096
g296
ag201
ag3619
ag2335
ag485
ag2338
ag597
ag213
ag3684
ag1389
asS'dumbledore'
p4097
(lp4098
g2820
ag3206
ag549
ag3209
ag3417
ag3412
a(S'yes'
p4099
g3484
tp4100
ag543
ag124
ag1358
asg3883
(lp4101
g40
ag43
ag46
ag49
ag233
ag55
ag64
ag267
ag61
ag804
asg3782
(lp4102
g2888
ag2891
ag2894
ag2897
ag2900
a(S'yet'
p4103
g3780
tp4104
ag1426
ag2096
ag3786
ag3224
asg1219
(lp4105
g1205
ag1208
ag1211
ag2490
ag1214
ag2493
ag2322
ag2740
ag1223
ag1232
asg1980
(lp4106
g1978
ag1400
ag1983
ag1926
ag1148
ag1932
ag104
ag964
ag127
ag1943
asg2439
(lp4107
g2169
ag2471
ag1114
ag1627
ag2743
ag885
ag2991
ag3324
ag1624
ag1009
asg2391
(lp4108
g8
ag2384
ag1285
ag107
ag2386
ag11
ag3274
ag110
ag2389
ag2395
asg2331
(lp4109
g2693
ag3859
ag40
ag1476
ag1457
ag236
ag2208
ag2211
ag1467
ag2214
asg1900
(lp4110
g3705
ag1904
ag649
ag1910
ag850
ag853
ag859
ag775
ag670
ag865
asg1835
(lp4111
g3512
ag3153
ag1564
ag3159
ag3536
ag3156
ag1570
ag1576
ag787
ag292
asg2411
(lp4112
g2231
ag2415
ag1120
ag2276
ag2289
ag2455
ag2292
ag1171
ag2282
ag2285
asg2564
(lp4113
g170
ag2556
ag2559
ag2348
ag2571
ag2345
ag2562
ag362
ag2353
ag2950
asg2311
(lp4114
g591
ag1481
ag1484
ag138
ag1487
ag153
ag159
ag1304
ag3553
ag3544
asg2101
(lp4115
g1613
ag2105
ag1616
ag40
ag49
ag2111
ag393
ag2113
ag61
ag64
asg140
(lp4116
g1060
ag1106
ag3106
ag302
ag144
ag932
ag150
ag1839
ag156
ag3183
asg2622
(lp4117
g40
ag43
ag46
ag49
ag233
ag55
ag64
ag267
ag61
ag804
asg248
(lp4118
g249
ag252
ag46
ag49
ag55
ag255
ag258
ag261
ag264
ag267
asg957
(lp4119
g1038
ag723
ag2759
ag900
ag2988
ag1929
ag891
ag897
ag2767
ag961
asg1632
(lp4120
g1374
ag167
ag1534
ag2792
ag2338
ag1636
ag1380
ag3725
ag1896
ag606
asg2766
(lp4121
g2756
ag2773
ag2169
ag502
ag499
ag2759
ag2778
ag2872
ag2761
ag2780
asg384
(lp4122
g3394
ag3269
ag3817
ag2057
ag2060
ag379
ag469
ag2063
ag2054
ag3372
asg919
(lp4123
g917
ag1178
ag923
ag926
ag929
ag932
ag566
ag1439
ag1454
ag1467
asg1105
(lp4124
g1060
ag302
ag2208
ag299
ag3218
ag1842
ag1839
ag1103
ag1075
ag3183
asg218
(lp4125
g195
ag1236
ag207
ag210
ag1242
ag1245
ag216
ag204
ag222
ag1248
asg178
(lp4126
g1879
ag198
ag1377
ag167
ag1882
ag1884
ag201
ag1893
ag182
ag1896
asg355
(lp4127
g3269
ag353
ag2538
ag463
ag2057
ag457
ag1540
ag379
ag475
ag1392
asg1668
(lp4128
g1309
ag658
a(g3732
g3732
tp4129
ag3735
ag242
ag437
ag2162
ag443
ag1765
ag3989
asg2236
(lp4130
g2228
ag2231
ag2234
ag2415
ag1123
ag2240
ag2324
ag1132
ag2243
ag2246
asg2540
(lp4131
g210
ag410
ag1882
ag3646
ag1884
ag1890
ag2484
ag1893
ag1389
ag1896
asg551
(lp4132
g1003
ag1006
ag1012
ag534
ag537
ag540
ag546
ag1009
ag549
ag1015
asg1903
(lp4133
g3201
ag859
ag3195
ag236
ag850
ag3162
ag3258
ag3192
ag289
ag847
asg2270
(lp4134
g2502
ag2157
ag2159
ag2268
ag1364
ag443
ag399
ag2162
ag2505
ag2749
asg1459
(lp4135
g1439
ag2696
ag1442
ag1470
ag1445
ag1448
ag1451
ag1454
ag1457
ag1476
asg2398
(lp4136
g804
ag40
ag43
ag46
ag49
ag233
ag55
ag3404
ag61
ag64
asg277
(lp4137
g40
ag43
ag46
ag49
ag55
ag264
ag281
ag3424
ag61
ag64
asg545
(lp4138
g1003
ag2428
ag1006
ag2743
ag1929
ag3324
ag2440
ag1009
ag1053
ag1012
asg1892
(lp4139
g451
ag410
ag1884
ag594
ag2193
ag210
ag2338
ag2341
ag3116
ag3045
asg1811
(lp4140
g502
ag1627
ag511
ag2780
ag1630
ag2255
ag1639
ag1543
ag1642
ag1645
asg568
(lp4141
g769
ag772
ag563
ag778
ag781
ag784
ag1554
ag787
ag790
ag793
asg2151
(lp4142
g428
ag3100
ag390
ag393
ag396
ag402
ag399
ag2149
ag3102
ag2119
asg3014
(lp4143
g772
ag1464
ag3282
ag3012
ag778
ag3018
ag3021
ag3024
ag2699
ag3284
asg465
(lp4144
g451
ag454
ag135
ag1484
ag132
ag460
ag147
ag457
ag913
ag478
asg1405
(lp4145
g528
ag1409
ag11
ag113
ag20
ag3124
ag23
ag124
ag29
ag127
asg3894
(lp4146
g1335
ag3892
ag2142
ag1338
ag1341
ag3034
ag1349
ag3898
ag2786
ag3040
asg1931
(lp4147
g720
ag2764
ag2437
ag2124
ag2857
ag3128
ag2133
ag734
ag1056
ag1943
asg1517
(lp4148
g1178
ag1239
ag572
ag1512
ag1515
ag1448
ag1521
ag581
ag1524
ag1527
asg77
(lp4149
g1531
ag2544
ag3869
ag75
ag463
ag2547
ag2550
ag87
ag90
ag3469
asg2677
(lp4150
g2666
ag3213
ag2720
ag2669
ag3449
ag2707
ag2710
ag2713
ag2716
ag2681
asg436
(lp4151
g700
ag703
ag390
ag396
ag431
ag402
ag440
ag434
ag712
ag446
asg3574
(lp4152
g1675
ag3563
ag49
ag840
ag1874
ag3664
ag3581
ag3578
ag61
ag40
asg2908
(lp4153
g2428
ag1815
ag2434
ag1929
ag2431
ag1645
ag2443
ag1050
ag894
ag903
asg1915
(lp4154
g3705
ag1901
ag1904
ag1910
ag850
ag853
ag3315
ag1913
ag865
ag1919
asg947
(lp4155
g252
ag49
ag43
ag46
ag817
ag945
ag55
ag424
ag264
ag64
asg1878
(lp4156
g1106
ag314
ag3473
ag147
ag2420
ag150
ag1460
ag491
ag2423
ag3116
asg628
(lp4157
g617
ag1690
ag1693
ag1699
ag1038
ag958
ag1705
ag897
ag3254
ag964
asg2558
(lp4158
g745
ag170
ag3228
ag2060
ag3231
ag2345
ag2348
ag2881
ag2353
ag763
asg1351
(lp4159
g1338
ag3028
ag1344
ag1346
ag3031
ag3034
ag3037
ag1047
ag1349
ag1053
asg1841
(lp4160
g3512
ag3153
ag1564
ag1836
ag3159
ag3536
ag3156
ag587
ag1576
ag292
asg1131
(lp4161
g3065
ag370
ag3002
ag1120
ag3005
ag356
ag3072
ag93
ag1174
ag3075
asg349
(lp4162
g1531
ag3269
ag75
ag1896
ag359
ag609
ag362
ag2085
ag478
ag365
asg602
(lp4163
g2332
ag1442
ag2261
ag2264
ag236
ag317
ag3719
ag600
ag61
ag40
asg1379
(lp4164
g1879
ag1386
ag3646
ag1383
ag2792
ag3644
ag2481
ag2795
ag472
ag1389
asg1523
(lp4165
g3153
ag2467
ag2358
ag1512
ag778
ag1521
ag581
ag1515
ag587
ag2464
asg1701
(lp4166
g2906
ag723
ag885
ag350
ag511
ag517
ag2289
ag871
ag1126
ag2174
asg3208
(lp4167
g2820
ag1335
ag3412
ag614
ag534
ag552
ag537
ag540
ag549
ag1358
asg378
(lp4168
g3269
ag2538
ag463
ag2057
ag2060
ag1540
ag475
ag2063
ag2054
ag385
asg39
(lp4169
g808
ag811
ag814
ag49
ag820
ag823
ag826
ag829
ag61
ag64
asg2695
(lp4170
g3024
ag1464
ag778
ag3018
ag3159
ag3536
ag3660
ag584
ag793
ag2596
asS'enfin'
p4171
(lp4172
g2032
ag3679
ag2026
ag2029
ag3500
ag952
ag955
ag20
ag967
ag1943
asg3891
(lp4173
g1335
ag1338
ag1341
ag3028
ag3031
ag3034
ag2786
ag3898
ag1349
ag3040
asg875
(lp4174
g78
ag373
ag882
ag885
ag2780
ag2289
ag2437
ag1636
ag2782
ag900
asg1734
(lp4175
g40
ag49
ag1741
ag55
ag1744
ag1738
ag64
ag1750
ag61
ag233
asg3785
(lp4176
g2888
ag2891
ag101
ag2894
ag2897
ag2900
ag4104
ag1426
ag3783
ag3224
asg181
(lp4177
g198
ag296
ag167
ag201
ag135
ag3590
ag147
ag2498
ag213
ag913
asg3568
(lp4178
g3575
ag3563
ag1675
ag3566
ag840
ag3664
ag3581
ag3578
ag61
ag40
asg2543
(lp4179
g681
ag3547
ag687
ag2550
ag3646
ag3744
ag1865
ag606
ag3469
ag3556
asg562
(lp4180
g769
ag772
ag569
ag778
ag784
ag1554
ag787
ag790
ag793
ag781
asg197
(lp4181
g2332
ag2498
ag296
ag201
ag2335
ag1109
ag311
ag416
ag213
ag2341
asg2118
(lp4182
g2102
ag2105
ag1616
ag2111
ag40
ag1613
ag393
ag402
ag2113
ag712
asg2949
(lp4183
g2935
ag353
ag2941
ag3228
ag2060
ag2947
ag2345
ag3856
ag2881
ag2956
asg2031
(lp4184
g2023
ag2026
ag2029
ag726
ag2041
ag2746
ag3124
ag2443
ag1012
ag2050
asg54
(lp4185
g249
ag252
ag46
ag49
ag55
ag255
ag258
ag261
ag264
ag267
asg631
(lp4186
g2384
ag623
ag614
ag534
ag3417
ag537
ag540
ag1705
ag3254
a(S'which'
p4187
g610
tp4188
asg3810
(lp4189
g1757
ag652
ag1760
ag40
ag1763
ag1660
ag1765
ag61
ag1768
ag3813
asg2546
(lp4190
g745
ag1871
ag2544
ag3167
ag1386
ag463
ag2550
ag3744
ag1865
ag3469
asg2161
(lp4191
g2102
ag2159
ag390
ag1364
ag431
ag402
ag399
ag440
ag2620
ag2119
asg1846
(lp4192
g195
ag167
ag1853
ag204
ag207
ag210
ag1862
ag219
ag216
ag222
asg1363
(lp4193
g2102
ag2159
ag1367
ag402
ag399
ag2162
ag1370
ag3096
ag3404
ag2119
asg902
(lp4194
g3446
ag1812
ag505
ag1815
ag1627
ag2255
ag2476
ag3458
ag1642
ag1645
asg1800
(lp4195
g1780
ag1783
ag1786
ag2297
ag2300
ag1795
ag1798
ag1804
ag1807
ag2308
asg1680
(lp4196
g40
ag43
ag46
ag49
ag55
ag1678
ag264
ag267
ag61
ag64
asg2692
(lp4197
g2696
ag560
ag2464
ag3159
ag572
ag575
ag3660
ag584
ag2596
ag2467
asg2451
(lp4198
g499
ag2471
ag508
ag2412
ag2415
ag2731
ag1126
ag2723
ag3368
ag2327
asg1260
(lp4199
g40
ag1263
ag981
ag1266
ag987
ag1272
ag990
ag1278
ag996
ag1281
asg519
(lp4200
g3065
ag1531
ag1602
ag173
ag2878
ag1599
ag1540
ag3069
ag188
ag2085
asg1586
(lp4201
g1850
ag2925
ag1856
ag1859
ag2927
ag2930
ag1862
ag1865
ag1868
ag1871
asg530
(lp4202
g2906
ag1818
ag2675
ag1044
ag2257
ag2440
ag2912
ag3380
ag1009
ag1053
asg4030
(lp4203
g4028
ag3090
ag428
ag2689
ag3093
ag2868
ag4033
ag2116
ag3096
ag446
asS'moto'
p4204
(lp4205
g249
ag252
ag46
ag49
ag55
ag255
ag258
ag261
ag264
ag267
asg2404
(lp4206
g40
ag43
ag46
ag49
ag233
ag55
ag3084
ag804
ag61
ag64
asg741
(lp4207
g745
ag748
ag751
ag754
ag757
ag2350
ag188
ag2054
ag760
ag763
asg966
(lp4208
g2996
ag1823
ag1826
ag1829
ag952
ag2993
ag958
ag897
ag20
ag1832
asg2893
(lp4209
g2888
ag2891
ag101
ag2897
ag2900
ag4104
ag2860
ag2096
ag3786
ag3224
asg692
(lp4210
g678
ag920
ag926
ag929
ag413
ag932
ag684
ag407
ag935
ag941
asg1937
(lp4211
g2759
ag2731
ag2846
ag3252
ag3455
ag2843
ag2849
ag2857
ag2174
ag29
asg1644
(lp4212
g1627
ag1537
ag511
ag1630
ag2255
ag1639
ag90
ag1543
ag1642
ag365
asg2709
(lp4213
g3446
ag2713
ag3449
ag3452
ag3455
ag3213
ag2716
ag3458
ag3461
ag903
asg1626
(lp4214
g2471
ag353
ag3365
ag1630
ag2255
ag1639
ag3856
ag1543
ag1642
ag2950
asg2896
(lp4215
g2604
ag2607
ag2888
ag330
ag101
ag2669
ag2672
ag2857
ag2678
ag2681
asg695
(lp4216
g678
ag920
ag413
ag932
ag684
ag935
ag407
ag690
ag693
ag941
asg2590
(lp4217
g2585
ag40
ag2588
ag1907
ag3607
ag242
ag61
ag236
ag245
ag64
asg3440
(lp4218
g230
ag40
ag233
ag3607
ag236
ag289
ag2593
ag242
ag61
ag64
asg1414
(lp4219
g327
ag110
ag107
ag3274
ag1428
ag113
ag116
ag623
ag2392
ag4188
asS'pr\xc3\xa9sent\xc3\xa9'
p4220
(lp4221
g252
a(S'ate'
p4222
S'mang\xc3\xa9'
p4223
tp4224
ag43
ag46
ag49
ag55
ag261
ag264
ag267
ag64
asg3565
(lp4225
g3563
ag61
ag3569
ag840
ag52
ag3664
ag3575
ag3578
ag3581
ag40
asS'f\xc3\xaates'
p4226
(lp4227
g249
ag252
ag46
ag49
ag55
ag255
ag258
ag261
ag264
ag267
asg3520
(lp4228
g808
ag811
ag814
ag40
ag49
ag820
ag823
ag826
ag829
ag61
asg57
(lp4229
g40
ag43
ag46
ag49
ag55
ag843
ag264
ag267
ag61
ag64
asS'lumi\xc3\xa8res'
p4230
(lp4231
g249
ag252
ag46
ag49
ag55
ag255
ag258
ag261
ag264
ag267
asg1402
(lp4232
g1400
a(S'grin'
p4233
g1974
tp4234
ag1981
ag104
ag1926
ag1978
ag1412
ag1983
ag124
ag1434
asg4086
(lp4235
g49
ag40
ag43
ag46
ag4084
ag55
ag52
ag264
ag61
ag64
asg2791
(lp4236
g1879
ag2332
ag591
ag201
ag3619
ag416
ag597
ag2795
ag603
ag410
asg3549
(lp4237
g1481
ag3544
ag3547
ag1484
ag138
ag1487
ag159
ag3556
ag3553
ag3466
asg3281
(lp4238
g1904
ag3534
ag3189
ag3192
ag3195
ag3162
ag1913
ag3198
ag2808
ag3284
asg912
(lp4239
g1709
ag1712
ag907
ag1715
ag910
ag3590
ag2498
ag1724
ag1727
ag1730
asg190
(lp4240
g1882
ag3644
ag2541
ag2953
ag176
ag1890
ag3167
ag1896
ag606
ag2530
asg666
(lp4241
g2000
ag2003
ag2006
ag2009
ag4129
ag3735
ag2012
ag2015
ag399
ag2018
asg352
(lp4242
g2935
ag2938
ag2941
ag2944
ag1890
ag2947
ag2950
ag3856
ag2953
ag2956
asg3323
(lp4243
g2169
ag2471
ag353
ag1627
ag2991
ag3365
ag2935
ag2956
ag3856
ag2950
asg445
(lp4244
g2105
ag700
ag703
ag706
ag3740
ag393
ag434
ag709
ag712
ag1551
asg3476
(lp4245
g2181
ag1135
ag344
ag75
ag1117
ag173
ag1165
ag359
ag1168
ag365
asg2210
(lp4246
g2585
ag2805
ag1494
ag1496
ag2654
ag3319
ag2808
ag2591
ag2214
a(S'excuse'
p4247
g2655
tp4248
asg226
(lp4249
g1757
ag2268
ag3811
ag652
ag2749
ag236
ag862
ag847
ag3813
ag2271
asg1999
(lp4250
g2003
ag2006
ag2918
ag2009
ag2012
ag2015
ag399
ag2018
ag61
ag40
asg1425
(lp4251
g1400
ag2891
ag2894
ag2900
ag4104
ag3783
ag2888
ag3786
ag3224
ag1434
asg2263
(lp4252
g1564
ag2261
ag3776
ag236
ag572
ag3719
ag1570
ag1576
ag61
ag40
asg2674
(lp4253
g2906
ag2728
ag723
ag2720
ag1044
ag2723
ag1702
ag1053
ag2707
ag2734
asg2684
(lp4254
g132
ag1484
ag482
ag135
ag1302
ag147
ag488
ag3649
ag491
ag159
asg2138
(lp4255
g2023
ag720
ag961
ag641
ag964
ag2136
ag958
ag734
ag1941
ag737
asg2722
(lp4256
g499
ag2471
ag508
ag2415
ag2452
ag2731
ag1126
ag3368
ag2327
ag2734
asS'citrouille'
p4257
(lp4258
g40
ag43
ag46
ag49
ag233
ag55
ag58
ag267
ag61
ag64
asg2719
(lp4259
g499
ag508
ag2452
ag2731
ag2322
ag2707
ag2723
ag2327
ag2728
ag2734
asg423
(lp4260
g252
ag421
ag43
ag46
ag49
ag55
ag261
ag264
ag267
ag64
asg3217
(lp4261
g2585
ag1564
ag40
a(S'fer'
p4262
S'fer'
p4263
tp4264
ag236
a(S'becoming'
p4265
S'devenir'
p4266
tp4267
ag1473
ag2591
ag2214
ag61
asg819
(lp4268
g249
ag252
ag46
ag49
ag55
ag258
ag261
ag264
ag267
ag64
asg1749
(lp4269
g40
ag43
ag1295
ag49
ag233
ag55
ag46
ag804
ag61
ag64
asg2742
(lp4270
g2169
ag2471
ag1627
ag2319
ag885
ag871
ag1126
ag2991
ag3324
ag2440
asg3182
(lp4271
g772
ag563
ag1576
ag566
ag2208
ag572
ag3317
ag1473
ag587
ag2214
asg2929
(lp4272
g1850
ag1587
ag2925
ag1856
ag1859
ag2927
ag1862
ag1865
ag1868
ag1871
asg3083
(lp4273
g40
ag43
ag46
ag49
ag233
ag55
a(S'nice'
p4274
g4079
tp4275
ag804
ag61
ag64
asg2570
(lp4276
g170
ag2556
ag2559
ag2562
ag2565
ag2345
ag2348
ag362
ag2353
ag2950
asg3683
(lp4277
g296
ag2261
ag1063
ag2703
ag2264
ag236
ag210
ag317
ag1106
ag40
asg759
(lp4278
g1377
ag1882
ag751
ag754
ag2338
ag2481
ag2484
ag3170
ag3045
ag478
asg2242
(lp4279
g3065
ag2240
ag3067
ag3002
ag3005
ag1123
ag1132
ag3072
ag1174
ag3075
asg2278
(lp4280
g2181
ag1135
ag2538
ag1117
ag2565
ag2057
ag2177
ag3725
ag2878
ag4007
asg3491
(lp4281
g1760
ag233
ag40
ag43
ag46
ag49
ag242
ag804
ag61
ag64
asS'plaque'
p4282
(lp4283
g249
ag252
ag46
ag49
ag55
ag255
ag258
ag261
ag264
ag267
asg510
(lp4284
g370
ag347
ag75
ag1630
ag84
ag359
ag1639
ag93
ag1543
ag365
asg1692
(lp4285
g1690
ag1038
ag2996
ag1036
ag1696
ag1826
ag1829
ag891
ag958
ag897
asg899
(lp4286
g370
ag2547
ag1135
ag1117
ag78
ag2780
ag1162
ag93
ag2782
ag373
asg2940
(lp4287
g2935
ag2938
ag2373
ag3138
ag2944
ag1890
ag2947
ag2953
ag1896
ag2956
asg2807
(lp4288
g1904
ag3258
ag2805
ag3192
ag3195
ag850
ag3162
ag3198
ag3201
ag289
asg1563
(lp4289
(S'piercing'
p4290
S'per\xc3\xa7ant'
p4291
tp4292
ag1567
ag40
ag2588
ag242
ag236
ag1570
ag1573
ag61
ag64
asg3834
(lp4293
g252
ag2630
ag2645
ag2639
ag49
ag1020
ag424
ag261
a(S'hamburger'
p4294
g2830
tp4295
ag1023
asg1566
(lp4296
g4292
ag3090
ag3093
ag2868
ag4028
a(S'sneaking'
p4297
S'faufiler'
p4298
tp4299
ag4031
ag4033
a(S'dry'
p4300
g4024
tp4301
ag1573
asg2730
(lp4302
g499
ag2471
ag508
ag2843
ag2846
ag1126
ag2849
ag3368
ag2174
ag3252
asg800
(lp4303
g40
ag43
ag46
ag49
ag233
ag55
ag64
ag267
ag61
ag804
asg3017
(lp4304
g3024
ag3189
ag3162
ag778
ag3195
ag3282
ag1904
ag3198
ag2808
ag3284
asg2779
(lp4305
g502
ag72
ag347
ag2872
ag78
ag2874
ag359
ag362
ag2782
ag350
asg126
(lp4306
g2756
ag1036
ag2169
ag888
ag2761
ag26
ag2246
ag891
ag2767
ag903
asg2427
(lp4307
g2255
ag2471
ag879
ag2434
ag882
ag2991
ag1627
ag3324
ag2431
ag894
asg2853
(lp4308
g2234
ag2490
ag2988
ag2322
ag2740
ag2738
ag3477
ag2327
ag3061
ag2863
asg439
(lp4309
g700
ag703
ag390
ag393
ag396
ag431
ag402
ag434
ag712
ag446
asg4223
(lp4310
g249
ag252
ag43
ag46
ag49
ag55
ag261
ag264
ag267
ag64
asg3359
(lp4311
g1780
ag1786
ag1789
ag1792
ag1795
ag1798
ag1801
ag1804
ag3357
ag1807
asS'expliqu\xc3\xa9'
p4312
(lp4313
g37
ag40
ag3409
ag46
ag49
ag55
ag58
a(S'tables'
p4314
g3406
tp4315
ag61
ag64
asg3598
(lp4316
g496
ag2991
ag505
ag511
ag514
ag728
ag871
ag731
ag523
ag2728
asS'haricots'
p4317
(lp4318
g252
a(S'days'
p4319
S'journ\xc3\xa9es'
p4320
tp4321
ag43
ag46
ag49
ag55
ag261
ag264
ag267
ag64
asg1737
(lp4322
g40
ag43
ag46
ag49
ag233
ag55
ag1744
ag1750
ag61
ag64
asg2733
(lp4323
g499
ag2471
ag508
ag2452
ag2731
ag1126
ag2723
ag3368
ag2327
ag2728
asg310
(lp4324
g1178
ag572
ag1836
ag2696
ag1448
ag581
ag587
ag1527
ag323
ag3156
asg768
(lp4325
g646
ag775
ag1496
ag1792
ag1663
ag1798
ag1801
ag239
ag787
ag649
asg1043
(lp4326
g2906
ag1041
ag1815
ag723
ag2909
ag2476
ag1050
ag1053
ag1645
ag903
asg1183
(lp4327
g1178
ag1554
ag563
ag772
ag1187
ag569
ag575
ag578
ag1190
ag1193
asg3555
(lp4328
g1481
ag3544
ag3547
ag1484
ag687
ag606
ag3646
ag1487
ag3553
ag3466
asg1788
(lp4329
g1780
ag1786
ag1792
ag1795
ag1798
ag1801
ag1804
ag3357
ag1807
ag3360
asg816
(lp4330
g252
ag2630
ag43
ag46
ag49
ag55
ag264
ag267
a(S'lord'
p4331
S'seigneur'
p4332
tp4333
ag64
asg593
(lp4334
g3111
ag3113
ag2461
ag2193
ag1242
ag317
ag1245
ag600
ag603
ag3116
asg3648
(lp4335
g132
ag135
ag482
ag2685
ag485
ag1302
ag147
ag488
ag491
ag159
asg736
(lp4336
g496
ag720
ag723
ag2319
ag514
ag728
ag2136
ag731
ag523
ag734
asg3767
(lp4337
g252
ag43
ag46
ag49
ag814
ag55
ag261
ag264
ag267
ag64
asg260
(lp4338
g249
ag252
ag46
ag49
ag55
ag255
ag258
ag261
ag264
ag267
asg19
(lp4339
g5
ag876
ag882
ag26
ag2255
ag2764
ag2437
ag2996
ag1935
ag1642
asg2239
(lp4340
g3065
ag3067
ag3365
ag3005
ag3002
ag1132
ag3072
ag93
ag1174
ag3075
asg3540
(lp4341
g1253
ag40
ag272
ag46
ag49
ag55
ag3674
ag264
ag61
ag64
asg1726
(lp4342
g1712
ag1715
ag1718
ag1512
ag1448
ag2074
ag1721
ag1724
ag938
ag1730
asg2414
(lp4343
g1593
ag1120
ag1590
ag3263
ag2289
ag2455
ag2292
ag2165
ag1171
ag2282
asg2326
(lp4344
g499
ag2240
ag2234
ag508
ag2731
ag1123
ag1126
ag3368
ag2243
ag3008
asg2115
(lp4345
g2105
ag700
ag2111
ag40
ag3740
ag2113
ag709
ag446
ag1551
ag61
asS'para\xc3\xaetre'
p4346
(lp4347
g252
ag43
ag46
ag49
ag55
a(S'beans'
p4348
g4317
tp4349
ag264
ag267
ag261
ag64
asg221
(lp4350
g195
ag1236
ag305
ag308
ag210
ag1242
ag1245
ag216
ag204
ag1248
asg2176
(lp4351
g81
ag1135
ag1117
ag1120
ag2538
ag356
ag2565
ag376
ag1540
ag379
asg2049
(lp4352
g2023
ag2823
ag731
ag2026
ag2029
ag2041
ag2032
ag3124
ag1012
ag3599
asg1280
(lp4353
g1261
ag40
ag1263
ag981
ag1266
ag987
ag1272
ag990
ag1278
ag996
asg1122
(lp4354
g2240
ag356
ag1120
ag3005
ag3002
ag2177
ag1132
ag3072
ag2243
ag2282
asg63
(lp4355
g249
ag252
ag46
ag49
ag55
ag255
ag258
ag261
ag264
ag267
asS'pente'
p4356
(lp4357
g249
ag252
ag46
ag49
ag55
ag255
ag258
ag261
ag264
ag267
asg420
(lp4358
g249
ag252
ag46
ag49
ag55
ag258
ag261
ag264
ag267
ag64
asg3110
(lp4359
g3113
ag2461
ag1239
ag1512
ag1515
ag1518
ag1521
ag581
ag1524
ag2467
asg2288
(lp4360
g1593
ag1605
ag1590
ag1584
ag2455
ag2292
ag2165
ag1602
ag1171
ag1599
asg2712
(lp4361
g2666
ag3449
ag3452
ag3455
ag2710
ag3213
ag2716
ag3458
ag3461
ag903
asg3155
(lp4362
g3512
ag3153
ag230
ag1910
ag3159
ag3162
ag787
ag790
ag2214
ag292
asg861
(lp4363
g2502
ag2157
ag2159
ag2268
ag1364
ag2162
ag2505
ag40
ag2749
ag2271
asg1116
(lp4364
g370
ag742
ag81
ag1135
ag2350
ag69
ag2184
ag362
ag93
ag2054
asg2281
(lp4365
g1120
ag1590
ag356
ag2565
ag2874
ag2292
ag379
ag2177
ag2782
ag1171
asg1340
(lp4366
g1335
ag1355
ag3892
ag2142
ag1338
ag3034
ag3898
ag1352
ag3040
ag1360
asg2609
(lp4367
g2601
ag2604
ag2368
ag330
ag2365
ag3497
ag1344
ag2613
ag2616
ag2362
asg1601
(lp4368
g1581
ag1584
ag1871
ag1587
ag2925
ag1596
ag2927
ag2930
ag1868
ag1608
asg2532
(lp4369
g2515
ag3547
ag2312
ag3550
ag3466
ag3544
ag2527
ag3553
ag1487
ag3556
asg2492
(lp4370
g1205
ag2234
ag885
ag2322
ag2740
ag3477
ag2327
ag96
ag3008
ag1232
asg1255
(lp4371
g814
ag817
ag252
ag49
a(S'seem'
p4372
g4346
tp4373
ag823
ag4349
ag826
ag829
ag64
asg2334
(lp4374
g4037
ag2332
ag233
ag40
ag43
ag236
ag289
ag242
ag61
ag64
asg2189
(lp4375
g451
ag591
ag594
ag2193
ag2196
ag1890
ag2199
ag1245
ag1893
ag3116
asg450
(lp4376
g454
ag460
ag135
ag1484
ag594
ag2193
ag147
ag600
ag603
ag913
asg257
(lp4377
g249
ag252
ag46
ag49
ag55
ag255
ag258
ag261
ag264
ag267
asg3194
(lp4378
g1904
ag3258
ag3201
ag236
ag850
ag3162
ag3198
ag3192
ag289
ag847
asg1466
(lp4379
g40
ag3534
ag242
ag3282
ag236
ag787
ag64
ag2596
ag61
ag1913
asg298
(lp4380
g3180
ag1564
ag4267
ag1576
ag1836
ag311
ag2211
ag3218
ag323
ag2217
asg137
(lp4381
g132
ag135
ag141
ag144
ag147
ag150
ag153
ag156
ag159
ag1304
asg3750
(lp4382
g814
ag264
ag3768
ag46
ag49
ag252
ag55
ag261
ag3753
ag64
asg1291
(lp4383
g3334
ag55
ag40
ag834
ag49
ag3340
ag3634
ag3803
ag61
ag64
asg777
(lp4384
g1901
ag3024
ag3189
ag3315
ag781
ag3282
ag790
ag793
ag1916
ag3284
asg2053
(lp4385
g742
ag745
ag751
ag2060
ag757
ag469
ag2350
ag188
ag760
ag763
asg3205
(lp4386
g531
ag1818
ag3417
ag2257
ag1702
ag543
ag2675
ag2912
ag3380
ag1812
asg2587
(lp4387
g4292
ag49
ag40
ag2868
ag4028
ag4299
ag4031
ag4033
ag4301
ag61
asg48
(lp4388
g249
ag252
ag46
ag49
ag55
ag255
ag258
ag261
ag264
ag267
asg143
(lp4389
g1060
ag1106
ag3106
ag302
ag141
ag932
ag150
ag1839
ag156
ag3183
asg3915
(lp4390
g40
ag43
ag46
ag49
ag55
ag58
ag264
ag267
ag61
ag64
asg203
(lp4391
g195
ag1236
ag296
ag305
ag308
ag210
ag1242
ag1245
ag216
ag1248
asg507
(lp4392
g3065
ag499
ag1531
ag2471
ag2085
ag1126
ag520
ag3368
ag3069
ag3008
asg2040
(lp4393
g496
ag2738
ag2023
ag3124
ag2746
ag726
ag728
ag731
ag1012
ag3599
asg209
(lp4394
g1236
ag296
ag1106
ag305
ag416
ag1242
ag1245
ag600
ag156
ag1248
asg3127
(lp4395
g3292
ag2449
ag3302
ag14
ag3305
ag3295
ag1142
ag3298
ag3979
ag1056
asg1580
(lp4396
g1871
ag1587
ag2925
ag1596
ag1856
ag2927
ag2930
ag1868
ag1608
ag1850
asg2917
(lp4397
g1261
ag40
ag2920
ag1266
ag987
ag1269
ag1272
ag1278
ag61
ag1281
asg1572
(lp4398
g4292
ag3090
ag3093
ag2868
ag4028
ag4299
ag4031
ag4033
ag4301
ag673
asg319
(lp4399
g772
ag3776
ag1576
ag3159
ag311
ag299
ag1476
ag587
ag323
ag2464
asg322
(lp4400
g3859
ag230
ag3776
ag1576
ag3159
ag311
ag1476
ag3156
ag2214
ag2464
asg3057
(lp4401
g2181
ag2538
ag1135
ag1534
ag1117
ag2279
ag2565
ag2177
ag2782
ag2057
asg1225
(lp4402
g1208
ag1211
ag101
ag1214
ag1217
ag1220
ag1223
ag2860
ag1938
ag1229
asg951
(lp4403
g2996
ag1823
ag897
ag1829
ag2993
ag20
ag1826
ag958
ag1832
ag967
asg3244
(lp4404
g40
ag43
ag46
ag49
ag233
ag55
ag64
ag267
ag61
ag804
asg608
(lp4405
g451
ag454
ag2498
ag147
ag594
ag317
ag600
ag597
ag1879
ag603
asg1925
(lp4406
g2026
ag3679
ag1983
ag2032
ag2038
ag2035
ag104
ag2044
ag2047
ag2050
asg1822
(lp4407
g879
ag2988
ag1826
ag1829
ag2991
ag2993
ag3324
ag894
ag2996
ag1832
asg206
(lp4408
g195
ag219
ag482
ag210
ag1242
ag1245
ag216
ag204
ag222
ag1248
asg1472
(lp4409
g2585
ag230
ag4264
ag3534
ag4267
ag787
ag2591
ag2593
ag2214
ag245
asg1408
(lp4410
g528
ag1406
ag1397
ag2820
ag2386
ag23
ag113
ag1031
ag1428
ag124
asg2043
(lp4411
g2023
ag3679
ag2026
ag2029
ag2038
ag2035
ag2041
ag2032
ag2047
ag2050
asg2352
(lp4412
g745
ag170
ag751
ag3228
ag2060
ag3231
ag2345
ag2881
ag760
ag763
asg1550
(lp4413
g40
ag43
ag46
ag49
ag233
ag55
ag709
ag804
ag61
ag64
asg1241
(lp4414
g3111
ag3113
ag1236
ag2461
ag305
ag308
ag1245
ag1072
ag1066
ag1248
asg998
(lp4415
g1292
ag978
ag40
ag1295
ag993
ag984
ag49
ag1298
ag61
ag64
asg792
(lp4416
g769
ag646
ag775
ag1663
ag796
ag239
ag787
ag790
ag781
ag1919
asg1450
(lp4417
g1464
ag2805
ag1910
ag796
ag1470
ag856
ag1457
ag2808
ag2596
ag1476
asg2595
(lp4418
g3534
ag1789
ag1910
ag796
ag3357
ag2654
ag3198
ag3319
ag2808
ag3360
asg1950
(lp4419
g1948
ag40
ag49
ag233
ag55
ag1954
ag64
ag2968
ag61
ag1957
asg1002
(lp4420
g1036
ag3324
ag2428
ag1006
ag2743
ag888
ag891
ag2440
ag1009
ag1053
asg686
(lp4421
g678
ag413
ag684
ag681
ag935
ag407
ag690
ag693
ag696
ag941
asg1803
(lp4422
g1783
ag1786
ag2297
ag2300
ag2305
ag2303
ag1795
ag673
ag2308
ag2152
asS'journal'
p4423
(lp4424
g49
ag40
ag43
ag46
ag3518
ag55
ag264
ag3524
ag61
ag64
asg1265
(lp4425
g40
ag1263
ag981
ag987
ag1272
ag990
ag1278
ag61
ag996
ag1281
asg833
(lp4426
g3334
ag1253
ag3518
ag3340
ag840
a(S'newspaper'
p4427
g4423
tp4428
ag3349
ag3524
ag3352
ag3428
asg2606
(lp4429
g2666
ag2604
ag2669
ag2672
ag2707
ag2710
ag2713
ag2716
ag2678
ag2681
asg2430
(lp4430
g2428
ag2471
ag879
ag2434
ag882
ag1630
ag2255
ag2909
ag894
ag2443
asg3161
(lp4431
g227
ag3201
ag859
ag236
ag850
ag646
ag3258
ag3192
ag289
ag847
asS'conseil'
p4432
(lp4433
g249
ag252
ag46
ag49
ag55
ag255
ag258
ag261
ag264
ag267
asg1469
(lp4434
g2805
ag1789
ag1910
ag796
ag3357
ag856
ag2808
ag2596
ag787
ag3360
asg4320
(lp4435
g249
ag252
ag46
ag49
ag55
ag255
ag258
ag261
ag264
ag267
asg1855
(lp4436
g1847
ag167
ag1853
ag204
ag207
ag1859
ag1862
ag219
ag216
ag222
asg2299
(lp4437
g2297
ag428
ag2689
ag2303
ag2305
ag399
ag2149
ag673
ag2119
ag2152
asg2375
(lp4438
g2332
ag233
ag40
ag43
ag236
ag2211
ag289
ag242
ag61
ag64
asg3748
(lp4439
g814
ag49
ag3768
ag817
ag3751
ag252
ag55
ag64
ag264
ag3753
asg2080
(lp4440
g249
ag252
ag46
ag49
ag55
ag255
ag258
ag261
ag264
ag267
asg1396
(lp4441
g1406
ag1409
ag2090
ag113
ag1420
ag1412
ag2093
ag2127
ag2096
ag124
asg4298
(lp4442
g4028
ag3090
ag40
ag428
ag2689
ag3093
ag2868
ag4031
ag4033
ag4301
asg3659
(lp4443
g236
ag227
ag3534
ag3195
ag3159
ag3282
ag3162
ag787
ag2596
ag1913
asS'furieusement'
p4444
(lp4445
g249
ag252
ag46
ag49
ag55
ag255
ag258
ag261
ag264
ag267
asg2107
(lp4446
g40
ag43
a(S'seamus'
p4447
g3232
tp4448
ag49
ag233
ag55
ag3239
ag46
ag61
ag64
asg1065
(lp4449
g1178
ag1239
ag572
ag1518
ag311
ag1448
ag581
ag1072
ag1527
ag587
asg719
(lp4450
g2490
ag2854
ag2988
ag1056
ag2738
ag2136
ag3128
ag734
ag2863
ag737
asg1231
(lp4451
g1205
ag2840
ag2234
ag885
ag2493
ag2322
ag2740
ag2327
ag96
ag3008
asg3451
(lp4452
g3446
ag2556
ag2775
ag2571
ag2568
ag2659
ag3455
ag2562
ag2565
ag3458
asS'plus'
p4453
(lp4454
g2601
a(S'finally'
p4455
g4171
tp4456
ag3497
ag3500
ag2610
ag2038
ag2897
ag2613
ag2047
ag2616
asg513
(lp4457
g3065
ag502
ag505
ag1534
ag1537
ag511
ag520
ag87
ag376
ag523
asg1153
(lp4458
g3292
ag1139
ag1145
ag1148
ag1157
ag1142
ag3298
ag3128
ag32
ag1015
asg1782
(lp4459
g2297
ag428
ag2300
ag2303
ag2305
ag2868
ag2149
ag673
ag2308
ag2152
asg2785
(lp4460
g1041
ag1285
ag3028
ag3031
ag3034
ag339
ag3037
ag1047
ag1349
ag3040
asg1895
(lp4461
g410
ag1884
ag594
ag416
ag210
ag147
ag597
ag2373
ag2376
ag606
asg2436
(lp4462
g3065
ag164
ag78
ag876
ag3067
ag882
ag356
ag2547
ag1636
ag1642
asg3291
(lp4463
g2228
ag2231
ag2449
ag1145
ag2237
ag2324
ag3295
ag1142
ag3298
ag2246
asg134
(lp4464
g132
ag3106
ag141
ag485
ag1109
ag144
ag150
ag156
ag491
ag488
asg3188
(lp4465
g1904
ag3258
ag289
ag3192
ag3195
ag850
ag3162
ag3198
ag3201
ag2808
asg2005
(lp4466
g2003
ag2918
ag2920
ag2009
ag49
ag2012
ag2015
ag2018
ag61
ag40
asg4266
(lp4467
g2585
ag230
ag40
ag4264
ag2588
ag236
ag1913
ag2591
ag2593
ag245
asg2638
(lp4468
g249
ag252
ag46
ag49
ag55
ag258
ag261
ag264
ag267
ag64
asg954
(lp4469
g620
ag3500
ag952
ag641
ag958
ag897
ag20
ag964
ag967
ag1943
asS'arr\xc3\xaat'
p4470
(lp4471
g249
ag252
ag46
ag49
ag55
ag255
ag258
ag261
ag264
ag267
asg909
(lp4472
g1709
ag1712
ag907
ag1718
ag1715
ag1721
ag1724
ag1727
ag1730
ag938
asg1317
(lp4473
g49
ag1321
ag233
ag1324
ag1327
ag1330
ag1967
ag64
ag61
ag40
asg169
(lp4474
g745
ag751
ag3228
ag2060
ag3231
ag2345
ag2348
ag2881
ag2353
ag763
asg2981
(lp4475
g2836
ag2973
ag40
ag2979
ag1951
ag1948
ag2012
ag1954
ag61
ag2984
asg2661
(lp4476
g1650
ag40
ag43
ag46
ag49
ag233
ag55
ag1747
ag61
ag64
asg2934
(lp4477
g2938
ag2941
ag3138
ag2944
ag1890
ag2947
ag2953
ag2373
ag1896
ag2956
asg13
(lp4478
g3055
ag2285
ag2276
ag2319
ag3302
ag3305
ag3058
ag3641
ag3061
ag1056
asg1475
(lp4479
g1464
ag2805
ag1789
ag1910
ag796
ag1470
ag856
ag1457
ag2808
ag2596
asg2213
(lp4480
g227
ag3534
ag1910
ag236
ag2651
ag850
ag3162
ag3319
ag847
ag245
asg1216
(lp4481
g1205
ag1208
ag1211
ag1214
ag2493
ag1220
ag1223
ag1229
a(S'without'
p4482
g1201
tp4483
ag1232
asg251
(lp4484
g249
ag252
ag46
ag49
ag55
ag255
ag258
ag261
ag264
ag267
asg36
(lp4485
g1253
ag40
ag43
ag46
ag49
ag55
ag3674
ag264
ag61
ag64
asg3845
(lp4486
g49
ag40
ag43
ag46
ag3236
ag233
ag55
ag3828
ag61
ag64
asg2967
(lp4487
g2960
ag1321
ag1318
ag2963
ag1324
ag2966
ag1327
ag1330
ag61
ag40
asS'frapp\xc3\xa9'
p4488
(lp4489
g55
ag233
ag49
ag837
ag2221
ag3730
ag61
ag64
ag2580
ag40
asg2555
(lp4490
g2562
ag170
ag2559
ag2571
ag2565
ag2345
ag2348
ag362
ag2353
ag2950
asg846
(lp4491
g1757
ag2268
ag3811
ag652
ag859
ag2505
ag862
ag2749
ag3813
ag2271
asg263
(lp4492
g249
ag252
ag46
ag49
ag55
ag255
ag258
ag261
ag264
ag267
asg3454
(lp4493
g3446
ag2775
ag2843
ag2846
ag2659
ag3452
ag2568
ag2849
ag3458
ag3252
asg2745
(lp4494
g2181
ag1135
ag1117
ag1123
ag2276
ag2319
ag517
ag871
ag1126
ag2177
asS'ordinateur'
p4495
(lp4496
g249
ag252
ag46
ag49
ag55
ag255
ag258
ag261
ag264
ag267
asg2727
(lp4497
g499
ag508
ag2759
ag2452
ag2731
ag514
ag2723
ag2327
ag2767
ag2734
asg372
(lp4498
g2060
ag170
ag2171
ag2544
ag188
ag78
ag2547
ag2550
ag2782
ag191
asg2952
(lp4499
g454
ag594
ag2373
ag3138
ag1890
ag597
ag2484
ag2376
ag1896
ag606
asg1870
(lp4500
g1847
ag1850
ag167
ag1853
ag1856
ag1859
ag2927
ag1862
ag1865
ag1868
asg565
(lp4501
g40
ag3534
ag236
ag3282
ag1913
ag1467
ag2596
ag2214
ag245
ag787
asg3988
(lp4502
g40
ag43
ag46
ag49
ag233
ag55
ag2620
ag804
ag61
ag64
asg4263
(lp4503
g2585
ag233
ag1907
ag3607
ag236
ag2591
ag64
ag242
ag61
ag40
asg1385
(lp4504
g1879
ag132
ag2498
ag1106
ag2338
ag153
ag2341
ag159
ag1389
ag3045
asg2600
(lp4505
g2604
ag2368
ag330
ag2365
ag3497
ag2610
ag1344
ag2613
ag2616
ag2362
asg100
(lp4506
g2490
ag2854
ag2988
ag2738
ag2857
ag2860
ag23
ag1938
ag2863
ag29
asg1180
(lp4507
g1178
ag1184
ag563
ag1187
ag569
ag575
ag578
ag1685
ag1190
ag1193
asg2504
(lp4508
g2502
ag2157
ag2159
ag1364
ag242
ag399
ag2162
ag443
ag402
ag2119
asg187
(lp4509
g3556
ag3547
ag2515
ag2312
ag3550
ag3466
ag179
ag2533
ag478
ag2527
asg2650
(lp4510
g658
ag1760
ag233
ag1086
ag49
ag242
ag286
ag64
ag61
ag40
asg2653
(lp4511
g1197
ag649
ag1907
ag2651
ag856
ag286
ag3319
ag1913
ag1498
ag1919
asg2507
(lp4512
g40
ag43
ag3944
ag49
ag233
ag55
ag46
ag3404
ag61
ag64
asg3897
(lp4513
g1335
ag3892
ag2142
ag1338
ag1341
ag3034
ag2786
ag3895
ag1349
ag3040
asg3158
(lp4514
g227
ag3534
ag1496
ag292
ag236
ag3282
ag3162
ag787
ag2596
ag1913
asg3694
(lp4515
g955
ag3692
ag620
ag641
ag3028
ag3034
ag635
ag2139
ag1941
ag964
asg2198
(lp4516
g451
ag2190
ag594
ag2193
ag2196
ag1890
ag597
ag1245
ag1893
ag3116
asg1277
(lp4517
g975
ag40
ag1263
ag981
ag984
ag987
ag990
ag996
ag999
ag61
asg3030
(lp4518
g1041
ag3028
ag1044
ag3034
ag2909
ag3037
ag1047
ag2912
ag1349
ag1050
asg1438
(lp4519
g1464
ag2805
ag1910
ag796
ag1470
ag1451
ag1457
ag2808
ag2596
ag1476
asg1928
(lp4520
g2428
ag2759
ag2434
ag885
ag2431
ag2440
ag2443
ag2767
ag1935
ag894
asg3230
(lp4521
g745
ag748
ag1377
ag1882
ag751
ag754
ag2481
ag3170
ag760
ag478
asg1102
(lp4522
g2585
ag1454
ag4264
ag566
ag4267
ag299
ag3218
ag1473
ag2591
ag40
asg3200
(lp4523
g646
ag1760
ag236
ag850
ag3482
ag1669
ag3258
ag859
ag289
ag847
asg3152
(lp4524
g1901
ag3024
ag230
ag3189
ag1910
ag1904
ag3315
ag1916
ag865
ag292
asg3403
(lp4525
g40
ag43
ag46
ag49
ag233
ag3997
ag55
ag715
ag61
ag64
asg2034
(lp4526
g2023
ag3679
ag2026
ag2029
ag2032
ag2038
ag2041
ag2044
ag2047
ag2050
asg2291
(lp4527
g1581
ag1593
ag1590
ag1584
ag1596
ag2165
ag1602
ag1605
ag1608
ag1599
asg1547
(lp4528
g40
ag43
ag46
ag49
ag233
ag55
ag3938
ag804
ag61
ag64
asg3529
(lp4529
g233
ag40
ag3628
ag49
a(S'boys'
p4530
g3624
tp4531
ag1747
ag1967
ag64
ag61
ag3630
asg1864
(lp4532
g1847
ag167
ag3547
ag1853
ag687
ag606
ag3646
ag3744
ag1862
ag3556
asg2361
(lp4533
g2906
ag1053
ag531
ag2365
ag2675
ag2368
ag2145
ag1047
ag1044
ag1012
asg1746
(lp4534
g40
ag43
ag46
ag49
ag233
ag55
ag3386
ag804
ag61
ag64
asg2110
(lp4535
g1613
ag2105
ag1616
ag233
ag49
ag2113
ag64
ag1619
ag61
ag40
asg3345
(lp4536
g3337
ag49
ag3768
ag3749
ag817
ag3751
ag3343
ag64
ag61
ag3753
asg2549
(lp4537
g681
ag3547
ag687
ag3646
ag690
ag3744
ag1865
ag606
ag3469
ag3556
asS'seize'
p4538
(lp4539
g249
ag252
ag46
ag49
ag55
ag255
ag258
ag261
ag264
ag267
asg184
(lp4540
g1882
ag1884
ag1887
ag1890
ag2486
ag179
ag1893
ag182
ag1896
ag478
asg2017
(lp4541
g55
ag40
ag2918
ag2920
ag49
ag2012
ag2015
ag64
ag61
ag233
asg332
(lp4542
g1003
ag1818
ag1036
ag2826
ag2257
ag1288
ag891
ag3124
ag339
ag964
asg1284
(lp4543
g1028
ag11
ag2386
ag17
ag952
ag1288
ag2145
ag339
ag20
ag967
asg2529
(lp4544
g2332
ag591
ag2193
ag2518
ag2521
ag210
ag472
ag2524
ag3684
ag1389
asg3304
(lp4545
g3055
ag2276
ag2319
ag3302
ag14
ag3058
ag3641
ag3061
ag2282
ag2285
asg3342
(lp4546
g252
ag49
ag3768
ag3749
ag817
ag3751
ag55
ag64
ag264
ag3753
asg3606
(lp4547
g227
ag40
ag233
ag236
ag2651
ag239
ag61
ag242
ag245
ag64
asg2466
(lp4548
g3153
ag3024
ag230
ag1901
ag778
ag3315
ag1910
ag1916
ag865
ag2464
asg4332
(lp4549
g249
ag252
ag46
ag49
ag55
ag255
ag258
ag261
ag264
ag267
asg2067
(lp4550
g249
ag252
ag49
ag43
ag46
ag817
ag55
ag264
ag267
ag64
asg922
(lp4551
g2696
ag1473
ag566
ag1457
ag4267
ag572
ag1454
ag1467
ag587
ag2217
asg1689
(lp4552
g1693
ag1696
ag1699
ag1038
ag2764
ag891
ag958
ag1705
ag897
ag3254
asg1297
(lp4553
g1292
ag55
ag40
ag1295
ag834
ag49
ag3634
ag3803
ag61
ag64
asg3060
(lp4554
g3055
ag1123
ag2276
ag2319
ag3302
ag2279
ag3058
ag3641
ag2282
ag2285
asg2924
(lp4555
g1850
ag1587
ag1856
ag1859
ag2927
ag2930
ag1862
ag1865
ag1868
ag1871
asg2575
(lp4556
g40
ag43
ag46
ag49
ag233
ag55
ag64
ag267
ag61
ag804
asg795
(lp4557
g646
ag775
ag2805
ag1496
ag1663
ag1092
ag239
ag1498
ag1095
ag856
asg2089
(lp4558
g1397
ag3398
ag1420
ag1412
ag2093
ag2124
ag2127
ag2130
ag2096
ag2133
asg2825
(lp4559
g531
ag731
ag1818
ag2257
ag2041
ag3124
ag2912
ag3380
ag737
ag3599
asg2227
(lp4560
g2240
ag3002
ag3005
ag1123
ag2231
ag517
ag1132
ag3072
ag2243
ag2282
asg1141
(lp4561
g3292
ag1139
ag2449
ag1145
ag2237
ag2324
ag3295
ag3298
ag3128
ag2246
asg1019
(lp4562
g249
ag252
ag43
ag46
ag49
ag55
ag261
ag264
ag267
ag64
asg940
(lp4563
g917
ag920
ag923
ag926
ag929
ag932
ag1178
ag1454
ag935
ag938
asg2965
(lp4564
g1327
ag2960
ag1321
ag40
ag2963
ag1324
ag1318
ag1330
ag49
ag61
asS'pench\xc3\xa9'
p4565
(lp4566
g252
ag64
ag43
ag49
ag55
ag1020
ag424
ag261
a(S'clock'
p4567
g1016
tp4568
ag1023
asg803
(lp4569
g3563
ag40
ag3566
ag3569
ag3572
ag3664
ag3575
ag3578
ag3581
ag3584
asg887
(lp4570
g2756
ag2169
ag2471
ag373
ag2761
ag1636
ag1639
ag2782
ag2780
ag376
asg86
(lp4571
g1531
ag1383
ag75
ag1537
ag78
ag1380
ag90
ag1392
ag1386
ag365
asg539
(lp4572
g1003
ag1006
ag1012
ag614
ag534
ag537
ag546
ag1009
ag549
ag552
asg2937
(lp4573
g2373
ag3138
ag2944
ag1890
ag2484
ag3466
ag2953
ag2376
ag1389
ag1896
asg1128
(lp4574
g370
ag69
ag2171
ag1135
ag1117
ag1120
ag373
ag376
ag93
ag1114
asg3937
(lp4575
g40
ag43
ag46
ag49
ag233
ag55
ag64
ag267
ag61
ag804
asg3099
(lp4576
g233
ag40
ag46
ag49
ag706
ag3740
ag55
ag3102
ag61
ag64
asg1831
(lp4577
g373
ag879
ag882
ag1823
ag1826
ag1829
ag2991
ag2993
ag2996
ag2988
asg1108
(lp4578
g917
ag3180
ag926
ag3106
ag929
ag299
ag1069
ag3218
ag2217
ag1842
asg986
(lp4579
g975
ag978
ag40
ag1263
ag981
ag984
ag990
ag993
ag996
ag999
asg896
(lp4580
g1038
ag2319
ag888
ag1126
ag2991
ag891
ag894
ag2996
ag871
ag903
asg3339
(lp4581
g3337
ag49
ag40
ag3749
ag3751
ag3343
ag3346
ag3352
ag61
ag3753
asg68
(lp4582
g2792
ag3372
ag2481
ag2795
ag1380
ag2315
ag469
ag3394
ag3817
ag179
asg744
(lp4583
g1377
ag1882
ag751
ag754
ag2481
ag2484
ag3170
ag1865
ag760
ag478
asg1228
(lp4584
g1205
ag1208
ag1211
ag2490
ag1214
ag2493
ag2322
ag1220
ag1223
ag1232
asg1097
(lp4585
g3944
ag437
ag431
ag1367
ag440
ag1370
ag443
ag2508
ag3096
ag3404
asg2132
(lp4586
g720
ag1932
ag14
ag113
ag2124
ag2857
ag3128
ag3979
ag734
ag1056
asg2480
(lp4587
g1879
ag1377
ag147
ag2335
ag491
ag2338
ag2484
ag150
ag2341
ag3045
asg2537
(lp4588
g451
ag3269
ag457
ag463
ag2057
ag475
ag3725
ag466
ag4007
ag478
asg527
(lp4589
g2428
ag1929
ag2909
ag2431
ag2443
ag23
ag1050
ag1935
ag29
ag555
asg4027
(lp4590
g700
ag3090
ag428
ag2689
ag3093
ag2868
ag4033
ag2116
ag3096
ag446
asg1192
(lp4591
g2696
ag1178
ag1554
ag560
ag563
ag772
ag569
ag784
ag575
ag578
asg657
(lp4592
g1309
ag40
ag1763
ag49
ag1765
ag2162
ag2620
ag2625
ag3603
ag61
asg747
(lp4593
g1882
ag1887
ag1890
ag3170
ag2486
ag1893
ag185
ag1896
ag478
ag179
asg2517
(lp4594
g2332
ag40
ag2193
ag2521
ag236
ag61
ag472
ag2524
ag2530
ag64
asg2207
(lp4595
g40
ag2805
ag3536
ag572
ag2211
ag245
ag1473
ag2596
ag2214
ag4248
asg2680
(lp4596
g2666
ag2604
ag2669
ag2607
ag2672
ag2707
ag2710
ag2713
ag2716
ag2678
asg3517
(lp4597
g808
ag1256
ag40
ag49
ag823
ag3521
ag64
ag829
ag61
ag3524
asg3247
(lp4598
g40
ag43
ag3245
ag49
ag233
ag55
ag46
ag3084
ag61
ag64
asg884
(lp4599
g1624
ag72
ag1534
ag1633
ag2279
ag2289
ag2840
ag96
ag3008
ag2782
asg3371
(lp4600
g320
ag591
ag314
ag2335
ag2338
ag597
ag213
ag3394
ag3817
ag3619
asg3294
(lp4601
g3292
ag2231
ag2234
ag2449
ag2228
ag2237
ag2324
ag2327
ag2243
ag2246
asg412
(lp4602
g1709
ag920
ag907
ag932
ag910
ag407
ag935
ag1724
ag1727
ag941
asg916
(lp4603
g2696
ag923
ag566
ag584
ag1457
ag2211
ag1454
ag1467
ag587
ag2217
asg4291
(lp4604
g4299
ag4028
ag3090
ag428
ag2689
ag3093
ag2868
ag4031
ag4033
ag4301
asg3460
(lp4605
g3446
ag2775
ag3449
ag2568
ag3452
ag2659
ag3455
ag3213
ag2562
ag3458
asg244
(lp4606
g646
ag233
ag49
ag242
ag1666
ag661
ag64
ag667
ag61
ag40
asg3364
(lp4607
g2935
ag2938
ag353
ag2941
ag2944
ag2947
ag2950
ag3856
ag2953
ag2956
asg3627
(lp4608
g40
ag43
ag46
ag49
ag233
ag55
ag1967
ag3630
ag61
ag64
asg1969
(lp4609
g3569
ag3563
ag3566
ag1961
ag3572
ag3575
ag3578
ag1964
ag804
ag3584
asg346
(lp4610
g69
ag75
ag350
ag84
ag359
ag362
ag2800
ag2085
ag385
ag365
asg2173
(lp4611
g69
ag3817
ag347
ag191
ag84
ag3394
ag2800
ag3372
ag385
ag2530
asg1156
(lp4612
g3292
ag1139
ag2449
ag1145
ag2324
ag3295
ag1142
ag3298
ag3128
ag1015
asg28
(lp4613
g2773
ag2728
ag2759
ag2778
ag2872
ag2846
ag2849
ag23
ag2767
ag3252
asg622
(lp4614
g2384
ag614
ag534
ag632
ag537
ag540
ag1705
ag3254
ag549
ag1696
asS'murmurant'
p4615
(lp4616
g249
ag252
ag46
ag49
ag55
ag255
ag258
ag261
ag264
ag267
asg1656
(lp4617
g49
ag233
a(S'rushed'
p4618
g3046
tp4619
ag1660
ag3084
ag3050
ag2625
ag64
ag61
ag40
asg1501
(lp4620
g40
ag43
ag46
ag49
ag55
ag1508
ag264
ag267
ag61
ag64
asg2230
(lp4621
g2228
ag2240
ag3002
ag3005
ag1123
ag2455
ag1132
ag3072
ag2243
ag2282
asg266
(lp4622
g249
ag252
ag46
ag49
ag55
ag255
ag258
ag261
ag264
ag267
asg1008
(lp4623
g2169
ag2471
ag3641
ag1627
ag2743
ag885
ag2991
ag3324
ag2440
ag1114
asg1828
(lp4624
g373
ag879
ag1823
ag1826
ag882
ag2991
ag2993
ag2996
ag1832
ag2988
asg2383
(lp4625
g2906
ag1696
ag1929
ag888
ag2675
ag26
ag546
ag3213
ag958
ag1053
asg1334
(lp4626
g3040
ag2142
ag1338
ag3209
ag3034
ag1349
ag1352
ag1355
ag1358
ag1360
asg3089
(lp4627
g700
ag40
ag428
ag2689
ag3093
ag3740
ag2116
ag3096
ag446
ag1551
as.