(lp0
(S'en_unif2'
p1
S'fr_unif2'
p2
tp3
a(g1
S'fr_bi2'
p4
tp5
a(S'en_bi2'
p6
g2
tp7
a(g6
g4
tp8
a(g1
S'fr_uni2'
p9
tp10
a(g1
S'fr_bi3'
p11
tp12
a(g1
S'fr_bi4'
p13
tp14
a(g1
S'fr_uni4'
p15
tp16
a(S'en_uni3'
p17
g2
tp18
a(g1
S'fr_uni3'
p19
tp20
a(S'en_bi3'
p21
g2
tp22
a(S'en_uni2'
p23
g2
tp24
a(g6
g9
tp25
a(g6
g11
tp26
a(g21
g4
tp27
a(g17
g4
tp28
a(g23
g4
tp29
a(g6
g13
tp30
a(g6
g15
tp31
a(g1
S'fr_unif3'
p32
tp33
a(g6
g19
tp34
a(S'en_uni4'
p35
g2
tp36
a(g17
g11
tp37
a(g21
g11
tp38
a(g23
g9
tp39
a(g17
g9
tp40
a(g21
g9
tp41
a(g35
g4
tp42
a(g23
g11
tp43
a(g21
g13
tp44
a(g6
g32
tp45
a(g17
g13
tp46
a(g17
g15
tp47
a(g21
g15
tp48
a(g21
g19
tp49
a(g17
g19
tp50
a(g23
g15
tp51
a(g23
g13
tp52
a(g35
g11
tp53
a(g23
g19
tp54
a(g35
g9
tp55
a(S'en_bi4'
p56
g2
tp57
a(g21
g32
tp58
a(g17
g32
tp59
a(g35
g13
tp60
a(g35
g15
tp61
a(g35
g19
tp62
a(g56
g4
tp63
a(g23
g32
tp64
a(g35
g32
tp65
a(g56
g11
tp66
a(g56
g9
tp67
a(g56
g15
tp68
a(g56
g13
tp69
a(g56
g19
tp70
a(g56
g32
tp71
a(S'en_unif3'
p72
g2
tp73
a(g72
g4
tp74
a(g72
g11
tp75
a(g72
g15
tp76
a(g72
g13
tp77
a(g72
g9
tp78
a(g72
g32
tp79
a(g72
g19
tp80
a(S'en_unif4'
p81
S'fr_unif4'
p82
tp83
a(g81
g2
tp84
a(g81
g4
tp85
a(g81
g11
tp86
a(g81
g13
tp87
a(g81
g15
tp88
a(g81
g9
tp89
a(g81
g19
tp90
a(g81
g32
tp91
a(g1
g82
tp92
a(g6
g82
tp93
a(g17
g82
tp94
a(g56
g82
tp95
a(g21
g82
tp96
a(g35
g82
tp97
a(g23
g82
tp98
a(g72
g82
tp99
a.