(dp0
S'r\xc3\xa9veiller'
p1
(lp2
S'wake'
p3
asS'grossier'
p4
(lp5
S'rude'
p6
asS'ron'
p7
(lp8
S'ron'
p9
asS'pass\xc3\xa9'
p10
(lp11
S'past'
p12
aS'passed'
p13
asS'dessus'
p14
(lp15
S'above'
p16
asS'trappe'
p17
(lp18
S'trapdoor'
p19
asS'gronda'
p20
(lp21
S'snarled'
p22
asS'\xc3\xa9veill\xc3\xa9'
p23
(lp24
S'awake'
p25
asS'r\xc3\xaaver'
p26
(lp27
S'dream'
p28
asS'r\xc3\xaaves'
p29
(lp30
S'dreams'
p31
asS'veut'
p32
(lp33
S'wants'
p34
asS'\xc3\xa9t\xc3\xa9'
p35
(lp36
S'summer'
p37
asS'retour'
p38
(lp39
S'return'
p40
asS'aider'
p41
(lp42
S'help'
p43
asS'\xc3\xa9clat'
p44
(lp45
S'burst'
p46
asS'minuscule'
p47
(lp48
S'tiny'
p49
asS'privet'
p50
(lp51
g50
asS'facilement'
p52
(lp53
S'easily'
p54
asS'interdit'
p55
(lp56
S'forbidden'
p57
asS'devenir'
p58
(lp59
S'becoming'
p60
aS'become'
p61
asS'donner'
p62
(lp63
S'give'
p64
asS'plan\xc3\xa8tes'
p65
(lp66
S'planets'
p67
asS'fum\xc3\xa9e'
p68
(lp69
S'smoke'
p70
asS'fon\xc3\xa7ait'
p71
(lp72
S'hurtled'
p73
asS'rouleau'
p74
(lp75
S'roll'
p76
asS'passage'
p77
(lp78
S'passageway'
p79
aS'passage'
p80
aS'passing'
p81
asS'victoire'
p82
(lp83
S'win'
p84
asS'malheureusement'
p85
(lp86
S'unfortunately'
p87
asS'pr\xc3\xaat\xc3\xa9'
p88
(lp89
S'lent'
p90
asS'sens'
p91
(lp92
S'sense'
p93
asS'faible'
p94
(lp95
S'weak'
p96
aS'low'
p97
aS'faint'
p98
asS'sifflet'
p99
(lp100
S'whistle'
p101
asS'tabouret'
p102
(lp103
S'stool'
p104
asS'ph\xc3\xa9nix'
p105
(lp106
S'phoenix'
p107
asS'honte'
p108
(lp109
S'shame'
p110
asS'figg'
p111
(lp112
S'figg'
p113
asS'vers'
p114
(lp115
S'toward'
p116
asS'vert'
p117
(lp118
S'green'
p119
asS'bonbons'
p120
(lp121
S'candy'
p122
aS'sweets'
p123
asS'neuf'
p124
(lp125
S'nine'
p126
asS'soir\xc3\xa9e'
p127
(lp128
S'evening'
p129
asS'robes'
p130
(lp131
S'robes'
p132
asS'invisible'
p133
(lp134
S'invisible'
p135
asS'froid'
p136
(lp137
S'cold'
p138
asS'rogue'
p139
(lp140
S'snape'
p141
aS'snapes'
p142
asS'erreur'
p143
(lp144
S'mistake'
p145
asS'voix'
p146
(lp147
S'voice'
p148
aS'voices'
p149
asS'surprise'
p150
(lp151
S'surprise'
p152
asS'garder'
p153
(lp154
S'keep'
p155
asS'tranquillement'
p156
(lp157
S'quietly'
p158
asS'minute'
p159
(lp160
S'minute'
p161
asS'examens'
p162
(lp163
S'exams'
p164
asS'yeux'
p165
(lp166
S'eyes'
p167
asS'magie'
p168
(lp169
S'wizardry'
p170
aS'magic'
p171
asS'rideaux'
p172
(lp173
S'curtains'
p174
asS'sans'
p175
(lp176
S'without'
p177
asS'mauvais'
p178
(lp179
S'bad'
p180
asS'extr\xc3\xa9mit\xc3\xa9s'
p181
(lp182
S'ends'
p183
asS'courrier'
p184
(lp185
S'mail'
p186
aS'letters'
p187
asS'notes'
p188
(lp189
S'notes'
p190
asS'\xc3\xa9tages'
p191
(lp192
S'floors'
p193
asS'poitrine'
p194
(lp195
S'chest'
p196
asS'large'
p197
(lp198
S'wide'
p199
asS'demand\xc3\xa9'
p200
(lp201
S'asked'
p202
aS'wondered'
p203
asS'\xc3\xa9tourdi'
p204
(lp205
S'stunned'
p206
asS'dix'
p207
(lp208
S'ten'
p209
asS'porter'
p210
(lp211
S'wearing'
p212
aS'carry'
p213
aS'bear'
p214
asS'cadeaux'
p215
(lp216
S'presents'
p217
asS'harry'
p218
(lp219
g218
asS'dit'
p220
(lp221
S'told'
p222
aS'says'
p223
asS'trouver'
p224
(lp225
S'find'
p226
asS'attendre'
p227
(lp228
S'wait'
p229
aS'expect'
p230
asS'\xc3\xa9pingl\xc3\xa9'
p231
(lp232
S'pinned'
p233
asS'saut\xc3\xa9'
p234
(lp235
S'jumped'
p236
asS'ville'
p237
(lp238
S'town'
p239
asS'cher'
p240
(lp241
S'dear'
p242
asS'journ\xc3\xa9es'
p243
(lp244
S'days'
p245
asS'force'
p246
(lp247
S'force'
p248
asS'doigts'
p249
(lp250
S'fingers'
p251
asS'mcgonagall'
p252
(lp253
g252
asS'histoire'
p254
(lp255
S'history'
p256
aS'story'
p257
asS'bacon'
p258
(lp259
S'bacon'
p260
asS's\xc3\xbbrement'
p261
(lp262
S'certainly'
p263
asS'relev\xc3\xa9'
p264
(lp265
S'raised'
p266
asS'd\xc3\xa9cid\xc3\xa9'
p267
(lp268
S'decided'
p269
asS'pr\xc3\xa9fet'
p270
(lp271
S'prefect'
p272
asS'droit'
p273
(lp274
S'straight'
p275
asS'pleurs'
p276
(lp277
S'crying'
p278
asS'b\xc3\xa9b\xc3\xa9'
p279
(lp280
S'baby'
p281
asS'pr\xc3\xa9venir'
p282
(lp283
S'warn'
p284
asS'forc\xc3\xa9'
p285
(lp286
S'forced'
p287
asS'parfois'
p288
(lp289
S'sometimes'
p290
asS'trop'
p291
(lp292
S'too'
p293
asS'r\xc3\xa9sultats'
p294
(lp295
S'results'
p296
asS'\xc3\xa9tonn\xc3\xa9'
p297
(lp298
S'amazed'
p299
asS'filles'
p300
(lp301
S'girls'
p302
asS'courageux'
p303
(lp304
S'braver'
p305
aS'brave'
p306
asS'nez'
p307
(lp308
S'nose'
p309
aS'noses'
p310
asS'sur'
p311
(lp312
S'onto'
p313
asS'fr\xc3\xa9n\xc3\xa9tiquement'
p314
(lp315
S'frantically'
p316
asS'aile'
p317
(lp318
S'wing'
p319
asS'grenouilles'
p320
(lp321
S'frogs'
p322
asS'chaleur'
p323
(lp324
S'warmth'
p325
asS'leviosa'
p326
(lp327
S'leviosa'
p328
asS'nicholas'
p329
(lp330
S'nicholas'
p331
asS'ginny'
p332
(lp333
S'ginny'
p334
asS'balle'
p335
(lp336
S'ball'
p337
asS'flottant'
p338
(lp339
S'floating'
p340
asS'sortil\xc3\xa8ge'
p341
(lp342
S'spell'
p343
asS'angelina'
p344
(lp345
S'angelina'
p346
asS'chose'
p347
(lp348
S'thing'
p349
asS'd\xc3\xa9licieux'
p350
(lp351
S'delicious'
p352
asS'arr\xc3\xaater'
p353
(lp354
S'stop'
p355
asS'tenue'
p356
(lp357
S'holding'
p358
asS'toucher'
p359
(lp360
S'touch'
p361
asS'mer'
p362
(lp363
S'sea'
p364
asS'c\xc3\xb4t\xc3\xa9'
p365
(lp366
S'side'
p367
asS'r\xc3\xa9ponse'
p368
(lp369
S'answer'
p370
asS'\xc3\xa9trangement'
p371
(lp372
S'strangely'
p373
asS'temp\xc3\xaate'
p374
(lp375
S'storm'
p376
asS'ombres'
p377
(lp378
S'shadows'
p379
asS'maman'
p380
(lp381
S'mum'
p382
aS'mom'
p383
asS'moyens'
p384
(lp385
S'means'
p386
aS'ways'
p387
asS'neville'
p388
(lp389
g388
asS'connaissance'
p390
(lp391
S'knowing'
p392
asS'voli\xc3\xa8re'
p393
(lp394
S'owlery'
p395
asS'jet\xc3\xa9'
p396
(lp397
S'thrown'
p398
asS'beaucoup'
p399
(lp400
S'lots'
p401
aS'much'
p402
aS'many'
p403
asS'r\xc3\xa8gle'
p404
(lp405
S'rule'
p406
asS'permis'
p407
(lp408
S'allowed'
p409
asS'lentement'
p410
(lp411
S'slowly'
p412
asS'fabriqu\xc3\xa9'
p413
(lp414
S'made'
p415
asS'bol'
p416
(lp417
S'bowl'
p418
asS'verre'
p419
(lp420
S'glass'
p421
asS'poche'
p422
(lp423
S'pocket'
p424
asS'olivier'
p425
(lp426
S'oliver'
p427
asS'flamel'
p428
(lp429
S'flamel'
p430
asS'couloir'
p431
(lp432
S'corridor'
p433
asS'mouvement'
p434
(lp435
S'move'
p436
asS'roumanie'
p437
(lp438
S'romania'
p439
asS'reste'
p440
(lp441
S'rest'
p442
asS'pendant'
p443
(lp444
S'during'
p445
asS'pause'
p446
(lp447
S'break'
p448
asS'lourd'
p449
(lp450
S'heavy'
p451
asS'vif'
p452
(lp453
S'snitch'
p454
asS'danger'
p455
(lp456
S'danger'
p457
asS'regard\xc3\xa9'
p458
(lp459
S'stared'
p460
aS'watched'
p461
aS'looked'
p462
asS'apr\xc3\xa8s'
p463
(lp464
S'after'
p465
asS'londres'
p466
(lp467
S'london'
p468
asS'estomac'
p469
(lp470
S'stomach'
p471
asS'feuilles'
p472
(lp473
S'leaves'
p474
aS'sheets'
p475
asS'licornes'
p476
(lp477
S'unicorns'
p478
asS'minuit'
p479
(lp480
S'midnight'
p481
asS'entreprise'
p482
(lp483
S'business'
p484
asS'avidement'
p485
(lp486
S'eagerly'
p487
asS'vide'
p488
(lp489
S'emptied'
p490
aS'empty'
p491
asS'chaud'
p492
(lp493
S'warm'
p494
aS'hot'
p495
asS'bient\xc3\xb4t'
p496
(lp497
S'soon'
p498
asS'huit'
p499
(lp500
S'eight'
p501
asS't\xc3\xa9l\xc3\xa9phone'
p502
(lp503
S'telephone'
p504
asS'dents'
p505
(lp506
S'teeth'
p507
asS'raide'
p508
(lp509
S'stiffly'
p510
asS'oreille'
p511
(lp512
S'ear'
p513
asS'serpent'
p514
(lp515
S'snake'
p516
asS'commun'
p517
(lp518
S'common'
p519
asS'rencontr\xc3\xa9'
p520
(lp521
S'met'
p522
asS'fr\xc3\xa8re'
p523
(lp524
S'brother'
p525
asS'chemin\xc3\xa9e'
p526
(lp527
S'fireplace'
p528
asS'trouv\xc3\xa9'
p529
(lp530
S'found'
p531
asS'voudrais'
p532
(lp533
S'would'
p534
asS'feu'
p535
(lp536
S'fire'
p537
asS'quirrell'
p538
(lp539
S'quirrells'
p540
ag538
asS'marmonn\xc3\xa9'
p541
(lp542
S'mumbled'
p543
asS'fr\xc3\xa8res'
p544
(lp545
S'brothers'
p546
asS'montr\xc3\xa9'
p547
(lp548
S'showed'
p549
asS'rugit'
p550
(lp551
S'roared'
p552
asS'odeur'
p553
(lp554
S'smell'
p555
asS'assez'
p556
(lp557
S'quite'
p558
aS'enough'
p559
aS'pretty'
p560
asS'regarder'
p561
(lp562
S'watch'
p563
aS'watching'
p564
aS'staring'
p565
asS'possession'
p566
(lp567
S'possession'
p568
asS'm\xc3\xa9lange'
p569
(lp570
S'mixture'
p571
asS'paroles'
p572
(lp573
S'words'
p574
asS'mois'
p575
(lp576
S'months'
p577
asS'pratique'
p578
(lp579
S'practice'
p580
asS'lointain'
p581
(lp582
S'distant'
p583
asS'points'
p584
(lp585
S'points'
p586
asS'nimbus'
p587
(lp588
S'nimbus'
p589
asS'derri\xc3\xa8re'
p590
(lp591
S'behind'
p592
asS'billet'
p593
(lp594
S'ticket'
p595
asS'hein'
p596
(lp597
S'eh'
p598
asS'excuse'
p599
(lp600
S'excuse'
p601
asS'appel'
p602
(lp603
S'call'
p604
asS'si\xc3\xa8ge'
p605
(lp606
S'seat'
p607
asS'excellent'
p608
(lp609
S'excellent'
p610
asS'soudain'
p611
(lp612
S'sudden'
p613
aS'suddenly'
p614
asS'sorci\xc3\xa8re'
p615
(lp616
S'witch'
p617
asS's\xc3\xa9ance'
p618
(lp619
S'sitting'
p620
asS'ronan'
p621
(lp622
S'ronan'
p623
asS'corps'
p624
(lp625
S'body'
p626
asS'gauche'
p627
(lp628
S'left'
p629
asS'ma'
p630
(lp631
S'my'
p632
asS'jeune'
p633
(lp634
S'younger'
p635
aS'young'
p636
asS'semble'
p637
(lp638
S'seems'
p639
asS'cas'
p640
(lp641
S'case'
p642
asS'\xc3\xa9lixir'
p643
(lp644
S'elixir'
p645
asS'esp\xc3\xa9r\xc3\xa9'
p646
(lp647
S'hoped'
p648
asS'g\xc3\xa2teau'
p649
(lp650
S'cake'
p651
asS'arbal\xc3\xa8te'
p652
(lp653
S'crossbow'
p654
asS'sous'
p655
(lp656
S'under'
p657
aS'beneath'
p658
asS'agita'
p659
(lp660
S'waved'
p661
asS'hermione'
p662
(lp663
S'hermione'
p664
asS'pauvres'
p665
(lp666
S'poor'
p667
asS'sommeil'
p668
(lp669
S'sleep'
p670
asS'ricana'
p671
(lp672
S'chuckled'
p673
asS'garou'
p674
(lp675
S'werewolf'
p676
asS'route'
p677
(lp678
S'road'
p679
asS'enfant'
p680
(lp681
S'kid'
p682
asS'diff\xc3\xa9rence'
p683
(lp684
S'difference'
p685
asS'lettre'
p686
(lp687
S'letter'
p688
asS'hagrid'
p689
(lp690
S'hagrid'
p691
asS'hamburger'
p692
(lp693
S'hamburger'
p694
asS'visage'
p695
(lp696
S'face'
p697
asS'figure'
p698
(lp699
S'figure'
p700
asS'profond\xc3\xa9ment'
p701
(lp702
S'deeply'
p703
asS'halloween'
p704
(lp705
g704
asS'int\xc3\xa9ress\xc3\xa9'
p706
(lp707
S'interested'
p708
asS'dragons'
p709
(lp710
S'dragons'
p711
asS'd\xc3\xa9couverte'
p712
(lp713
S'finding'
p714
asS'couvert'
p715
(lp716
S'covered'
p717
asS'visite'
p718
(lp719
S'visit'
p720
asS'barri\xc3\xa8re'
p721
(lp722
S'barrier'
p723
asS'p\xc3\xa2le'
p724
(lp725
S'pale'
p726
asS'gar\xc3\xa7on'
p727
(lp728
S'boy'
p729
asS'rayon'
p730
(lp731
S'spoke'
p732
asS'genou'
p733
(lp734
S'knee'
p735
asS'r\xc3\xa9el'
p736
(lp737
S'real'
p738
asS'clair'
p739
(lp740
S'bright'
p741
aS'clear'
p742
asS'hangar'
p743
(lp744
S'shed'
p745
asS'pi\xc3\xa8ces'
p746
(lp747
S'coins'
p748
aS'pieces'
p749
asS'glace'
p750
(lp751
S'ice'
p752
asS'cours'
p753
(lp754
S'course'
p755
asS'court'
p756
(lp757
S'short'
p758
asS'battre'
p759
(lp760
S'beat'
p761
asS'soleil'
p762
(lp763
S'sun'
p764
asS'r\xc3\xaav\xc3\xa9'
p765
(lp766
S'dreamed'
p767
asS's\xc3\xbbr'
p768
(lp769
S'sure'
p770
asS'remarqu\xc3\xa9'
p771
(lp772
S'noticed'
p773
asS'six'
p774
(lp775
S'six'
p776
asS'conduire'
p777
(lp778
S'lead'
p779
asS'pr\xc3\xa9cipit\xc3\xa9'
p780
(lp781
S'rushed'
p782
asS'rapport'
p783
(lp784
S'report'
p785
asS'juste'
p786
(lp787
S'fair'
p788
asS'calme'
p789
(lp790
S'calm'
p791
aS'quiet'
p792
asS'clairi\xc3\xa8re'
p793
(lp794
S'clearing'
p795
asS'beau'
p796
(lp797
S'beautiful'
p798
asS'volant'
p799
(lp800
S'flying'
p801
asS'\xc3\xa9cole'
p802
(lp803
S'school'
p804
asS'conseil'
p805
(lp806
S'board'
p807
asS'ensemble'
p808
(lp809
S'together'
p810
aS'set'
p811
aS'whole'
p812
asS'capitaine'
p813
(lp814
S'captain'
p815
asS'citrouille'
p816
(lp817
S'pumpkin'
p818
asS'difficult\xc3\xa9'
p819
(lp820
S'trouble'
p821
aS'struggling'
p822
asS'pois'
p823
(lp824
S'peas'
p825
asS'probablement'
p826
(lp827
S'probably'
p828
asS'cuisine'
p829
(lp830
S'kitchen'
p831
asS'notre'
p832
(lp833
S'our'
p834
asS'vol\xc3\xa9'
p835
(lp836
S'flew'
p837
asS't\xc3\xb4t'
p838
(lp839
S'early'
p840
asS'lac'
p841
(lp842
S'lake'
p843
asS'dr\xc3\xb4le'
p844
(lp845
S'funny'
p846
asS'extr\xc3\xaamement'
p847
(lp848
S'extremely'
p849
asS'horreur'
p850
(lp851
S'horror'
p852
asS'fracas'
p853
(lp854
S'crash'
p855
asS'bouteille'
p856
(lp857
S'bottle'
p858
asS'heure'
p859
(lp860
S'hour'
p861
asS'mal'
p862
(lp863
S'badly'
p864
aS'wrong'
p865
aS'evil'
p866
asS'tordu'
p867
(lp868
S'twisted'
p869
asS'a'
p870
(lp871
S'has'
p872
asS'\xc3\xa9quipe'
p873
(lp874
S'team'
p875
asS'trois'
p876
(lp877
S'three'
p878
asS'endormi'
p879
(lp880
S'asleep'
p881
asS'johnson'
p882
(lp883
S'johnson'
p884
asS'facile'
p885
(lp886
S'easy'
p887
asS'nouvelles'
p888
(lp889
S'news'
p890
asS'noises'
p891
(lp892
S'knuts'
p893
asS'avant'
p894
(lp895
S'before'
p896
aS'forward'
p897
aS'front'
p898
asS'dortoir'
p899
(lp900
S'dormitory'
p901
asS'dragon'
p902
(lp903
S'dragon'
p904
asS'bo\xc3\xaete'
p905
(lp906
S'box'
p907
aS'can'
p908
asS'si'
p909
(lp910
S'whether'
p911
asS'horloge'
p912
(lp913
S'clock'
p914
asS'serrant'
p915
(lp916
S'clutching'
p917
asS'silence'
p918
(lp919
S'silence'
p920
asS'enchant\xc3\xa9'
p921
(lp922
S'bewitched'
p923
asS'poudlard'
p924
(lp925
S'hogwarts'
p926
asS'nous'
p927
(lp928
S'us'
p929
asS'chien'
p930
(lp931
S'dog'
p932
asS'seamus'
p933
(lp934
S'seamus'
p935
asS'patil'
p936
(lp937
S'patil'
p938
asS'd\xc3\xa9m\xc3\xa9nag\xc3\xa9'
p939
(lp940
S'moved'
p941
asS'mieux'
p942
(lp943
S'better'
p944
asS'signe'
p945
(lp946
S'sign'
p947
asS'sonner'
p948
(lp949
S'sound'
p950
asS'serdaigle'
p951
(lp952
S'ravenclaw'
p953
asS'peur'
p954
(lp955
S'afraid'
p956
aS'fear'
p957
asS'cl\xc3\xa9'
p958
(lp959
S'key'
p960
asS'finnigan'
p961
(lp962
S'finnigan'
p963
asS'ordre'
p964
(lp965
S'order'
p966
asS'rire'
p967
(lp968
S'laughter'
p969
aS'laughing'
p970
aS'laugh'
p971
asS'rang'
p972
(lp973
S'rang'
p974
asS'peut'
p975
(lp976
S'may'
p977
asS'd\xc3\xa9cider'
p978
(lp979
S'decide'
p980
asS'course'
p981
(lp982
S'run'
p983
asS'd\xc3\xa9gag\xc3\xa9'
p984
(lp985
S'cleared'
p986
asS'donn\xc3\xa9'
p987
(lp988
S'gave'
p989
aS'given'
p990
asS'secou\xc3\xa9'
p991
(lp992
S'rattled'
p993
asS'pieds'
p994
(lp995
S'feet'
p996
asS'famille'
p997
(lp998
S'family'
p999
asS'tournant'
p1000
(lp1001
S'turning'
p1002
asS'pencha'
p1003
(lp1004
S'leaned'
p1005
asS'lettres'
p1006
(lp1007
S'arts'
p1008
asS'confiance'
p1009
(lp1010
S'trust'
p1011
asS'maisons'
p1012
(lp1013
S'houses'
p1014
asS'ext\xc3\xa9rieur'
p1015
(lp1016
S'outside'
p1017
asS'changement'
p1018
(lp1019
S'change'
p1020
asS'joyeusement'
p1021
(lp1022
S'merrily'
p1023
asS'exclu'
p1024
(lp1025
S'expelled'
p1026
asS'fen\xc3\xaatres'
p1027
(lp1028
S'windows'
p1029
asS'vivant'
p1030
(lp1031
S'alive'
p1032
asS'choses'
p1033
(lp1034
S'things'
p1035
asS'turban'
p1036
(lp1037
S'turban'
p1038
asS'pays'
p1039
(lp1040
S'country'
p1041
asS'pr\xc3\xa9tendre'
p1042
(lp1043
S'pretend'
p1044
asS'rapeltout'
p1045
(lp1046
S'remembrall'
p1047
asS'main'
p1048
(lp1049
S'hand'
p1050
aS'handed'
p1051
asS'fin'
p1052
(lp1053
S'end'
p1054
asS'lire'
p1055
(lp1056
S'read'
p1057
asS'mettre'
p1058
(lp1059
S'put'
p1060
asS'nom'
p1061
(lp1062
S'name'
p1063
asS'vivre'
p1064
(lp1065
S'live'
p1066
asS't\xc3\xaates'
p1067
(lp1068
S'heads'
p1069
asS'col\xc3\xa8re'
p1070
(lp1071
S'anger'
p1072
asS'personne'
p1073
(lp1074
S'nobody'
p1075
aS'anyone'
p1076
aS'person'
p1077
asS'apprendre'
p1078
(lp1079
S'learn'
p1080
asS'sortes'
p1081
(lp1082
S'sorts'
p1083
asS'ces'
p1084
(lp1085
S'these'
p1086
asS'nombre'
p1087
(lp1088
S'number'
p1089
asS'front'
p1090
(lp1091
S'forehead'
p1092
asS'no\xc3\xabl'
p1093
(lp1094
S'christmas'
p1095
asS'p\xc3\xa9tunia'
p1096
(lp1097
S'petunia'
p1098
asS'batteurs'
p1099
(lp1100
S'beaters'
p1101
asS'gobelins'
p1102
(lp1103
S'goblins'
p1104
asS'tante'
p1105
(lp1106
S'aunt'
p1107
asS'enveloppe'
p1108
(lp1109
S'envelope'
p1110
asS'rencontrer'
p1111
(lp1112
S'meet'
p1113
asS'marcus'
p1114
(lp1115
S'marcus'
p1116
asS'pendre'
p1117
(lp1118
S'hang'
p1119
asS'tremblement'
p1120
(lp1121
S'twitching'
p1122
asS'james'
p1123
(lp1124
g1123
asS'porte'
p1125
(lp1126
S'door'
p1127
aS'doorway'
p1128
asS'tuer'
p1129
(lp1130
S'kill'
p1131
asS'loin'
p1132
(lp1133
S'away'
p1134
aS'far'
p1135
asS'vitesse'
p1136
(lp1137
S'speed'
p1138
asS'inqui\xc3\xa9ter'
p1139
(lp1140
S'worry'
p1141
asS'courses'
p1142
(lp1143
S'racing'
p1144
asS'granger'
p1145
(lp1146
S'granger'
p1147
asS'froidement'
p1148
(lp1149
S'coldly'
p1150
asS'mordre'
p1151
(lp1152
S'bite'
p1153
asS'choix'
p1154
(lp1155
S'choice'
p1156
asS'complet'
p1157
(lp1158
S'complete'
p1159
asS'saisi'
p1160
(lp1161
S'grabbed'
p1162
asS'crocs'
p1163
(lp1164
S'fangs'
p1165
asS'miroir'
p1166
(lp1167
S'mirror'
p1168
asS'oui'
p1169
(lp1170
S'yes'
p1171
asS't\xc3\xa9l\xc3\xa9vision'
p1172
(lp1173
S'television'
p1174
asS'lune'
p1175
(lp1176
S'moon'
p1177
asS'doux'
p1178
(lp1179
S'soft'
p1180
asS'secret'
p1181
(lp1182
S'secret'
p1183
asS'furieux'
p1184
(lp1185
S'furious'
p1186
asS'expliquer'
p1187
(lp1188
S'explain'
p1189
asS'autre'
p1190
(lp1191
S'another'
p1192
aS'else'
p1193
aS'other'
p1194
asS'laisse'
p1195
(lp1196
S'lets'
p1197
asS'impossible'
p1198
(lp1199
S'impossible'
p1200
asS'manche'
p1201
(lp1202
S'sleeve'
p1203
asS'homme'
p1204
(lp1205
S'man'
p1206
asS'troll'
p1207
(lp1208
S'troll'
p1209
asS'blesser'
p1210
(lp1211
S'hurt'
p1212
asS'secoua'
p1213
(lp1214
S'shook'
p1215
asS'sentiment'
p1216
(lp1217
S'feeling'
p1218
asS'sang'
p1219
(lp1220
S'blood'
p1221
asS'\xc3\xa9toiles'
p1222
(lp1223
S'stars'
p1224
asS'maudit'
p1225
(lp1226
S'cursed'
p1227
asS'boutique'
p1228
(lp1229
S'shop'
p1230
asS'appel\xc3\xa9'
p1231
(lp1232
S'called'
p1233
asS'enchantements'
p1234
(lp1235
S'enchantments'
p1236
asS'hurlement'
p1237
(lp1238
S'screaming'
p1239
asS'centaure'
p1240
(lp1241
S'centaur'
p1242
asS'valeur'
p1243
(lp1244
S'worth'
p1245
asS'si\xc3\xa8cle'
p1246
(lp1247
S'century'
p1248
asS'rien'
p1249
(lp1250
S'nothing'
p1251
aS'anything'
p1252
asS'lecture'
p1253
(lp1254
S'reading'
p1255
asS'\xc3\xa9crit'
p1256
(lp1257
S'written'
p1258
asS'nourriture'
p1259
(lp1260
S'food'
p1261
aS'eating'
p1262
asS'cause'
p1263
(lp1264
S'cause'
p1265
asS'albus'
p1266
(lp1267
S'albus'
p1268
asS'plaisanterie'
p1269
(lp1270
S'joking'
p1271
asS'baron'
p1272
(lp1273
S'baron'
p1274
asS'devant'
p1275
(lp1276
S'ahead'
p1277
asS'esprit'
p1278
(lp1279
S'mind'
p1280
asS'moiti\xc3\xa9'
p1281
(lp1282
S'half'
p1283
asS'nuit'
p1284
(lp1285
S'night'
p1286
asS'coin'
p1287
(lp1288
S'corner'
p1289
asS'fred'
p1290
(lp1291
S'fred'
p1292
asS'temps'
p1293
(lp1294
S'time'
p1295
asS'humeur'
p1296
(lp1297
S'temper'
p1298
aS'mood'
p1299
asS'que'
p1300
(lp1301
S'than'
p1302
asS'comprendre'
p1303
(lp1304
S'understand'
p1305
asS'dire'
p1306
(lp1307
S'tell'
p1308
aS'say'
p1309
asS'qui'
p1310
(lp1311
S'which'
p1312
asS'mars'
p1313
(lp1314
S'mars'
p1315
asS'cri'
p1316
(lp1317
S'shout'
p1318
aS'cry'
p1319
asS'gar\xc3\xa7ons'
p1320
(lp1321
S'boys'
p1322
asS'b\xc3\xa2ton'
p1323
(lp1324
S'stick'
p1325
asS'jeu'
p1326
(lp1327
S'game'
p1328
asS'\xc3\xa9norme'
p1329
(lp1330
S'enormous'
p1331
aS'huge'
p1332
asS'terrible'
p1333
(lp1334
S'terrible'
p1335
asS'puni'
p1336
(lp1337
S'punished'
p1338
asS'\xc3\xa9tage'
p1339
(lp1340
S'floor'
p1341
asS'paire'
p1342
(lp1343
S'pair'
p1344
asS'toit'
p1345
(lp1346
S'roof'
p1347
asS'mourir'
p1348
(lp1349
S'die'
p1350
asS'souvent'
p1351
(lp1352
S'often'
p1353
asS'potions'
p1354
(lp1355
S'potions'
p1356
asS'confus'
p1357
(lp1358
S'confused'
p1359
asS'ou\xc3\xafe'
p1360
(lp1361
S'ears'
p1362
asS'biblioth\xc3\xa8que'
p1363
(lp1364
S'library'
p1365
asS'disant'
p1366
(lp1367
S'saying'
p1368
asS'longue'
p1369
(lp1370
S'long'
p1371
asS'r\xc3\xa9p\xc3\xa9t\xc3\xa9'
p1372
(lp1373
S'repeated'
p1374
asS'tenir'
p1375
(lp1376
S'hold'
p1377
asS'arbres'
p1378
(lp1379
S'trees'
p1380
asS'question'
p1381
(lp1382
S'matter'
p1383
aS'question'
p1384
asS'compl\xc3\xa8tement'
p1385
(lp1386
S'completely'
p1387
asS'potter'
p1388
(lp1389
g1388
aS'potters'
p1390
asS'cria'
p1391
(lp1392
S'shouted'
p1393
aS'cried'
p1394
asS'tableaux'
p1395
(lp1396
S'tables'
p1397
asS'gardien'
p1398
(lp1399
S'keeper'
p1400
asS'cl\xc3\xa9s'
p1401
(lp1402
S'keys'
p1403
asS'heureusement'
p1404
(lp1405
S'happily'
p1406
asS'ris\xc3\xa9d'
p1407
(lp1408
S'erised'
p1409
asS'rempli'
p1410
(lp1411
S'filled'
p1412
asS'tel'
p1413
(lp1414
S'such'
p1415
asS'c\xc3\xa9l\xc3\xa9brer'
p1416
(lp1417
S'celebrating'
p1418
asS'george'
p1419
(lp1420
S'george'
p1421
asS'blanc'
p1422
(lp1423
S'white'
p1424
asS'passer'
p1425
(lp1426
S'pass'
p1427
asS'bois'
p1428
(lp1429
S'woods'
p1430
aS'wood'
p1431
asS'\xc3\xa9tudiants'
p1432
(lp1433
S'students'
p1434
asS'sait'
p1435
(lp1436
S'knows'
p1437
asS'bruissement'
p1438
(lp1439
S'rustling'
p1440
asS'convenu'
p1441
(lp1442
S'agreed'
p1443
asS'bleu'
p1444
(lp1445
S'blue'
p1446
asS'int\xc3\xa9r\xc3\xaat'
p1447
(lp1448
S'interest'
p1449
asS'noms'
p1450
(lp1451
S'names'
p1452
asS'contre'
p1453
(lp1454
S'against'
p1455
asS'jambe'
p1456
(lp1457
S'leg'
p1458
asS'savait'
p1459
(lp1460
S'knew'
p1461
asS'branches'
p1462
(lp1463
S'branches'
p1464
asS'visages'
p1465
(lp1466
S'faces'
p1467
asS'fatigu\xc3\xa9'
p1468
(lp1469
S'tired'
p1470
asS'demandant'
p1471
(lp1472
S'asking'
p1473
asS'\xc3\xa9coute'
p1474
(lp1475
S'listening'
p1476
asS'centaures'
p1477
(lp1478
S'centaurs'
p1479
asS'travail'
p1480
(lp1481
S'work'
p1482
asS'sentir'
p1483
(lp1484
S'feel'
p1485
asS'\xc3\xa9quipes'
p1486
(lp1487
S'teams'
p1488
asS'vraiment'
p1489
(lp1490
S'really'
p1491
asS'plusieurs'
p1492
(lp1493
S'several'
p1494
asS'peau'
p1495
(lp1496
S'skin'
p1497
asS'oppos\xc3\xa9'
p1498
(lp1499
S'opposite'
p1500
asS'regards'
p1501
(lp1502
S'looks'
p1503
asS'jordan'
p1504
(lp1505
g1504
asS'soupira'
p1506
(lp1507
S'sighed'
p1508
asS'couvertures'
p1509
(lp1510
S'blankets'
p1511
asS'tremblant'
p1512
(lp1513
S'trembling'
p1514
asS'bouche'
p1515
(lp1516
S'mouth'
p1517
asS'stup\xc3\xa9faction'
p1518
(lp1519
S'amazement'
p1520
asS'malade'
p1521
(lp1522
S'sick'
p1523
asS'pluie'
p1524
(lp1525
S'rain'
p1526
asS'souriant'
p1527
(lp1528
S'smiling'
p1529
asS'vie'
p1530
(lp1531
S'life'
p1532
aS'living'
p1533
asS'prendre'
p1534
(lp1535
S'take'
p1536
asS'cognards'
p1537
(lp1538
S'bludgers'
p1539
asS'myst\xc3\xa9rieux'
p1540
(lp1541
S'mysterious'
p1542
asS'tirer'
p1543
(lp1544
S'pull'
p1545
asS'double'
p1546
(lp1547
S'twin'
p1548
asS'professeur'
p1549
(lp1550
S'professor'
p1551
aS'teacher'
p1552
asS'aid\xc3\xa9'
p1553
(lp1554
S'helped'
p1555
asS'deuxi\xc3\xa8me'
p1556
(lp1557
S'second'
p1558
asS'r\xc3\xa9aliser'
p1559
(lp1560
S'realize'
p1561
asS'souterrain'
p1562
(lp1563
S'underground'
p1564
asS'merci'
p1565
(lp1566
S'thanks'
p1567
aS'thank'
p1568
asS'semblait'
p1569
(lp1570
S'seemed'
p1571
asS'souafle'
p1572
(lp1573
S'quaffle'
p1574
asS'connu'
p1575
(lp1576
S'known'
p1577
asS'timbre'
p1578
(lp1579
S'stamp'
p1580
asS'sec'
p1581
(lp1582
S'dry'
p1583
asS'bondit'
p1584
(lp1585
S'leapt'
p1586
asS'r\xc3\xa9veill\xc3\xa9'
p1587
(lp1588
S'woken'
p1589
aS'woke'
p1590
asS'abattre'
p1591
(lp1592
S'fell'
p1593
asS'\xc3\xa9cras\xc3\xa9'
p1594
(lp1595
S'crashed'
p1596
asS'cinquante'
p1597
(lp1598
S'fifty'
p1599
asS'plus'
p1600
(lp1601
S'more'
p1602
aS'most'
p1603
aS'anymore'
p1604
asS'respirer'
p1605
(lp1606
S'breathe'
p1607
asS'crapaud'
p1608
(lp1609
S'toad'
p1610
asS'sac'
p1611
(lp1612
S'bag'
p1613
asS'premier'
p1614
(lp1615
S'first'
p1616
asS'aussi'
p1617
(lp1618
S'also'
p1619
asS'lumi\xc3\xa8re'
p1620
(lp1621
S'light'
p1622
asS'frapper'
p1623
(lp1624
S'hit'
p1625
aS'knock'
p1626
asS'avide'
p1627
(lp1628
S'hungry'
p1629
asS'\xc3\xa2ge'
p1630
(lp1631
S'age'
p1632
aS'ages'
p1633
asS'uniforme'
p1634
(lp1635
S'uniform'
p1636
asS'sourit'
p1637
(lp1638
S'grinned'
p1639
aS'smiled'
p1640
asS'ans'
p1641
(lp1642
S'years'
p1643
asS'onze'
p1644
(lp1645
S'eleven'
p1646
asS'presque'
p1647
(lp1648
S'nearly'
p1649
aS'almost'
p1650
asS'reine'
p1651
(lp1652
S'queen'
p1653
asS'ollivander'
p1654
(lp1655
S'ollivander'
p1656
asS'troisi\xc3\xa8me'
p1657
(lp1658
S'third'
p1659
asS'm\xc3\xa9tamorphose'
p1660
(lp1661
S'transfiguration'
p1662
asS'jaune'
p1663
(lp1664
S'yellow'
p1665
asS'pr\xc3\xa8s'
p1666
(lp1667
S'close'
p1668
asS'jour'
p1669
(lp1670
S'day'
p1671
asS'paquet'
p1672
(lp1673
S'package'
p1674
asS'manger'
p1675
(lp1676
S'eat'
p1677
asS'severus'
p1678
(lp1679
S'severus'
p1680
asS'avertissement'
p1681
(lp1682
S'warning'
p1683
asS'zoo'
p1684
(lp1685
S'zoo'
p1686
asS'note'
p1687
(lp1688
S'note'
p1689
asS'perdre'
p1690
(lp1691
S'lose'
p1692
asS'herbes'
p1693
(lp1694
S'herbs'
p1695
asS'sandwiches'
p1696
(lp1697
S'sandwiches'
p1698
asS'deux'
p1699
(lp1700
S'two'
p1701
asS'occup\xc3\xa9'
p1702
(lp1703
S'busy'
p1704
asS'chaise'
p1705
(lp1706
S'chair'
p1707
asS'saucisses'
p1708
(lp1709
S'sausages'
p1710
asS'lily'
p1711
(lp1712
g1711
asS'douze'
p1713
(lp1714
S'twelve'
p1715
asS'suivi'
p1716
(lp1717
S'followed'
p1718
asS'salle'
p1719
(lp1720
S'room'
p1721
aS'hall'
p1722
asS'grossi\xc3\xa8rement'
p1723
(lp1724
S'roughly'
p1725
asS'combat'
p1726
(lp1727
S'fighting'
p1728
asS'normal'
p1729
(lp1730
S'normal'
p1731
asS'chiens'
p1732
(lp1733
S'dogs'
p1734
asS'agitant'
p1735
(lp1736
S'waving'
p1737
asS'bouteilles'
p1738
(lp1739
S'bottles'
p1740
asS'contr\xc3\xb4le'
p1741
(lp1742
S'control'
p1743
asS'nettement'
p1744
(lp1745
S'sharply'
p1746
asS'cordes'
p1747
(lp1748
S'ropes'
p1749
asS'plat'
p1750
(lp1751
S'flat'
p1752
asS'doit'
p1753
(lp1754
S'shall'
p1755
asS'ch\xc3\xaane'
p1756
(lp1757
S'oak'
p1758
asS'nerveux'
p1759
(lp1760
S'nervous'
p1761
asS'plan'
p1762
(lp1763
S'plan'
p1764
asS'dois'
p1765
(lp1766
S'gotta'
p1767
asS'tourn\xc3\xa9'
p1768
(lp1769
S'turned'
p1770
asS'grave'
p1771
(lp1772
S'serious'
p1773
asS'm\xc3\xa9chant'
p1774
(lp1775
S'nasty'
p1776
asS'silencieux'
p1777
(lp1778
S'silent'
p1779
asS'don'
p1780
(lp1781
S'don'
p1782
asS'seize'
p1783
(lp1784
S'sixteen'
p1785
asS'fier'
p1786
(lp1787
S'proud'
p1788
asS'drive'
p1789
(lp1790
S'drive'
p1791
asS'f\xc3\xaate'
p1792
(lp1793
S'feast'
p1794
asS'fille'
p1795
(lp1796
S'girl'
p1797
asS'cochon'
p1798
(lp1799
S'pig'
p1800
asS'part'
p1801
(lp1802
S'share'
p1803
asS'pointu'
p1804
(lp1805
S'pointed'
p1806
asS'arr\xc3\xaat\xc3\xa9'
p1807
(lp1808
S'stopped'
p1809
asS'jeter'
p1810
(lp1811
S'throw'
p1812
asS'd\xc3\xa9couvertes'
p1813
(lp1814
S'finds'
p1815
asS'section'
p1816
(lp1817
S'section'
p1818
asS'sorci\xc3\xa8res'
p1819
(lp1820
S'witches'
p1821
asS'obscurit\xc3\xa9'
p1822
(lp1823
S'darkness'
p1824
asS'chariot'
p1825
(lp1826
S'cart'
p1827
asS'entendre'
p1828
(lp1829
S'hear'
p1830
asS'diff\xc3\xa9rent'
p1831
(lp1832
S'different'
p1833
asS'anniversaire'
p1834
(lp1835
S'birthday'
p1836
asS'pr\xc3\xa9sent'
p1837
(lp1838
S'present'
p1839
asS'd\xc3\xa9part'
p1840
(lp1841
S'starting'
p1842
aS'leaving'
p1843
asS'imaginer'
p1844
(lp1845
S'imagine'
p1846
asS'mains'
p1847
(lp1848
S'hands'
p1849
asS'l\xc3\xa9g\xc3\xa8rement'
p1850
(lp1851
S'slightly'
p1852
asS'museau'
p1853
(lp1854
S'snout'
p1855
asS'toujours'
p1856
(lp1857
S'forever'
p1858
aS'always'
p1859
asS'fini'
p1860
(lp1861
S'done'
p1862
aS'finished'
p1863
asS'liste'
p1864
(lp1865
S'list'
p1866
asS'ma\xc3\xaetre'
p1867
(lp1868
S'master'
p1869
asS'murmura'
p1870
(lp1871
S'whispered'
p1872
aS'muttered'
p1873
aS'murmured'
p1874
asS'argent\xc3\xa9'
p1875
(lp1876
S'silvery'
p1877
asS'jeta'
p1878
(lp1879
S'threw'
p1880
asS'pris'
p1881
(lp1882
S'taken'
p1883
asS'h\xc3\xa9'
p1884
(lp1885
S'hey'
p1886
asS'boutiques'
p1887
(lp1888
S'shops'
p1889
asS'supporter'
p1890
(lp1891
S'stand'
p1892
asS'trou'
p1893
(lp1894
S'hole'
p1895
asS'remua'
p1896
(lp1897
S'twitched'
p1898
asS'toast'
p1899
(lp1900
S'toast'
p1901
asS'semaine'
p1902
(lp1903
S'week'
p1904
asS'noir'
p1905
(lp1906
S'black'
p1907
asS'souhaiter'
p1908
(lp1909
S'wish'
p1910
asS'plume'
p1911
(lp1912
S'quill'
p1913
aS'feather'
p1914
asS'jambes'
p1915
(lp1916
S'legs'
p1917
asS'deviner'
p1918
(lp1919
S'guess'
p1920
asS'meilleur'
p1921
(lp1922
S'best'
p1923
asS'parapluie'
p1924
(lp1925
S'umbrella'
p1926
asS'couleur'
p1927
(lp1928
S'color'
p1929
asS'choisi'
p1930
(lp1931
S'picked'
p1932
aS'chosen'
p1933
asS'cependant'
p1934
(lp1935
S'however'
p1936
asS'samedi'
p1937
(lp1938
S'saturday'
p1939
asS'bureau'
p1940
(lp1941
S'office'
p1942
aS'desk'
p1943
asS'londubat'
p1944
(lp1945
S'longbottom'
p1946
asS'familles'
p1947
(lp1948
S'families'
p1949
asS'cloche'
p1950
(lp1951
S'bell'
p1952
asS'v\xc3\xaatements'
p1953
(lp1954
S'clothes'
p1955
asS'rose'
p1956
(lp1957
S'pink'
p1958
aS'rose'
p1959
asS'distance'
p1960
(lp1961
S'distance'
p1962
asS'animaux'
p1963
(lp1964
S'animals'
p1965
asS'soulag\xc3\xa9'
p1966
(lp1967
S'relieved'
p1968
asS'comprim\xc3\xa9'
p1969
(lp1970
S'squeezed'
p1971
asS'o\xc3\xb9'
p1972
(lp1973
S'where'
p1974
asS'duel'
p1975
(lp1976
S'duel'
p1977
asS'firenze'
p1978
(lp1979
S'firenze'
p1980
asS'attrapeurs'
p1981
(lp1982
S'seekers'
p1983
asS'siffla'
p1984
(lp1985
S'hissed'
p1986
asS'monde'
p1987
(lp1988
S'world'
p1989
asS'douleur'
p1990
(lp1991
S'pain'
p1992
asS'ann\xc3\xa9e'
p1993
(lp1994
S'year'
p1995
asS'probl\xc3\xa8me'
p1996
(lp1997
S'problem'
p1998
asS'moelleux'
p1999
(lp2000
S'squashy'
p2001
asS'propre'
p2002
(lp2003
S'clean'
p2004
aS'proper'
p2005
aS'own'
p2006
asS'plein'
p2007
(lp2008
S'full'
p2009
asS'nouveau'
p2010
(lp2011
S'new'
p2012
asS'habituel'
p2013
(lp2014
S'usual'
p2015
asS'suppl\xc3\xa9mentaire'
p2016
(lp2017
S'extra'
p2018
asS'silencieusement'
p2019
(lp2020
S'silently'
p2021
asS'bas'
p2022
(lp2023
S'bottom'
p2024
asS'partie'
p2025
(lp2026
S'part'
p2027
asS'excit\xc3\xa9'
p2028
(lp2029
S'excitedly'
p2030
aS'excited'
p2031
asS'rage'
p2032
(lp2033
S'rage'
p2034
asS'queue'
p2035
(lp2036
S'tail'
p2037
asS'sanglant'
p2038
(lp2039
S'bloody'
p2040
asS'vingt'
p2041
(lp2042
S'twenty'
p2043
asS'arriver'
p2044
(lp2045
S'happen'
p2046
asS'mena\xc3\xa7ant'
p2047
(lp2048
S'threatening'
p2049
asS'caramel'
p2050
(lp2051
S'fudge'
p2052
asS'sauf'
p2053
(lp2054
S'except'
p2055
asS'bloqu\xc3\xa9'
p2056
(lp2057
S'blocked'
p2058
asS'march\xc3\xa9'
p2059
(lp2060
S'walked'
p2061
asS'barman'
p2062
(lp2063
S'bartender'
p2064
asS'voler'
p2065
(lp2066
S'steal'
p2067
aS'rob'
p2068
aS'fly'
p2069
asS'cacher'
p2070
(lp2071
S'hide'
p2072
asS'fait'
p2073
(lp2074
S'did'
p2075
aS'fact'
p2076
asS'drago'
p2077
(lp2078
S'draco'
p2079
asS'croire'
p2080
(lp2081
S'believe'
p2082
asS'tigr\xc3\xa9'
p2083
(lp2084
S'tabby'
p2085
asS'\xc3\xa9tag\xc3\xa8res'
p2086
(lp2087
S'shelves'
p2088
asS'terrain'
p2089
(lp2090
S'ground'
p2091
aS'field'
p2092
asS'\xc3\xa9tincelant'
p2093
(lp2094
S'glittering'
p2095
aS'glinting'
p2096
asS'chauve'
p2097
(lp2098
S'bald'
p2099
asS'pile'
p2100
(lp2101
S'pile'
p2102
asS'perceuses'
p2103
(lp2104
S'drills'
p2105
asS'profond'
p2106
(lp2107
S'deep'
p2108
asS'courut'
p2109
(lp2110
S'ran'
p2111
asS'arrach\xc3\xa9'
p2112
(lp2113
S'snatched'
p2114
asS'oubli\xc3\xa9'
p2115
(lp2116
S'forgotten'
p2117
asS'arrondie'
p2118
(lp2119
S'rounded'
p2120
asS'portrait'
p2121
(lp2122
S'portrait'
p2123
asS'matin'
p2124
(lp2125
S'morning'
p2126
asS'apparu'
p2127
(lp2128
S'appeared'
p2129
asS'jardin'
p2130
(lp2131
S'garden'
p2132
asS'lee'
p2133
(lp2134
S'lee'
p2135
asS'gryffondor'
p2136
(lp2137
S'gryffindor'
p2138
aS'gryffindors'
p2139
asS'voyage'
p2140
(lp2141
S'trip'
p2142
asS'arbre'
p2143
(lp2144
S'tree'
p2145
asS'\xc3\xa9paules'
p2146
(lp2147
S'shoulders'
p2148
asS'mur'
p2149
(lp2150
S'wall'
p2151
asS'mine'
p2152
(lp2153
S'mine'
p2154
asS'sorciers'
p2155
(lp2156
S'sorcerers'
p2157
aS'wizards'
p2158
aS'wizarding'
p2159
asS'pourpre'
p2160
(lp2161
S'purple'
p2162
asS'flitwick'
p2163
(lp2164
S'flitwick'
p2165
asS'manqu\xc3\xa9'
p2166
(lp2167
S'missed'
p2168
asS'ordinateur'
p2169
(lp2170
S'computer'
p2171
asS'secondes'
p2172
(lp2173
S'seconds'
p2174
asS'bien'
p2175
(lp2176
S'okay'
p2177
asS'favori'
p2178
(lp2179
S'favorite'
p2180
asS'chemin'
p2181
(lp2182
S'path'
p2183
asS'\xc3\xa9tincelles'
p2184
(lp2185
S'sparks'
p2186
asS'horrible'
p2187
(lp2188
S'horrible'
p2189
asS'moldu'
p2190
(lp2191
S'muggle'
p2192
asS'trente'
p2193
(lp2194
S'thirty'
p2195
asS'sorts'
p2196
(lp2197
S'spells'
p2198
asS'cru'
p2199
(lp2200
S'believed'
p2201
asS'm\xc3\xaame'
p2202
(lp2203
S'even'
p2204
aS'same'
p2205
asS'montagne'
p2206
(lp2207
S'mountain'
p2208
asS'heureux'
p2209
(lp2210
S'happy'
p2211
aS'glad'
p2212
aS'pleased'
p2213
aS'lucky'
p2214
asS'mang\xc3\xa9'
p2215
(lp2216
S'ate'
p2217
aS'eaten'
p2218
asS'f\xc3\xaates'
p2219
(lp2220
S'holidays'
p2221
asS'plong\xc3\xa9'
p2222
(lp2223
S'dived'
p2224
asS'\xc3\xa9tranger'
p2225
(lp2226
S'stranger'
p2227
asS'attention'
p2228
(lp2229
S'attention'
p2230
asS'choqu\xc3\xa9'
p2231
(lp2232
S'shocked'
p2233
asS'parfaitement'
p2234
(lp2235
S'perfectly'
p2236
asS'vernon'
p2237
(lp2238
g2237
aS'vernons'
p2239
asS'acheter'
p2240
(lp2241
S'buy'
p2242
asS'g\xc3\xa9mit'
p2243
(lp2244
S'moaned'
p2245
asS'agr\xc3\xa9able'
p2246
(lp2247
S'nice'
p2248
asS'genre'
p2249
(lp2250
S'kind'
p2251
aS'sort'
p2252
asS'signifiait'
p2253
(lp2254
S'meant'
p2255
asS'vrai'
p2256
(lp2257
S'true'
p2258
asS'brillant'
p2259
(lp2260
S'brilliant'
p2261
aS'shone'
p2262
asS'recherche'
p2263
(lp2264
S'looking'
p2265
aS'search'
p2266
asS'dedalus'
p2267
(lp2268
S'dedalus'
p2269
asS'cou'
p2270
(lp2271
S'neck'
p2272
asS'chaudron'
p2273
(lp2274
S'cauldron'
p2275
asS'norbert'
p2276
(lp2277
S'norbert'
p2278
asS'narines'
p2279
(lp2280
S'nostrils'
p2281
asS'dumbledore'
p2282
(lp2283
S'dumbledores'
p2284
aS'dumbledore'
p2285
asS'plongeon'
p2286
(lp2287
S'dive'
p2288
asS'terme'
p2289
(lp2290
S'term'
p2291
asS'v\xc3\xa9rit\xc3\xa9'
p2292
(lp2293
S'truth'
p2294
asS'hibou'
p2295
(lp2296
S'owl'
p2297
asS'tour'
p2298
(lp2299
S'lap'
p2300
aS'round'
p2301
aS'turn'
p2302
aS'tower'
p2303
asS'tout'
p2304
(lp2305
S'everything'
p2306
aS'any'
p2307
asS'encore'
p2308
(lp2309
S'yet'
p2310
aS'still'
p2311
asS'jumelles'
p2312
(lp2313
S'binoculars'
p2314
asS'demander'
p2315
(lp2316
S'ask'
p2317
asS'plastique'
p2318
(lp2319
S'plastic'
p2320
asS'stupide'
p2321
(lp2322
S'stupid'
p2323
aS'foolish'
p2324
asS'gringotts'
p2325
(lp2326
S'gringotts'
p2327
asS'vent'
p2328
(lp2329
S'wind'
p2330
asS'portant'
p2331
(lp2332
S'carrying'
p2333
asS'point'
p2334
(lp2335
S'point'
p2336
asS'demain'
p2337
(lp2338
S'tomorrow'
p2339
asS'devrait'
p2340
(lp2341
S'should'
p2342
aS'ought'
p2343
asS're\xc3\xa7u'
p2344
(lp2345
S'received'
p2346
asS'fl\xc3\xbbte'
p2347
(lp2348
S'flute'
p2349
asS'sauver'
p2350
(lp2351
S'save'
p2352
asS'glac\xc3\xa9'
p2353
(lp2354
S'icy'
p2355
asS'ravi'
p2356
(lp2357
S'delighted'
p2358
asS'rapidement'
p2359
(lp2360
S'quickly'
p2361
asS'besoin'
p2362
(lp2363
S'need'
p2364
asS'semaines'
p2365
(lp2366
S'weeks'
p2367
asS'garde'
p2368
(lp2369
S'keeping'
p2370
aS'guarding'
p2371
aS'guard'
p2372
asS'table'
p2373
(lp2374
S'table'
p2375
asS'mouchoir'
p2376
(lp2377
S'handkerchief'
p2378
asS'averti'
p2379
(lp2380
S'warned'
p2381
asS'minist\xc3\xa8re'
p2382
(lp2383
S'ministry'
p2384
asS'armure'
p2385
(lp2386
S'armor'
p2387
asS'bottes'
p2388
(lp2389
S'boots'
p2390
asS'souffle'
p2391
(lp2392
S'breath'
p2393
asS'papier'
p2394
(lp2395
S'paper'
p2396
asS'dernier'
p2397
(lp2398
S'last'
p2399
asS'souffla'
p2400
(lp2401
S'blew'
p2402
asS'capable'
p2403
(lp2404
S'able'
p2405
asS'chapitre'
p2406
(lp2407
S'chapter'
p2408
asS'parler'
p2409
(lp2410
S'speak'
p2411
aS'talk'
p2412
asS'cent'
p2413
(lp2414
S'hundred'
p2415
asS'coupe'
p2416
(lp2417
S'cut'
p2418
asS'puissance'
p2419
(lp2420
S'might'
p2421
aS'power'
p2422
asS'attendu'
p2423
(lp2424
S'expected'
p2425
aS'waited'
p2426
asS'bronze'
p2427
(lp2428
S'bronze'
p2429
asS'mensonges'
p2430
(lp2431
S'lies'
p2432
asS'moine'
p2433
(lp2434
S'friar'
p2435
asS'parents'
p2436
(lp2437
S'parents'
p2438
asS'regardant'
p2439
(lp2440
S'glancing'
p2441
asS'voiture'
p2442
(lp2443
S'car'
p2444
asS'rappel\xc3\xa9'
p2445
(lp2446
S'reminded'
p2447
asS'baguettes'
p2448
(lp2449
S'wands'
p2450
asS'avis'
p2451
(lp2452
S'notice'
p2453
asS'suivre'
p2454
(lp2455
S'follow'
p2456
asS'bras'
p2457
(lp2458
S'arm'
p2459
asS'cartes'
p2460
(lp2461
S'cards'
p2462
asS'monsieur'
p2463
(lp2464
S'sir'
p2465
asS'piquer'
p2466
(lp2467
S'poking'
p2468
asS'terre'
p2469
(lp2470
S'earth'
p2471
asS'lunettes'
p2472
(lp2473
S'glasses'
p2474
asS'd\xc3\xa9sesp\xc3\xa9r\xc3\xa9'
p2475
(lp2476
S'desperate'
p2477
asS'plumes'
p2478
(lp2479
S'feathers'
p2480
aS'quills'
p2481
asS'serpentard'
p2482
(lp2483
S'slytherin'
p2484
aS'slytherins'
p2485
asS'vue'
p2486
(lp2487
S'sight'
p2488
aS'seeing'
p2489
aS'view'
p2490
asS'larmes'
p2491
(lp2492
S'tears'
p2493
asS'cheveux'
p2494
(lp2495
S'hair'
p2496
asS'enfin'
p2497
(lp2498
S'finally'
p2499
asS'quatre'
p2500
(lp2501
S'four'
p2502
asS'argent'
p2503
(lp2504
S'silver'
p2505
aS'money'
p2506
asS'respiration'
p2507
(lp2508
S'breathing'
p2509
asS'marche'
p2510
(lp2511
S'walking'
p2512
asS'jamais'
p2513
(lp2514
S'ever'
p2515
asS'marcha'
p2516
(lp2517
S'marched'
p2518
asS'r\xc3\xa9flexion'
p2519
(lp2520
S'thinking'
p2521
aS'reflection'
p2522
asS'pi\xc3\xa8ge'
p2523
(lp2524
S'snare'
p2525
asS'rapide'
p2526
(lp2527
S'quick'
p2528
aS'fast'
p2529
asS'd\xc3\xa9chira'
p2530
(lp2531
S'tore'
p2532
asS'puissant'
p2533
(lp2534
S'powerful'
p2535
asS'voldemort'
p2536
(lp2537
S'voldemorts'
p2538
aS'voldemort'
p2539
asS'air'
p2540
(lp2541
S'air'
p2542
asS'th\xc3\xa9'
p2543
(lp2544
S'tea'
p2545
asS'g\xc3\xa2teaux'
p2546
(lp2547
S'cakes'
p2548
asS'plante'
p2549
(lp2550
S'plant'
p2551
asS'grogna'
p2552
(lp2553
S'growled'
p2554
aS'grunted'
p2555
asS'm\xc3\xa8re'
p2556
(lp2557
S'mother'
p2558
asS'crabbe'
p2559
(lp2560
S'crabbe'
p2561
asS'moustache'
p2562
(lp2563
S'mustache'
p2564
asS'sombre'
p2565
(lp2566
S'dark'
p2567
asS'va'
p2568
(lp2569
S'goes'
p2570
aS'gonna'
p2571
asS'doucement'
p2572
(lp2573
S'softly'
p2574
aS'gently'
p2575
asS'vol'
p2576
(lp2577
S'vol'
p2578
asS'\xc3\xa9vident'
p2579
(lp2580
S'obvious'
p2581
asS'spectacle'
p2582
(lp2583
S'show'
p2584
asS'chapeau'
p2585
(lp2586
S'hat'
p2587
asS'moto'
p2588
(lp2589
S'motorcycle'
p2590
asS'chaussettes'
p2591
(lp2592
S'socks'
p2593
asS'partout'
p2594
(lp2595
S'everywhere'
p2596
asS'vu'
p2597
(lp2598
S'seen'
p2599
asS'raison'
p2600
(lp2601
S'reason'
p2602
asS'soeur'
p2603
(lp2604
S'sister'
p2605
asS'debout'
p2606
(lp2607
S'standing'
p2608
asS'percy'
p2609
(lp2610
S'percy'
p2611
asS'utile'
p2612
(lp2613
S'useful'
p2614
asS'pi\xc3\xa8ce'
p2615
(lp2616
S'piece'
p2617
asS'\xc3\xa9carlate'
p2618
(lp2619
S'scarlet'
p2620
asS'esp\xc3\xa9rant'
p2621
(lp2622
S'hoping'
p2623
asS'fauteuils'
p2624
(lp2625
S'armchairs'
p2626
asS'd\xc3\xaener'
p2627
(lp2628
S'dinner'
p2629
asS'sourire'
p2630
(lp2631
S'grin'
p2632
aS'smile'
p2633
asS'il'
p2634
(lp2635
S'he'
p2636
asS'pr\xc3\xa9sent\xc3\xa9'
p2637
(lp2638
S'offered'
p2639
asS'weasley'
p2640
(lp2641
S'weasleys'
p2642
aS'weasley'
p2643
asS'rat'
p2644
(lp2645
S'rat'
p2646
asS'myst\xc3\xa8re'
p2647
(lp2648
S'mystery'
p2649
asS'le\xc3\xa7ons'
p2650
(lp2651
S'lessons'
p2652
asS'lumi\xc3\xa8res'
p2653
(lp2654
S'lights'
p2655
asS'grand'
p2656
(lp2657
S'tall'
p2658
aS'large'
p2659
aS'big'
p2660
aS'great'
p2661
asS'\xc3\xa9lev\xc3\xa9'
p2662
(lp2663
S'high'
p2664
asS'poignet'
p2665
(lp2666
S'wrist'
p2667
asS'suivant'
p2668
(lp2669
S'following'
p2670
asS'haut'
p2671
(lp2672
S'top'
p2673
asS'heures'
p2674
(lp2675
S'hours'
p2676
asS'cinq'
p2677
(lp2678
S'five'
p2679
asS'genoux'
p2680
(lp2681
S'knees'
p2682
asS'tromper'
p2683
(lp2684
S'fool'
p2685
asS'trolls'
p2686
(lp2687
S'trolls'
p2688
asS'livre'
p2689
(lp2690
S'book'
p2691
asS'fix\xc3\xa9'
p2692
(lp2693
S'fixed'
p2694
asS'bon'
p2695
(lp2696
S'good'
p2697
asS'achet\xc3\xa9'
p2698
(lp2699
S'bought'
p2700
asS'marcher'
p2701
(lp2702
S'walk'
p2703
asS'coffre'
p2704
(lp2705
S'bin'
p2706
asS'elle'
p2707
(lp2708
S'she'
p2709
asS'sauter'
p2710
(lp2711
S'jump'
p2712
asS'moment'
p2713
(lp2714
S'moment'
p2715
asS'vieux'
p2716
(lp2717
S'old'
p2718
asS'boa'
p2719
(lp2720
S'boa'
p2721
asS'parfait'
p2722
(lp2723
S'perfect'
p2724
asS'sauv\xc3\xa9'
p2725
(lp2726
S'saved'
p2727
asS'fabrication'
p2728
(lp2729
S'making'
p2730
asS'cognard'
p2731
(lp2732
S'bludger'
p2733
asS'solide'
p2734
(lp2735
S'solid'
p2736
asS'entre'
p2737
(lp2738
S'between'
p2739
aS'among'
p2740
asS'demande'
p2741
(lp2742
S'wondering'
p2743
asS'dessous'
p2744
(lp2745
S'underneath'
p2746
aS'below'
p2747
asS'\xc3\xa9checs'
p2748
(lp2749
S'chess'
p2750
aS'chessmen'
p2751
asS'poches'
p2752
(lp2753
S'pockets'
p2754
asS'invisibilit\xc3\xa9'
p2755
(lp2756
S'invisibility'
p2757
asS'concentrer'
p2758
(lp2759
S'concentrate'
p2760
asS'contact'
p2761
(lp2762
S'contact'
p2763
asS'nicolas'
p2764
(lp2765
S'nicolas'
p2766
asS'haine'
p2767
(lp2768
S'hate'
p2769
asS'entr\xc3\xa9'
p2770
(lp2771
S'entered'
p2772
asS'plaque'
p2773
(lp2774
S'plate'
p2775
asS'traverser'
p2776
(lp2777
S'cross'
p2778
asS'pense'
p2779
(lp2780
S'thinks'
p2781
asS'coup'
p2782
(lp2783
S'shot'
p2784
asS'moments'
p2785
(lp2786
S'moments'
p2787
asS'taille'
p2788
(lp2789
S'size'
p2790
asS'livres'
p2791
(lp2792
S'books'
p2793
asS'h\xc3\xb4pital'
p2794
(lp2795
S'hospital'
p2796
asS'crier'
p2797
(lp2798
S'yell'
p2799
asS'\xc3\xa9paule'
p2800
(lp2801
S'shoulder'
p2802
asS'blague'
p2803
(lp2804
S'joke'
p2805
asS'f\xc3\xa9roce'
p2806
(lp2807
S'fierce'
p2808
asS'questions'
p2809
(lp2810
g2809
asS'perdu'
p2811
(lp2812
S'lost'
p2813
asS'c\xc3\xa9l\xc3\xa8bre'
p2814
(lp2815
S'famous'
p2816
asS'hiboux'
p2817
(lp2818
S'owls'
p2819
asS'femme'
p2820
(lp2821
S'woman'
p2822
asS'humide'
p2823
(lp2824
S'damp'
p2825
aS'wet'
p2826
asS'lit'
p2827
(lp2828
S'bed'
p2829
asS'champignons'
p2830
(lp2831
S'fungi'
p2832
asS'expliqu\xc3\xa9'
p2833
(lp2834
S'explained'
p2835
asS'prix'
p2836
(lp2837
S'award'
p2838
asS'd\xc3\xa9sol\xc3\xa9'
p2839
(lp2840
S'sorry'
p2841
asS'haricots'
p2842
(lp2843
S'beans'
p2844
asS'cage'
p2845
(lp2846
S'cage'
p2847
asS'ciel'
p2848
(lp2849
S'sky'
p2850
asS'joueurs'
p2851
(lp2852
S'players'
p2853
asS'impressionn\xc3\xa9'
p2854
(lp2855
S'impressed'
p2856
asS'd\xc3\xa9but'
p2857
(lp2858
S'start'
p2859
asS'chaudrons'
p2860
(lp2861
S'cauldrons'
p2862
asS'difficile'
p2863
(lp2864
S'difficult'
p2865
asS'maison'
p2866
(lp2867
S'house'
p2868
aS'home'
p2869
asS'manquer'
p2870
(lp2871
S'miss'
p2872
asS'g\xc3\xa9ant'
p2873
(lp2874
S'giant'
p2875
asS'commenc\xc3\xa9'
p2876
(lp2877
S'started'
p2878
asS'\xc3\xa9v\xc3\xa9nement'
p2879
(lp2880
S'happening'
p2881
asS'bande'
p2882
(lp2883
S'tape'
p2884
asS'v\xc3\xa9lo'
p2885
(lp2886
S'bike'
p2887
asS'match'
p2888
(lp2889
S'match'
p2890
asS'ami'
p2891
(lp2892
S'friend'
p2893
asS'hurlant'
p2894
(lp2895
S'howling'
p2896
asS'gris'
p2897
(lp2898
S'gray'
p2899
asS'curieux'
p2900
(lp2901
S'curious'
p2902
asS'pardonner'
p2903
(lp2904
S'forgive'
p2905
asS'compter'
p2906
(lp2907
S'reckon'
p2908
asS'd\xc3\xa9truit'
p2909
(lp2910
S'destroyed'
p2911
asS'para\xc3\xaetre'
p2912
(lp2913
S'seem'
p2914
asS'pied'
p2915
(lp2916
S'foot'
p2917
asS'possible'
p2918
(lp2919
S'possible'
p2920
asS'mot'
p2921
(lp2922
S'word'
p2923
asS'flottaient'
p2924
(lp2925
S'fluttered'
p2926
asS'certains'
p2927
(lp2928
S'some'
p2929
asS'touch\xc3\xa9'
p2930
(lp2931
S'touched'
p2932
asS'pente'
p2933
(lp2934
S'cant'
p2935
asS'encre'
p2936
(lp2937
S'ink'
p2938
asS'ayant'
p2939
(lp2940
S'having'
p2941
asS'poser'
p2942
(lp2943
S'lay'
p2944
asS'unique'
p2945
(lp2946
S'single'
p2947
asS'tusaisqui'
p2948
(lp2949
S'youknowwho'
p2950
asS'mille'
p2951
(lp2952
S'thousand'
p2953
asS'\xc3\xa9tude'
p2954
(lp2955
S'study'
p2956
asS'disparu'
p2957
(lp2958
S'disappeared'
p2959
aS'vanished'
p2960
aS'gone'
p2961
asS'sauvage'
p2962
(lp2963
S'wild'
p2964
asS'pens\xc3\xa9e'
p2965
(lp2966
S'thought'
p2967
asS'exactement'
p2968
(lp2969
S'exactly'
p2970
asS'payer'
p2971
(lp2972
S'pay'
p2973
asS'n\xc3\xa9cessaire'
p2974
(lp2975
S'needed'
p2976
asS'bruit'
p2977
(lp2978
S'noise'
p2979
asS'tomber'
p2980
(lp2981
S'drop'
p2982
aS'fall'
p2983
asS'mince'
p2984
(lp2985
S'thin'
p2986
asS'oser'
p2987
(lp2988
S'dare'
p2989
asS'cheval'
p2990
(lp2991
S'horse'
p2992
asS'd\xc3\xa9barrasser'
p2993
(lp2994
S'rid'
p2995
asS'ordinaire'
p2996
(lp2997
S'ordinary'
p2998
asS'marques'
p2999
(lp3000
S'marks'
p3001
aS'makes'
p3002
asS'norv\xc3\xa9gien'
p3003
(lp3004
S'norwegian'
p3005
asS't\xc3\xaate'
p3006
(lp3007
S'head'
p3008
asS'permettre'
p3009
(lp3010
S'afford'
p3011
asS'musique'
p3012
(lp3013
S'music'
p3014
asS'aucun'
p3015
(lp3016
S'none'
p3017
asS'compartiment'
p3018
(lp3019
S'compartment'
p3020
asS'panique'
p3021
(lp3022
S'panic'
p3023
asS'licorne'
p3024
(lp3025
S'unicorn'
p3026
asS'\xc3\xa9troit'
p3027
(lp3028
S'narrow'
p3029
asS'envelopp\xc3\xa9'
p3030
(lp3031
S'wrapped'
p3032
asS'vouloir'
p3033
(lp3034
S'want'
p3035
aS'wanting'
p3036
asS'arriv\xc3\xa9e'
p3037
(lp3038
S'arrived'
p3039
asS'attrapeur'
p3040
(lp3041
S'seeker'
p3042
asS'charlie'
p3043
(lp3044
S'charlie'
p3045
asS'laisser'
p3046
(lp3047
S'leave'
p3048
aS'let'
p3049
asS'mesures'
p3050
(lp3051
S'steps'
p3052
asS'pierre'
p3053
(lp3054
S'stone'
p3055
asS'inhabituel'
p3056
(lp3057
S'unusual'
p3058
asS'ah'
p3059
(lp3060
S'ah'
p3061
asS'jouer'
p3062
(lp3063
S'playing'
p3064
aS'play'
p3065
asS'\xc3\xa9tant'
p3066
(lp3067
S'being'
p3068
asS'surpris'
p3069
(lp3070
S'surprised'
p3071
asS'atteint'
p3072
(lp3073
S'reached'
p3074
asS'ouvert'
p3075
(lp3076
S'opened'
p3077
aS'open'
p3078
asS'fou'
p3079
(lp3080
S'mad'
p3081
asS'aim\xc3\xa9'
p3082
(lp3083
S'liked'
p3084
asS'quidditch'
p3085
(lp3086
S'quidditch'
p3087
asS'serr\xc3\xa9'
p3088
(lp3089
S'tight'
p3090
asS'donne'
p3091
(lp3092
S'gives'
p3093
asS'peu'
p3094
(lp3095
S'little'
p3096
aS'few'
p3097
asS'depuis'
p3098
(lp3099
S'since'
p3100
asS'peeves'
p3101
(lp3102
S'peeves'
p3103
asS'effray\xc3\xa9'
p3104
(lp3105
S'frightened'
p3106
aS'scared'
p3107
asS'fa\xc3\xa7on'
p3108
(lp3109
S'way'
p3110
asS'tir\xc3\xa9'
p3111
(lp3112
S'pulled'
p3113
asS'for\xc3\xaat'
p3114
(lp3115
S'forest'
p3116
asS'gorge'
p3117
(lp3118
S'throat'
p3119
asS'bateaux'
p3120
(lp3121
S'boats'
p3122
asS'gliss\xc3\xa9'
p3123
(lp3124
S'slipped'
p3125
aS'slid'
p3126
asS'carte'
p3127
(lp3128
S'map'
p3129
aS'card'
p3130
asS'portes'
p3131
(lp3132
S'doors'
p3133
asS'lampe'
p3134
(lp3135
S'lamp'
p3136
asS'football'
p3137
(lp3138
S'soccer'
p3139
asS'malefoy'
p3140
(lp3141
S'malfoys'
p3142
aS'malfoy'
p3143
asS'bloquer'
p3144
(lp3145
S'lock'
p3146
asS'roul\xc3\xa9'
p3147
(lp3148
S'rolled'
p3149
asS'journal'
p3150
(lp3151
S'newspaper'
p3152
asS'soigneusement'
p3153
(lp3154
S'carefully'
p3155
asS'rue'
p3156
(lp3157
S'street'
p3158
asS'directeur'
p3159
(lp3160
S'headmaster'
p3161
asS'entr\xc3\xa9e'
p3162
(lp3163
S'entrance'
p3164
asS'barbe'
p3165
(lp3166
S'beard'
p3167
asS'particuli\xc3\xa8rement'
p3168
(lp3169
S'particularly'
p3170
asS'devoirs'
p3171
(lp3172
S'homework'
p3173
asS'inquiet'
p3174
(lp3175
S'worried'
p3176
asS'dangereux'
p3177
(lp3178
S'dangerous'
p3179
asS'hurla'
p3180
(lp3181
S'yelled'
p3182
aS'shrieked'
p3183
aS'screamed'
p3184
asS'cass\xc3\xa9'
p3185
(lp3186
S'broken'
p3187
aS'broke'
p3188
aS'snapped'
p3189
asS'choc'
p3190
(lp3191
S'shock'
p3192
asS'placard'
p3193
(lp3194
S'cupboard'
p3195
asS'adress\xc3\xa9e'
p3196
(lp3197
S'addressed'
p3198
asS'oh'
p3199
(lp3200
S'oh'
p3201
asS'faufiler'
p3202
(lp3203
S'sneaking'
p3204
asS'traces'
p3205
(lp3206
S'footsteps'
p3207
asS'furieusement'
p3208
(lp3209
S'furiously'
p3210
asS'chuchotement'
p3211
(lp3212
S'whispering'
p3213
aS'whisper'
p3214
asS'sourcils'
p3215
(lp3216
S'eyebrows'
p3217
asS'madame'
p3218
(lp3219
S'mrs'
p3220
aS'madam'
p3221
asS'cro\xc3\xbbtard'
p3222
(lp3223
S'scabbers'
p3224
asS'hier'
p3225
(lp3226
S'yesterday'
p3227
asS'sorcellerie'
p3228
(lp3229
S'witchcraft'
p3230
asS'obtenu'
p3231
(lp3232
S'gotten'
p3233
asS'sept'
p3234
(lp3235
S'seven'
p3236
asS'or'
p3237
(lp3238
S'gold'
p3239
asS'foule'
p3240
(lp3241
S'crowd'
p3242
asS'escalier'
p3243
(lp3244
S'staircase'
p3245
asS'rats'
p3246
(lp3247
S'rats'
p3248
asS'chaque'
p3249
(lp3250
S'every'
p3251
aS'each'
p3252
asS'citron'
p3253
(lp3254
S'lemon'
p3255
asS'reconnu'
p3256
(lp3257
S'recognized'
p3258
asS'sorcier'
p3259
(lp3260
S'wizard'
p3261
asS'arr\xc3\xaat'
p3262
(lp3263
S'halt'
p3264
asS'fant\xc3\xb4me'
p3265
(lp3266
S'ghost'
p3267
asS'dame'
p3268
(lp3269
S'lady'
p3270
asS'aventure'
p3271
(lp3272
S'adventure'
p3273
asS'robinet'
p3274
(lp3275
S'tap'
p3276
asS'mort'
p3277
(lp3278
S'dead'
p3279
aS'died'
p3280
aS'death'
p3281
asS'l\xc3\xa8vres'
p3282
(lp3283
S'lips'
p3284
asS'lieu'
p3285
(lp3286
S'place'
p3287
asS'milieu'
p3288
(lp3289
S'middle'
p3290
asS'habituellement'
p3291
(lp3292
S'usually'
p3293
asS'r\xc3\xa9pondu'
p3294
(lp3295
S'answered'
p3296
asS'dessin'
p3297
(lp3298
S'drawing'
p3299
asS'bienvenue'
p3300
(lp3301
S'welcome'
p3302
asS'plaindre'
p3303
(lp3304
S'complain'
p3305
asS'parvati'
p3306
(lp3307
g3306
asS'frapp\xc3\xa9'
p3308
(lp3309
S'struck'
p3310
aS'knocked'
p3311
asS'\xc3\xa9couter'
p3312
(lp3313
S'listen'
p3314
asS'enfer'
p3315
(lp3316
S'hell'
p3317
asS'cicatrice'
p3318
(lp3319
S'scar'
p3320
asS'gobelin'
p3321
(lp3322
S'goblin'
p3323
asS'rang\xc3\xa9e'
p3324
(lp3325
S'row'
p3326
asS'pomfresh'
p3327
(lp3328
S'pomfrey'
p3329
asS'envoyer'
p3330
(lp3331
S'send'
p3332
asS'brun'
p3333
(lp3334
S'brown'
p3335
asS'parchemin'
p3336
(lp3337
S'parchment'
p3338
asS'oiseaux'
p3339
(lp3340
S'birds'
p3341
asS'cach\xc3\xa9'
p3342
(lp3343
S'hidden'
p3344
asS'manteau'
p3345
(lp3346
S'coat'
p3347
aS'cloak'
p3348
asS'fer'
p3349
(lp3350
S'fer'
p3351
asS'vague'
p3352
(lp3353
S'wave'
p3354
asS'marbre'
p3355
(lp3356
S'marble'
p3357
asS'autres'
p3358
(lp3359
S'others'
p3360
asS'pr\xc3\xaat'
p3361
(lp3362
S'ready'
p3363
asS'conduite'
p3364
(lp3365
S'drove'
p3366
asS'chats'
p3367
(lp3368
S'cats'
p3369
asS'fen\xc3\xaatre'
p3370
(lp3371
S'window'
p3372
asS'simplement'
p3373
(lp3374
S'simply'
p3375
asS'portait'
p3376
(lp3377
S'wore'
p3378
asS'le\xc3\xa7on'
p3379
(lp3380
S'lesson'
p3381
asS'v\xc3\xa9cu'
p3382
(lp3383
S'lived'
p3384
asS'ligne'
p3385
(lp3386
S'line'
p3387
asS'regard'
p3388
(lp3389
S'stare'
p3390
asS'but'
p3391
(lp3392
S'purpose'
p3393
asS'jus'
p3394
(lp3395
S'jus'
p3396
asS'poufsouffle'
p3397
(lp3398
S'hufflepuff'
p3399
aS'hufflepuffs'
p3400
asS'humain'
p3401
(lp3402
S'human'
p3403
asS'amis'
p3404
(lp3405
S'friends'
p3406
asS'id\xc3\xa9e'
p3407
(lp3408
S'idea'
p3409
asS'truc'
p3410
(lp3411
S'stuff'
p3412
asS'ha'
p3413
(lp3414
S'ha'
p3415
asS'eau'
p3416
(lp3417
S'water'
p3418
asS'dur'
p3419
(lp3420
S'hard'
p3421
asS'fort'
p3422
(lp3423
S'loudly'
p3424
aS'loud'
p3425
asS'balais'
p3426
(lp3427
S'broomsticks'
p3428
aS'brooms'
p3429
asS'escaliers'
p3430
(lp3431
S'stairs'
p3432
asS'flamboyant'
p3433
(lp3434
S'flaming'
p3435
asS'bord'
p3436
(lp3437
S'edge'
p3438
asS'plafond'
p3439
(lp3440
S'ceiling'
p3441
asS'paires'
p3442
(lp3443
S'pairs'
p3444
asS'faute'
p3445
(lp3446
S'foul'
p3447
aS'fault'
p3448
asS'r\xc3\xa9sist\xc3\xa9'
p3449
(lp3450
S'stood'
p3451
asS'pire'
p3452
(lp3453
S'worse'
p3454
aS'worst'
p3455
asS'nerfs'
p3456
(lp3457
S'nerves'
p3458
asS'magique'
p3459
(lp3460
S'magical'
p3461
asS'\xc3\xa9videmment'
p3462
(lp3463
S'obviously'
p3464
asS'arrive'
p3465
(lp3466
S'happens'
p3467
asS'entendu'
p3468
(lp3469
S'heard'
p3470
asS'venir'
p3471
(lp3472
S'come'
p3473
asS'bateau'
p3474
(lp3475
S'boat'
p3476
asS'si\xc3\xa8ges'
p3477
(lp3478
S'seats'
p3479
asS'fils'
p3480
(lp3481
S'son'
p3482
asS'net'
p3483
(lp3484
S'sharp'
p3485
asS'seigneur'
p3486
(lp3487
S'lord'
p3488
asS'moldus'
p3489
(lp3490
S'muggles'
p3491
asS'lieux'
p3492
(lp3493
S'places'
p3494
asS'jumeaux'
p3495
(lp3496
S'twins'
p3497
asS'petit'
p3498
(lp3499
S'small'
p3500
asS'apport\xc3\xa9'
p3501
(lp3502
S'brought'
p3503
asS'essayer'
p3504
(lp3505
S'trying'
p3506
aS'try'
p3507
asS'direction'
p3508
(lp3509
S'direction'
p3510
asS'sale'
p3511
(lp3512
S'dirty'
p3513
asS'championnat'
p3514
(lp3515
S'championship'
p3516
asS'd\xc3\xa9sagr\xc3\xa9able'
p3517
(lp3518
S'unpleasant'
p3519
asS'chambre'
p3520
(lp3521
S'chamber'
p3522
asS'pourquoi'
p3523
(lp3524
S'why'
p3525
asS'd\xc3\xa9j\xc3\xa0'
p3526
(lp3527
S'already'
p3528
asS'chat'
p3529
(lp3530
S'cat'
p3531
asS'rouge'
p3532
(lp3533
S'red'
p3534
asS'imm\xc3\xa9diatement'
p3535
(lp3536
S'immediately'
p3537
asS'clairement'
p3538
(lp3539
S'clearly'
p3540
asS'pench\xc3\xa9'
p3541
(lp3542
S'leaning'
p3543
asS'd\xc3\xa9sesp\xc3\xa9r\xc3\xa9ment'
p3544
(lp3545
S'desperately'
p3546
asS'flammes'
p3547
(lp3548
S'flames'
p3549
asS'r\xc3\xa8gles'
p3550
(lp3551
S'rules'
p3552
asS'courage'
p3553
(lp3554
S'courage'
p3555
asS'ni'
p3556
(lp3557
S'nor'
p3558
aS'neither'
p3559
asS'plongeant'
p3560
(lp3561
S'swooping'
p3562
asS'murs'
p3563
(lp3564
S'walls'
p3565
asS'dursley'
p3566
(lp3567
S'dursleys'
p3568
aS'dursley'
p3569
asS'moins'
p3570
(lp3571
S'least'
p3572
aS'less'
p3573
asS'idiot'
p3574
(lp3575
S'idiot'
p3576
asS'chocolat'
p3577
(lp3578
S'chocolate'
p3579
asS'seul'
p3580
(lp3581
S'alone'
p3582
asS'gripsec'
p3583
(lp3584
S'griphook'
p3585
asS'classe'
p3586
(lp3587
S'class'
p3588
asS'tard'
p3589
(lp3590
S'late'
p3591
asS'balai'
p3592
(lp3593
S'broom'
p3594
aS'broomstick'
p3595
asS'\xc3\xa9trange'
p3596
(lp3597
S'strange'
p3598
asS'marque'
p3599
(lp3600
S'mark'
p3601
asS'personnes'
p3602
(lp3603
S'people'
p3604
asS'donnant'
p3605
(lp3606
S'giving'
p3607
asS'prise'
p3608
(lp3609
S'taking'
p3610
asS'oublier'
p3611
(lp3612
S'forget'
p3613
asS'ch\xc3\xa2teau'
p3614
(lp3615
S'castle'
p3616
asS'potion'
p3617
(lp3618
S'potion'
p3619
asS'joueur'
p3620
(lp3621
S'player'
p3622
asS'rester'
p3623
(lp3624
S'staying'
p3625
aS'stay'
p3626
asS'excitation'
p3627
(lp3628
S'excitement'
p3629
asS'herbe'
p3630
(lp3631
S'grass'
p3632
asS'milliers'
p3633
(lp3634
S'thousands'
p3635
asS'imaginant'
p3636
(lp3637
S'imagining'
p3638
asS'papa'
p3639
(lp3640
S'dad'
p3641
asS'fois'
p3642
(lp3643
S'times'
p3644
asS'faire'
p3645
(lp3646
S'make'
p3647
aS'doing'
p3648
asS'int\xc3\xa9ressant'
p3649
(lp3650
S'interesting'
p3651
asS'chance'
p3652
(lp3653
S'luck'
p3654
aS'chance'
p3655
asS'important'
p3656
(lp3657
S'important'
p3658
asS'per\xc3\xa7ant'
p3659
(lp3660
S'piercing'
p3661
asS'lignes'
p3662
(lp3663
S'lines'
p3664
asS'prudent'
p3665
(lp3666
S'careful'
p3667
asS'ceux'
p3668
(lp3669
S'those'
p3670
aS'ones'
p3671
asS'tasse'
p3672
(lp3673
S'cup'
p3674
asS'saisir'
p3675
(lp3676
S'grab'
p3677
asS'doute'
p3678
(lp3679
S'doubt'
p3680
asS'plut\xc3\xb4t'
p3681
(lp3682
S'rather'
p3683
aS'instead'
p3684
asS'p\xc3\xa8re'
p3685
(lp3686
S'father'
p3687
asS'goyle'
p3688
(lp3689
S'goyle'
p3690
asS'terrifi\xc3\xa9'
p3691
(lp3692
S'terrified'
p3693
asS'murmurant'
p3694
(lp3695
S'muttering'
p3696
asS'apporter'
p3697
(lp3698
S'bring'
p3699
asS'coll\xc3\xa9'
p3700
(lp3701
S'stuck'
p3702
asS'pr\xc3\xa9fets'
p3703
(lp3704
S'prefects'
p3705
asS'voulu'
p3706
(lp3707
S'wanted'
p3708
asS'train'
p3709
(lp3710
S'train'
p3711
asS'prot\xc3\xa9ger'
p3712
(lp3713
S'protect'
p3714
asS'coeur'
p3715
(lp3716
S'heart'
p3717
asS'bond\xc3\xa9'
p3718
(lp3719
S'crowded'
p3720
asS'\xc3\xa9pais'
p3721
(lp3722
S'thick'
p3723
asS'prochaine'
p3724
(lp3725
S'next'
p3726
asS'\xc3\xa9criture'
p3727
(lp3728
S'writing'
p3729
as.