(lp0
(S'en_bi2'
p1
S'fr_bi4'
p2
tp3
a(S'en_bi3'
p4
S'fr_uni2'
p5
tp6
a(S'en_unif4'
p7
S'fr_uni4'
p8
tp9
a(S'en_unif3'
p10
g8
tp11
a(S'en_unif2'
p12
S'fr_unif3'
p13
tp14
a(S'en_uni3'
p15
g8
tp16
a(S'en_bi4'
p17
g2
tp18
a(S'en_uni4'
p19
g2
tp20
a(g17
g13
tp21
a(g19
g5
tp22
a(g4
g8
tp23
a(S'en_uni2'
p24
g5
tp25
a(g19
S'fr_bi2'
p26
tp27
a(g4
g13
tp28
a(g19
g8
tp29
a(g24
g8
tp30
a(g17
S'fr_bi3'
p31
tp32
a(g7
g2
tp33
a(g12
g5
tp34
a(g10
g2
tp35
a(g12
g2
tp36
a(g12
g31
tp37
a(g10
g31
tp38
a(g4
g2
tp39
a(g17
g26
tp40
a(g4
S'fr_unif4'
p41
tp42
a(g10
S'fr_uni3'
p43
tp44
a(g7
g5
tp45
a(g1
g13
tp46
a(g7
g31
tp47
a(g1
g5
tp48
a(g7
g26
tp49
a(g12
g43
tp50
a(g10
g41
tp51
a(g4
g43
tp52
a(g12
g26
tp53
a(g15
g41
tp54
a(g15
g13
tp55
a(g17
g41
tp56
a(g19
g13
tp57
a(g24
g13
tp58
a(g15
g43
tp59
a(g4
g26
tp60
a(g10
g5
tp61
a(g24
g26
tp62
a(g1
g31
tp63
a(g7
g43
tp64
a(g24
g41
tp65
a(g1
g43
tp66
a(g7
g41
tp67
a(g4
g31
tp68
a(g17
g8
tp69
a(g24
g43
tp70
a(g10
g26
tp71
a(g1
g41
tp72
a(g15
g26
tp73
a(g24
g2
tp74
a(g12
g41
tp75
a(g19
g31
tp76
a(g1
g26
tp77
a(g19
g41
tp78
a(g7
g13
tp79
a(g17
g43
tp80
a(g15
g31
tp81
a(g24
g31
tp82
a(g15
g5
tp83
a(g19
g43
tp84
a(g12
g8
tp85
a(g1
g8
tp86
a(g10
g13
tp87
a(g15
g2
tp88
a(g17
g5
tp89
a(g10
S'fr_unif2'
p90
tp91
a(g7
g90
tp92
a(g17
g90
tp93
a(g1
g90
tp94
a(g12
g90
tp95
a(g19
g90
tp96
a(g4
g90
tp97
a(g15
g90
tp98
a(g24
g90
tp99
a.