(dp0
(S'en_bi4'
p1
S'fr_bi2'
p2
tp3
F0.020134793597304166
s(S'en_unif3'
p4
S'fr_unif4'
p5
tp6
F0.01280539174389214
s(S'en_unif4'
p7
S'fr_uni4'
p8
tp9
F0.01112047177759054
s(g4
g8
tp10
F0.022999157540016902
s(S'en_unif2'
p11
S'fr_unif3'
p12
tp13
F0.020724515585509726
s(S'en_uni4'
p14
S'fr_uni3'
p15
tp16
F0.02299915754001691
s(g4
S'fr_unif2'
p17
tp18
F0.01727042965459142
s(g7
g17
tp19
F0.011710193765796099
s(g1
g5
tp20
F0.010193765796124668
s(g1
S'fr_uni2'
p21
tp22
F0.017775905644481907
s(g1
g12
tp23
F0.026958719460825658
s(g14
g21
tp24
F0.02156697556866053
s(S'en_uni2'
p25
g21
tp26
F0.027042965459140783
s(g14
g2
tp27
F0.022577927548441495
s(S'en_bi3'
p28
g12
tp29
F0.023757371524852633
s(S'en_bi2'
p30
g17
tp31
F0.02695871946082569
s(g11
g17
tp32
F0.02392586352148279
s(g11
g15
tp33
F0.025610783487784422
s(g7
g12
tp34
F0.010025273799494507
s(g11
g21
tp35
F0.025442291491154245
s(g4
S'fr_bi4'
p36
tp37
F0.022156697556866084
s(g28
g21
tp38
F0.01920808761583828
s(g4
g12
tp39
F0.019966301600674
s(g25
S'fr_bi3'
p40
tp41
F0.025610783487784387
s(g30
g5
tp42
F0.011204717775905622
s(g28
g36
tp43
F0.03192923336141543
s(g14
g17
tp44
F0.021398483572030367
s(g11
g36
tp45
F0.032603201347936046
s(g28
g40
tp46
F0.027801179443976483
s(g28
g17
tp47
F0.021819713563605767
s(S'en_uni3'
p48
g8
tp49
F0.028559393428812203
s(g11
g8
tp50
F0.024431339511373263
s(g48
g2
tp51
F0.024515585509688367
s(g7
g21
tp52
F0.011710193765796097
s(g30
g36
tp53
F0.031929233361415454
s(g7
g5
tp54
F0.011962931760741346
s(g30
g21
tp55
F0.02603201347935981
s(g7
g2
tp56
F0.010614995787700065
s(g1
g15
tp57
F0.025610783487784405
s(g25
g8
tp58
F0.022914911541701815
s(g4
g40
tp59
F0.02122999157540022
s(g28
g15
tp60
F0.024852569502948677
s(g30
g2
tp61
F0.02544229149115424
s(g11
g2
tp62
F0.023336141533277222
s(g14
g5
tp63
F0.011625947767481024
s(g25
g17
tp64
F0.02535804549283915
s(g1
g17
tp65
F0.020387531592249417
s(g48
g12
tp66
F0.027464195450716163
s(g1
g40
tp67
F0.028306655433866963
s(g14
g36
tp68
F0.028643639427127294
s(g25
g12
tp69
F0.020134793597304152
s(g48
g15
tp70
F0.027632687447346333
s(g28
g2
tp71
F0.01962931760741368
s(g4
g21
tp72
F0.016006739679865205
s(g28
g8
tp73
F0.024262847514743117
s(g7
g15
tp74
F0.010109519797809583
s(g25
g5
tp75
F0.01154170176916594
s(g30
g15
tp76
F0.027548441449031246
s(g7
g40
tp77
F0.011036225779275464
s(g4
g15
tp78
F0.019882055602358922
s(g48
g17
tp79
F0.023251895534962166
s(g4
g2
tp80
F0.016427969671440605
s(g30
g40
tp81
F0.026537489469250268
s(g14
g8
tp82
F0.026874473462510585
s(g25
g36
tp83
F0.027211457455770915
s(g11
g40
tp84
F0.027801179443976483
s(g11
g5
tp85
F0.012299915754001661
s(g1
g36
tp86
F0.02931760741364795
s(g14
g40
tp87
F0.02645324347093519
s(g7
g36
tp88
F0.011036225779275462
s(g1
g8
tp89
F0.028138163437236803
s(g48
g40
tp90
F0.029317607413647927
s(g28
g5
tp91
F0.01322662173546754
s(g48
g21
tp92
F0.02476832350463361
s(g30
g12
tp93
F0.021819713563605778
s(g14
g12
tp94
F0.024178601516428023
s(g25
g15
tp95
F0.025526537489469325
s(g30
g8
tp96
F0.02459983150800343
s(g48
g5
tp97
F0.012215669755686585
s(g48
g36
tp98
F0.03260320134793608
s(g25
g2
tp99
F0.02729570345408602
s.