(lp0
(S'en_uni3'
p1
S'fr_bi4'
p2
tp3
a(S'en_unif2'
p4
g2
tp5
a(S'en_bi2'
p6
g2
tp7
a(S'en_bi3'
p8
g2
tp9
a(S'en_bi4'
p10
g2
tp11
a(g1
S'fr_bi3'
p12
tp13
a(S'en_uni4'
p14
g2
tp15
a(g1
S'fr_uni4'
p16
tp17
a(g10
g12
tp18
a(g10
g16
tp19
a(g8
g12
tp20
a(g4
g12
tp21
a(g1
S'fr_uni3'
p22
tp23
a(g6
g22
tp24
a(g1
S'fr_unif3'
p25
tp26
a(S'en_uni2'
p27
S'fr_bi2'
p28
tp29
a(g27
g2
tp30
a(g27
S'fr_uni2'
p31
tp32
a(g6
S'fr_unif2'
p33
tp34
a(g10
g25
tp35
a(g14
g16
tp36
a(g6
g12
tp37
a(g14
g12
tp38
a(g6
g31
tp39
a(g4
g22
tp40
a(g10
g22
tp41
a(g27
g12
tp42
a(g27
g22
tp43
a(g4
g31
tp44
a(g6
g28
tp45
a(g27
g33
tp46
a(g8
g22
tp47
a(g1
g31
tp48
a(g6
g16
tp49
a(g1
g28
tp50
a(g4
g16
tp51
a(g8
g16
tp52
a(g14
g25
tp53
a(g4
g33
tp54
a(g8
g25
tp55
a(g4
g28
tp56
a(g1
g33
tp57
a(g14
g22
tp58
a(S'en_unif3'
p59
g16
tp60
a(g27
g16
tp61
a(g14
g28
tp62
a(g59
g2
tp63
a(g6
g25
tp64
a(g8
g33
tp65
a(g14
g31
tp66
a(g14
g33
tp67
a(g59
g12
tp68
a(g4
g25
tp69
a(g10
g33
tp70
a(g10
g28
tp71
a(g27
g25
tp72
a(g59
g25
tp73
a(g59
g22
tp74
a(g8
g28
tp75
a(g8
g31
tp76
a(g10
g31
tp77
a(g59
g33
tp78
a(g59
g28
tp79
a(g59
g31
tp80
a(g8
S'fr_unif4'
p81
tp82
a(g59
g81
tp83
a(g4
g81
tp84
a(g1
g81
tp85
a(S'en_unif4'
p86
g81
tp87
a(g86
g33
tp88
a(g86
g31
tp89
a(g14
g81
tp90
a(g27
g81
tp91
a(g6
g81
tp92
a(g86
g16
tp93
a(g86
g12
tp94
a(g86
g2
tp95
a(g86
g28
tp96
a(g10
g81
tp97
a(g86
g22
tp98
a(g86
g25
tp99
a.