(lp0
(S'en_uni2'
p1
S'fr_bi3'
p2
tp3
a(S'en_bi2'
p4
g2
tp5
a(S'en_uni4'
p6
g2
tp7
a(S'en_bi4'
p8
g2
tp9
a(S'en_bi3'
p10
g2
tp11
a(S'en_unif3'
p12
g2
tp13
a(S'en_uni3'
p14
g2
tp15
a(S'en_unif4'
p16
g2
tp17
a(g4
S'fr_bi4'
p18
tp19
a(g1
g18
tp20
a(g6
g18
tp21
a(g8
g18
tp22
a(g10
g18
tp23
a(g14
g18
tp24
a(g12
g18
tp25
a(S'en_unif2'
p26
g2
tp27
a(g16
g18
tp28
a(g4
S'fr_bi2'
p29
tp30
a(g1
g29
tp31
a(g6
g29
tp32
a(g8
g29
tp33
a(g12
g29
tp34
a(g10
g29
tp35
a(g14
g29
tp36
a(g26
g18
tp37
a(g1
S'fr_uni4'
p38
tp39
a(g4
g38
tp40
a(g6
g38
tp41
a(g8
g38
tp42
a(g12
g38
tp43
a(g10
g38
tp44
a(g14
g38
tp45
a(g16
g29
tp46
a(g16
g38
tp47
a(g26
g29
tp48
a(g1
S'fr_uni3'
p49
tp50
a(g4
g49
tp51
a(g6
g49
tp52
a(g8
g49
tp53
a(g10
g49
tp54
a(g14
g49
tp55
a(g12
g49
tp56
a(g1
S'fr_unif3'
p57
tp58
a(g4
g57
tp59
a(g6
g57
tp60
a(g8
g57
tp61
a(g10
g57
tp62
a(g14
g57
tp63
a(g12
g57
tp64
a(g16
g49
tp65
a(g26
g38
tp66
a(g16
g57
tp67
a(g1
S'fr_unif4'
p68
tp69
a(g6
g68
tp70
a(g4
g68
tp71
a(g14
g68
tp72
a(g8
g68
tp73
a(g10
g68
tp74
a(g12
g68
tp75
a(g26
g49
tp76
a(g26
g57
tp77
a(g16
g68
tp78
a(g8
S'fr_uni2'
p79
tp80
a(g6
g79
tp81
a(g4
g79
tp82
a(g1
g79
tp83
a(g14
g79
tp84
a(g12
g79
tp85
a(g10
g79
tp86
a(g26
g68
tp87
a(g16
g79
tp88
a(g26
g79
tp89
a(g6
S'fr_unif2'
p90
tp91
a(g14
g90
tp92
a(g12
g90
tp93
a(g8
g90
tp94
a(g26
g90
tp95
a(g10
g90
tp96
a(g1
g90
tp97
a(g4
g90
tp98
a(g16
g90
tp99
a.