(lp0
(lp1
(S'toward'
p2
S'vers'
p3
tp4
a(S'ron'
p5
S'ron'
p6
tp7
a(S'away'
p8
S'loin'
p9
tp10
a(S'last'
p11
S'dernier'
p12
tp13
a(S'word'
p14
S'mot'
p15
tp16
a(S'would'
p17
S'voudrais'
p18
tp19
a(S'worry'
p20
S'inqui\xc3\xa9ter'
p21
tp22
a(S'seemed'
p23
S'semblait'
p24
tp25
a(S'walked'
p26
S'march\xc3\xa9'
p27
tp28
a(S'he'
p29
S'il'
p30
tp31
aa(lp32
(S'normal'
p33
S'normal'
p34
tp35
ag13
a(S'owl'
p36
S'hibou'
p37
tp38
a(S'next'
p39
S'prochaine'
p40
tp41
ag16
a(S'horrible'
p42
S'horrible'
p43
tp44
a(S'forced'
p45
S'forc\xc3\xa9'
p46
tp47
a(S'sight'
p48
S'vue'
p49
tp50
a(S'carrying'
p51
S'portant'
p52
tp53
a(S'potter'
p54
g54
tp55
aa(lp56
g7
a(S'oh'
p57
S'oh'
p58
tp59
a(S'where'
p60
S'o\xc3\xb9'
p61
tp62
a(S'unpleasant'
p63
S'd\xc3\xa9sagr\xc3\xa9able'
p64
tp65
a(S'turban'
p66
S'turban'
p67
tp68
a(S'after'
p69
S'apr\xc3\xa8s'
p70
tp71
a(S'good'
p72
S'bon'
p73
tp74
a(S'quirrells'
p75
S'quirrell'
p76
tp77
a(S'shocked'
p78
S'choqu\xc3\xa9'
p79
tp80
a(S'under'
p81
S'sous'
p82
tp83
aa(lp84
(S'being'
p85
S'\xc3\xa9tant'
p86
tp87
a(S'hand'
p88
S'main'
p89
tp90
a(S'place'
p91
S'lieu'
p92
tp93
a(S'heads'
p94
S't\xc3\xaates'
p95
tp96
a(S'yes'
p97
S'oui'
p98
tp99
a(S'professor'
p100
S'professeur'
p101
tp102
a(S'did'
p103
S'fait'
p104
tp105
a(S'forgive'
p106
S'pardonner'
p107
tp108
a(S'father'
p109
S'p\xc3\xa8re'
p110
tp111
a(S'fire'
p112
S'feu'
p113
tp114
aa(lp115
(S'cant'
p116
S'pente'
p117
tp118
a(S'candy'
p119
S'bonbons'
p120
tp121
a(S'take'
p122
S'prendre'
p123
tp124
a(S'called'
p125
S'appel\xc3\xa9'
p126
tp127
a(S'funny'
p128
S'dr\xc3\xb4le'
p129
tp130
a(S'world'
p131
S'monde'
p132
tp133
a(S'man'
p134
S'homme'
p135
tp136
a(S'should'
p137
S'devrait'
p138
tp139
a(S'together'
p140
S'ensemble'
p141
tp142
a(S'some'
p143
S'certains'
p144
tp145
aa(lp146
(S'figg'
p147
S'figg'
p148
tp149
a(S'complain'
p150
S'plaindre'
p151
tp152
a(S'bring'
p153
S'apporter'
p154
tp155
a(S'difference'
p156
S'diff\xc3\xa9rence'
p157
tp158
a(S'goblin'
p159
S'gobelin'
p160
tp161
a(S'ink'
p162
S'encre'
p163
tp164
a(S'shoulders'
p165
S'\xc3\xa9paules'
p166
tp167
a(S'spells'
p168
S'sorts'
p169
tp170
a(S'darkness'
p171
S'obscurit\xc3\xa9'
p172
tp173
a(S'stool'
p174
S'tabouret'
p175
tp176
aa(lp177
(S'dragon'
p178
S'dragon'
p179
tp180
a(S'leaves'
p181
S'feuilles'
p182
tp183
a(S'jumped'
p184
S'saut\xc3\xa9'
p185
tp186
a(S'robes'
p187
S'robes'
p188
tp189
a(S'hidden'
p190
S'cach\xc3\xa9'
p191
tp192
a(S'happens'
p193
S'arrive'
p194
tp195
a(S'leg'
p196
S'jambe'
p197
tp198
a(S'pocket'
p199
S'poche'
p200
tp201
a(S'against'
p202
S'contre'
p203
tp204
a(S'feet'
p205
S'pieds'
p206
tp207
aa(lp208
(S'stamp'
p209
S'timbre'
p210
tp211
a(S'dormitory'
p212
S'dortoir'
p213
tp214
a(S'damp'
p215
S'humide'
p216
tp217
a(S'looks'
p218
S'regards'
p219
tp220
a(S'jordan'
p221
g221
tp222
a(S'lee'
p223
S'lee'
p224
tp225
a(S'expelled'
p226
S'exclu'
p227
tp228
a(S'mad'
p229
S'fou'
p230
tp231
a(S'leaning'
p232
S'pench\xc3\xa9'
p233
tp234
a(S'hoping'
p235
S'esp\xc3\xa9rant'
p236
tp237
aa(lp238
(S'made'
p239
S'fabriqu\xc3\xa9'
p240
tp241
a(S'speak'
p242
S'parler'
p243
tp244
a(S'beard'
p245
S'barbe'
p246
tp247
a(S'name'
p248
S'nom'
p249
tp250
a(S'stone'
p251
S'pierre'
p252
tp253
a(S'gave'
p254
S'donn\xc3\xa9'
p255
tp256
a(S'met'
p257
S'rencontr\xc3\xa9'
p258
tp259
a(S'weak'
p260
S'faible'
p261
tp262
a(S'fred'
p263
S'fred'
p264
tp265
a(S'saved'
p266
S'sauv\xc3\xa9'
p267
tp268
aa.