(dp0
S'foul'
p1
S'faute'
p2
sS'four'
p3
S'quatre'
p4
sS'woods'
p5
S'bois'
p6
sS'sleep'
p7
S'sommeil'
p8
sS'captain'
p9
S'capitaine'
p10
sS'hate'
p11
S'haine'
p12
sS'wizardry'
p13
S'magie'
p14
sS'presents'
p15
S'cadeaux'
p16
sS'bike'
p17
S'v\xc3\xa9lo'
p18
sS'under'
p19
S'sous'
p20
sS'lord'
p21
S'seigneur'
p22
sS'sorry'
p23
S'd\xc3\xa9sol\xc3\xa9'
p24
sS'worth'
p25
S'valeur'
p26
sS'figg'
p27
S'figg'
p28
sS'every'
p29
S'chaque'
p30
sS'yellow'
p31
S'jaune'
p32
sS'screaming'
p33
S'hurlement'
p34
sS'school'
p35
S'\xc3\xa9cole'
p36
sS'clothes'
p37
S'v\xc3\xaatements'
p38
sS'force'
p39
S'force'
p40
sS'tired'
p41
S'fatigu\xc3\xa9'
p42
sS'bacon'
p43
S'bacon'
p44
sS'griphook'
p45
S'gripsec'
p46
sS'second'
p47
S'deuxi\xc3\xa8me'
p48
sS'street'
p49
S'rue'
p50
sS'quill'
p51
S'plume'
p52
sS'blue'
p53
S'bleu'
p54
sS'hide'
p55
S'cacher'
p56
sS'saved'
p57
S'sauv\xc3\xa9'
p58
sS'fingers'
p59
S'doigts'
p60
sS'lights'
p61
S'lumi\xc3\xa8res'
p62
sS'above'
p63
S'dessus'
p64
sS'new'
p65
S'nouveau'
p66
sS'leviosa'
p67
S'leviosa'
p68
sS'ever'
p69
S'jamais'
p70
sS'told'
p71
S'dit'
p72
sS'stared'
p73
S'regard\xc3\xa9'
p74
sS'met'
p75
S'rencontr\xc3\xa9'
p76
sS'path'
p77
S'chemin'
p78
sS'crossbow'
p79
S'arbal\xc3\xa8te'
p80
sS'dry'
p81
S'sec'
p82
sS'study'
p83
S'\xc3\xa9tude'
p84
sS'piercing'
p85
S'per\xc3\xa7ant'
p86
sS'smoke'
p87
S'fum\xc3\xa9e'
p88
sS'glittering'
p89
S'\xc3\xa9tincelant'
p90
sS'eyebrows'
p91
S'sourcils'
p92
sS'explained'
p93
S'expliqu\xc3\xa9'
p94
sS'brought'
p95
S'apport\xc3\xa9'
p96
sS'spoke'
p97
S'rayon'
p98
sS'would'
p99
S'voudrais'
p100
sS'hospital'
p101
S'h\xc3\xb4pital'
p102
sS'coins'
p103
S'pi\xc3\xa8ces'
p104
sS'story'
p105
S'histoire'
p106
sS'privet'
p107
g107
sS'call'
p108
S'appel'
p109
sS'calm'
p110
S'calme'
p111
sS'tell'
p112
S'dire'
p113
sS'breathe'
p114
S'respirer'
p115
sS'award'
p116
S'prix'
p117
sS'hurt'
p118
S'blesser'
p119
sS'warn'
p120
S'pr\xc3\xa9venir'
p121
sS'glass'
p122
S'verre'
p123
sS'warm'
p124
S'chaud'
p125
sS'excellent'
p126
S'excellent'
p127
sS'hole'
p128
S'trou'
p129
sS'hold'
p130
S'tenir'
p131
sS'word'
p132
S'mot'
p133
sS'wore'
p134
S'portait'
p135
sS'player'
p136
S'joueur'
p137
sS'work'
p138
S'travail'
p139
sS'roof'
p140
S'toit'
p141
sS'my'
p142
S'ma'
p143
sS'shook'
p144
S'secoua'
p145
sS'give'
p146
S'donner'
p147
sS'dragons'
p148
S'dragons'
p149
sS'want'
p150
S'vouloir'
p151
sS'keep'
p152
S'garder'
p153
sS'end'
p154
S'fin'
p155
sS'thing'
p156
S'chose'
p157
sS'hot'
p158
S'chaud'
p159
sS'answer'
p160
S'r\xc3\xa9ponse'
p161
sS'ordinary'
p162
S'ordinaire'
p163
sS'fudge'
p164
S'caramel'
p165
sS'badly'
p166
S'mal'
p167
sS'after'
p168
S'apr\xc3\xa8s'
p169
sS'wrong'
p170
S'mal'
p171
sS'lay'
p172
S'poser'
p173
sS'passageway'
p174
S'passage'
p175
sS'lap'
p176
S'tour'
p177
sS'third'
p178
S'troisi\xc3\xa8me'
p179
sS'fungi'
p180
S'champignons'
p181
sS'owls'
p182
S'hiboux'
p183
sS'green'
p184
S'vert'
p185
sS'seamus'
p186
S'seamus'
p187
sS'order'
p188
S'ordre'
p189
sS'wind'
p190
S'vent'
p191
sS'office'
p192
S'bureau'
p193
sS'dreamed'
p194
S'r\xc3\xaav\xc3\xa9'
p195
sS'london'
p196
S'londres'
p197
sS'before'
p198
S'avant'
p199
sS'fireplace'
p200
S'chemin\xc3\xa9e'
p201
sS'writing'
p202
S'\xc3\xa9criture'
p203
sS'better'
p204
S'mieux'
p205
sS'weeks'
p206
S'semaines'
p207
sS'woken'
p208
S'r\xc3\xa9veill\xc3\xa9'
p209
sS'break'
p210
S'pause'
p211
sS'youknowwho'
p212
S'tusaisqui'
p213
sS'sixteen'
p214
S'seize'
p215
sS'silver'
p216
S'argent'
p217
sS'shadows'
p218
S'ombres'
p219
sS'mcgonagall'
p220
g220
sS'frantically'
p221
S'fr\xc3\xa9n\xc3\xa9tiquement'
p222
sS'leaned'
p223
S'pencha'
p224
sS'each'
p225
S'chaque'
p226
sS'side'
p227
S'c\xc3\xb4t\xc3\xa9'
p228
sS'luck'
p229
S'chance'
p230
sS'celebrating'
p231
S'c\xc3\xa9l\xc3\xa9brer'
p232
sS'glinting'
p233
S'\xc3\xa9tincelant'
p234
sS'saturday'
p235
S'samedi'
p236
sS'sorcerers'
p237
S'sorciers'
p238
sS'centaurs'
p239
S'centaures'
p240
sS'george'
p241
S'george'
p242
sS'surprise'
p243
S'surprise'
p244
sS'turning'
p245
S'tournant'
p246
sS'barrier'
p247
S'barri\xc3\xa8re'
p248
sS'little'
p249
S'peu'
p250
sS'fred'
p251
S'fred'
p252
sS'evil'
p253
S'mal'
p254
sS'amazement'
p255
S'stup\xc3\xa9faction'
p256
sS'wanted'
p257
S'voulu'
p258
sS'enormous'
p259
S'\xc3\xa9norme'
p260
sS'ate'
p261
S'mang\xc3\xa9'
p262
sS'shelves'
p263
S'\xc3\xa9tag\xc3\xa8res'
p264
sS'cauldrons'
p265
S'chaudrons'
p266
sS'days'
p267
S'journ\xc3\xa9es'
p268
sS'potions'
p269
S'potions'
p270
sS'footsteps'
p271
S'traces'
p272
sS'rang'
p273
S'rang'
p274
sS'already'
p275
S'd\xc3\xa9j\xc3\xa0'
p276
sS'floors'
p277
S'\xc3\xa9tages'
p278
sS'another'
p279
S'autre'
p280
sS'twitched'
p281
S'remua'
p282
sS'goblins'
p283
S'gobelins'
p284
sS'top'
p285
S'haut'
p286
sS'girls'
p287
S'filles'
p288
sS'twisted'
p289
S'tordu'
p290
sS'needed'
p291
S'n\xc3\xa9cessaire'
p292
sS'master'
p293
S'ma\xc3\xaetre'
p294
sS'too'
p295
S'trop'
p296
sS'legs'
p297
S'jambes'
p298
sS'dogs'
p299
S'chiens'
p300
sS'listen'
p301
S'\xc3\xa9couter'
p302
sS'curtains'
p303
S'rideaux'
p304
sS'ceiling'
p305
S'plafond'
p306
sS'happily'
p307
S'heureusement'
p308
sS'feathers'
p309
S'plumes'
p310
sS'distance'
p311
S'distance'
p312
sS'showed'
p313
S'montr\xc3\xa9'
p314
sS'tree'
p315
S'arbre'
p316
sS'matter'
p317
S'question'
p318
sS'feeling'
p319
S'sentiment'
p320
sS'handkerchief'
p321
S'mouchoir'
p322
sS'ran'
p323
S'courut'
p324
sS'mind'
p325
S'esprit'
p326
sS'mine'
p327
S'mine'
p328
sS'rat'
p329
S'rat'
p330
sS'seen'
p331
S'vu'
p332
sS'seem'
p333
S'para\xc3\xaetre'
p334
sS'ollivander'
p335
S'ollivander'
p336
sS'forced'
p337
S'forc\xc3\xa9'
p338
sS'eagerly'
p339
S'avidement'
p340
sS'chest'
p341
S'poitrine'
p342
sS'chess'
p343
S'\xc3\xa9checs'
p344
sS'doors'
p345
S'portes'
p346
sS'even'
p347
S'm\xc3\xaame'
p348
sS'nobody'
p349
S'personne'
p350
sS'shall'
p351
S'doit'
p352
sS'transfiguration'
p353
S'm\xc3\xa9tamorphose'
p354
sS'mouth'
p355
S'bouche'
p356
sS'letter'
p357
S'lettre'
p358
sS'erised'
p359
S'ris\xc3\xa9d'
p360
sS'don'
p361
S'don'
p362
sS'nostrils'
p363
S'narines'
p364
sS'professor'
p365
S'professeur'
p366
sS'dog'
p367
S'chien'
p368
sS'points'
p369
S'points'
p370
sS'aunt'
p371
S'tante'
p372
sS'sun'
p373
S'soleil'
p374
sS'saying'
p375
S'disant'
p376
sS'queen'
p377
S'reine'
p378
sS'sneaking'
p379
S'faufiler'
p380
sS'earth'
p381
S'terre'
p382
sS'toast'
p383
S'toast'
p384
sS'busy'
p385
S'occup\xc3\xa9'
p386
sS'explain'
p387
S'expliquer'
p388
sS'muggles'
p389
S'moldus'
p390
sS'touched'
p391
S'touch\xc3\xa9'
p392
sS'excitedly'
p393
S'excit\xc3\xa9'
p394
sS'wearing'
p395
S'porter'
p396
sS'plate'
p397
S'plaque'
p398
sS'mixture'
p399
S'm\xc3\xa9lange'
p400
sS'stop'
p401
S'arr\xc3\xaater'
p402
sS'firenze'
p403
S'firenze'
p404
sS'pocket'
p405
S'poche'
p406
sS'report'
p407
S'rapport'
p408
sS'nasty'
p409
S'm\xc3\xa9chant'
p410
sS'bag'
p411
S'sac'
p412
sS'bad'
p413
S'mauvais'
p414
sS'softly'
p415
S'doucement'
p416
sS'quaffle'
p417
S'souafle'
p418
sS'steal'
p419
S'voler'
p420
sS'ears'
p421
S'ou\xc3\xafe'
p422
sS'blew'
p423
S'souffla'
p424
sS'fair'
p425
S'juste'
p426
sS'decided'
p427
S'd\xc3\xa9cid\xc3\xa9'
p428
sS'best'
p429
S'meilleur'
p430
sS'onto'
p431
S'sur'
p432
sS'lots'
p433
S'beaucoup'
p434
sS'away'
p435
S'loin'
p436
sS'mum'
p437
S'maman'
p438
sS'sorts'
p439
S'sortes'
p440
sS'rolled'
p441
S'roul\xc3\xa9'
p442
sS'weak'
p443
S'faible'
p444
sS'however'
p445
S'cependant'
p446
sS'vernon'
p447
g447
sS'news'
p448
S'nouvelles'
p449
sS'kitchen'
p450
S'cuisine'
p451
sS'received'
p452
S're\xc3\xa7u'
p453
sS'protect'
p454
S'prot\xc3\xa9ger'
p455
sS'dedalus'
p456
S'dedalus'
p457
sS'country'
p458
S'pays'
p459
sS'against'
p460
S'contre'
p461
sS'players'
p462
S'joueurs'
p463
sS'faces'
p464
S'visages'
p465
sS'asked'
p466
S'demand\xc3\xa9'
p467
sS'appeared'
p468
S'apparu'
p469
sS'unicorns'
p470
S'licornes'
p471
sS'trust'
p472
S'confiance'
p473
sS'speak'
p474
S'parler'
p475
sS'trapdoor'
p476
S'trappe'
p477
sS'ropes'
p478
S'cordes'
p479
sS'three'
p480
S'trois'
p481
sS'tiny'
p482
S'minuscule'
p483
sS'quickly'
p484
S'rapidement'
p485
sS'much'
p486
S'beaucoup'
p487
sS'interest'
p488
S'int\xc3\xa9r\xc3\xaat'
p489
sS'expected'
p490
S'attendu'
p491
sS'entered'
p492
S'entr\xc3\xa9'
p493
sS'warmth'
p494
S'chaleur'
p495
sS'threw'
p496
S'jeta'
p497
sS'life'
p498
S'vie'
p499
sS'families'
p500
S'familles'
p501
sS'scabbers'
p502
S'cro\xc3\xbbtard'
p503
sS'malfoys'
p504
S'malefoy'
p505
sS'has'
p506
S'a'
p507
sS'air'
p508
S'air'
p509
sS'voice'
p510
S'voix'
p511
sS'leaves'
p512
S'feuilles'
p513
sS'mistake'
p514
S'erreur'
p515
sS'seven'
p516
S'sept'
p517
sS'shame'
p518
S'honte'
p519
sS'cant'
p520
S'pente'
p521
sS'bottles'
p522
S'bouteilles'
p523
sS'things'
p524
S'choses'
p525
sS'make'
p526
S'faire'
p527
sS'forehead'
p528
S'front'
p529
sS'several'
p530
S'plusieurs'
p531
sS'hang'
p532
S'pendre'
p533
sS'remembrall'
p534
S'rapeltout'
p535
sS'rain'
p536
S'pluie'
p537
sS'hand'
p538
S'main'
p539
sS'norwegian'
p540
S'norv\xc3\xa9gien'
p541
sS'unicorn'
p542
S'licorne'
p543
sS'kid'
p544
S'enfant'
p545
sS'charlie'
p546
S'charlie'
p547
sS'contact'
p548
S'contact'
p549
sS'mother'
p550
S'm\xc3\xa8re'
p551
sS'left'
p552
S'gauche'
p553
sS'thanks'
p554
S'merci'
p555
sS'human'
p556
S'humain'
p557
sS'yes'
p558
S'oui'
p559
sS'yet'
p560
S'encore'
p561
sS'nicolas'
p562
S'nicolas'
p563
sS'snout'
p564
S'museau'
p565
sS'shout'
p566
S'cri'
p567
sS'board'
p568
S'conseil'
p569
sS'easy'
p570
S'facile'
p571
sS'save'
p572
S'sauver'
p573
sS'hat'
p574
S'chapeau'
p575
sS'expelled'
p576
S'exclu'
p577
sS'gave'
p578
S'donn\xc3\xa9'
p579
sS'possible'
p580
S'possible'
p581
sS'dreams'
p582
S'r\xc3\xaaves'
p583
sS'shoulder'
p584
S'\xc3\xa9paule'
p585
sS'peeves'
p586
S'peeves'
p587
sS'steps'
p588
S'mesures'
p589
sS'night'
p590
S'nuit'
p591
sS'old'
p592
S'vieux'
p593
sS'rustling'
p594
S'bruissement'
p595
sS'people'
p596
S'personnes'
p597
sS'dead'
p598
S'mort'
p599
sS'dear'
p600
S'cher'
p601
sS'bottom'
p602
S'bas'
p603
sS'purple'
p604
S'pourpre'
p605
sS'opposite'
p606
S'oppos\xc3\xa9'
p607
sS'ice'
p608
S'glace'
p609
sS'everything'
p610
S'tout'
p611
sS'icy'
p612
S'glac\xc3\xa9'
p613
sS'asking'
p614
S'demandant'
p615
sS'christmas'
p616
S'no\xc3\xabl'
p617
sS'disappeared'
p618
S'disparu'
p619
sS'keeper'
p620
S'gardien'
p621
sS'chapter'
p622
S'chapitre'
p623
sS'months'
p624
S'mois'
p625
sS'dinner'
p626
S'd\xc3\xaener'
p627
sS'slightly'
p628
S'l\xc3\xa9g\xc3\xa8rement'
p629
sS'raised'
p630
S'relev\xc3\xa9'
p631
sS'delighted'
p632
S'ravi'
p633
sS'cauldron'
p634
S'chaudron'
p635
sS'son'
p636
S'fils'
p637
sS'lies'
p638
S'mensonges'
p639
sS'frightened'
p640
S'effray\xc3\xa9'
p641
sS'strangely'
p642
S'\xc3\xa9trangement'
p643
sS'crowd'
p644
S'foule'
p645
sS'flying'
p646
S'volant'
p647
sS'class'
p648
S'classe'
p649
sS'stuck'
p650
S'coll\xc3\xa9'
p651
sS'seeker'
p652
S'attrapeur'
p653
sS'way'
p654
S'fa\xc3\xa7on'
p655
sS'music'
p656
S'musique'
p657
sS'happy'
p658
S'heureux'
p659
sS'head'
p660
S't\xc3\xaate'
p661
sS'becoming'
p662
S'devenir'
p663
sS'taken'
p664
S'pris'
p665
sS'hear'
p666
S'entendre'
p667
sS'granger'
p668
S'granger'
p669
sS'true'
p670
S'vrai'
p671
sS'duel'
p672
S'duel'
p673
sS'braver'
p674
S'courageux'
p675
sS'flitwick'
p676
S'flitwick'
p677
sS'temper'
p678
S'humeur'
p679
sS'drive'
p680
S'drive'
p681
sS'howling'
p682
S'hurlant'
p683
sS'floating'
p684
S'flottant'
p685
sS'mrs'
p686
S'madame'
p687
sS'trip'
p688
S'voyage'
p689
sS'floor'
p690
S'\xc3\xa9tage'
p691
sS'handed'
p692
S'main'
p693
sS'interested'
p694
S'int\xc3\xa9ress\xc3\xa9'
p695
sS'holding'
p696
S'tenue'
p697
sS'vanished'
p698
S'disparu'
p699
sS'smell'
p700
S'odeur'
p701
sS'roll'
p702
S'rouleau'
p703
sS'brothers'
p704
S'fr\xc3\xa8res'
p705
sS'phoenix'
p706
S'ph\xc3\xa9nix'
p707
sS'toad'
p708
S'crapaud'
p709
sS'welcome'
p710
S'bienvenue'
p711
sS'fell'
p712
S'abattre'
p713
sS'died'
p714
S'mort'
p715
sS'younger'
p716
S'jeune'
p717
sS'happening'
p718
S'\xc3\xa9v\xc3\xa9nement'
p719
sS'together'
p720
S'ensemble'
p721
sS'time'
p722
S'temps'
p723
sS'serious'
p724
S'grave'
p725
sS'hissed'
p726
S'siffla'
p727
sS'ron'
p728
S'ron'
p729
sS'rob'
p730
S'voler'
p731
sS'skin'
p732
S'peau'
p733
sS'chair'
p734
S'chaise'
p735
sS'row'
p736
S'rang\xc3\xa9e'
p737
sS'certainly'
p738
S's\xc3\xbbrement'
p739
sS'father'
p740
S'p\xc3\xa8re'
p741
sS'passage'
p742
S'passage'
p743
sS'answered'
p744
S'r\xc3\xa9pondu'
p745
sS'finally'
p746
S'enfin'
p747
sS'unpleasant'
p748
S'd\xc3\xa9sagr\xc3\xa9able'
p749
sS'marks'
p750
S'marques'
p751
sS'brown'
p752
S'brun'
p753
sS'keeping'
p754
S'garde'
p755
sS'choice'
p756
S'choix'
p757
sS'bartender'
p758
S'barman'
p759
sS'trouble'
p760
S'difficult\xc3\xa9'
p761
sS'minute'
p762
S'minute'
p763
sS'room'
p764
S'salle'
p765
sS'sighed'
p766
S'soupira'
p767
sS'did'
p768
S'fait'
p769
sS'die'
p770
S'mourir'
p771
sS'brother'
p772
S'fr\xc3\xa8re'
p773
sS'leave'
p774
S'laisser'
p775
sS'team'
p776
S'\xc3\xa9quipe'
p777
sS'quick'
p778
S'rapide'
p779
sS'round'
p780
S'tour'
p781
sS'brave'
p782
S'courageux'
p783
sS'says'
p784
S'dit'
p785
sS'sign'
p786
S'signe'
p787
sS'run'
p788
S'course'
p789
sS'uniform'
p790
S'uniforme'
p791
sS'goes'
p792
S'va'
p793
sS'filled'
p794
S'rempli'
p795
sS'angelina'
p796
S'angelina'
p797
sS'water'
p798
S'eau'
p799
sS'witch'
p800
S'sorci\xc3\xa8re'
p801
sS'alone'
p802
S'seul'
p803
sS'teacher'
p804
S'professeur'
p805
sS'change'
p806
S'changement'
p807
sS'wait'
p808
S'attendre'
p809
sS'box'
p810
S'bo\xc3\xaete'
p811
sS'boy'
p812
S'gar\xc3\xa7on'
p813
sS'neville'
p814
g814
sS'flames'
p815
S'flammes'
p816
sS'brilliant'
p817
S'brillant'
p818
sS'grinned'
p819
S'sourit'
p820
sS'sparks'
p821
S'\xc3\xa9tincelles'
p822
sS'exams'
p823
S'examens'
p824
sS'usually'
p825
S'habituellement'
p826
sS'flamel'
p827
S'flamel'
p828
sS'useful'
p829
S'utile'
p830
sS'extra'
p831
S'suppl\xc3\xa9mentaire'
p832
sS'bloody'
p833
S'sanglant'
p834
sS'visit'
p835
S'visite'
p836
sS'live'
p837
S'vivre'
p838
sS'wondering'
p839
S'demande'
p840
sS'armchairs'
p841
S'fauteuils'
p842
sS'roared'
p843
S'rugit'
p844
sS'gryffindor'
p845
S'gryffondor'
p846
sS'afford'
p847
S'permettre'
p848
sS'envelope'
p849
S'enveloppe'
p850
sS'chocolate'
p851
S'chocolat'
p852
sS'everywhere'
p853
S'partout'
p854
sS'voldemorts'
p855
S'voldemort'
p856
sS'fly'
p857
S'voler'
p858
sS'car'
p859
S'voiture'
p860
sS'pretend'
p861
S'pr\xc3\xa9tendre'
p862
sS'owlery'
p863
S'voli\xc3\xa8re'
p864
sS'cat'
p865
S'chat'
p866
sS'wands'
p867
S'baguettes'
p868
sS'can'
p869
S'bo\xc3\xaete'
p870
sS'believed'
p871
S'cru'
p872
sS'making'
p873
S'fabrication'
p874
sS'laughter'
p875
S'rire'
p876
sS'heart'
p877
S'coeur'
p878
sS'figure'
p879
S'figure'
p880
sS'frogs'
p881
S'grenouilles'
p882
sS'confused'
p883
S'confus'
p884
sS'heard'
p885
S'entendu'
p886
sS'allowed'
p887
S'permis'
p888
sS'pink'
p889
S'rose'
p890
sS'means'
p891
S'moyens'
p892
sS'poking'
p893
S'piquer'
p894
sS'map'
p895
S'carte'
p896
sS'staying'
p897
S'rester'
p898
sS'staircase'
p899
S'escalier'
p900
sS'may'
p901
S'peut'
p902
sS'dive'
p903
S'plongeon'
p904
sS'crashed'
p905
S'\xc3\xa9cras\xc3\xa9'
p906
sS'birthday'
p907
S'anniversaire'
p908
sS'snape'
p909
S'rogue'
p910
sS'mad'
p911
S'fou'
p912
sS'such'
p913
S'tel'
p914
sS'man'
p915
S'homme'
p916
sS'branches'
p917
S'branches'
p918
sS'neck'
p919
S'cou'
p920
sS'johnson'
p921
S'johnson'
p922
sS'glancing'
p923
S'regardant'
p924
sS'tall'
p925
S'grand'
p926
sS'pulled'
p927
S'tir\xc3\xa9'
p928
sS'talk'
p929
S'parler'
p930
sS'imagining'
p931
S'imaginant'
p932
sS'pointed'
p933
S'pointu'
p934
sS'midnight'
p935
S'minuit'
p936
sS'years'
p937
S'ans'
p938
sS'fangs'
p939
S'crocs'
p940
sS'course'
p941
S'cours'
p942
sS'cold'
p943
S'froid'
p944
sS'still'
p945
S'encore'
p946
sS'birds'
p947
S'oiseaux'
p948
sS'blocked'
p949
S'bloqu\xc3\xa9'
p950
sS'tore'
p951
S'd\xc3\xa9chira'
p952
sS'thank'
p953
S'merci'
p954
sS'interesting'
p955
S'int\xc3\xa9ressant'
p956
sS'twitching'
p957
S'tremblement'
p958
sS'window'
p959
S'fen\xc3\xaatre'
p960
sS'mail'
p961
S'courrier'
p962
sS'halt'
p963
S'arr\xc3\xaat'
p964
sS'rattled'
p965
S'secou\xc3\xa9'
p966
sS'underneath'
p967
S'dessous'
p968
sS'boats'
p969
S'bateaux'
p970
sS'half'
p971
S'moiti\xc3\xa9'
p972
sS'hall'
p973
S'salle'
p974
sS'nor'
p975
S'ni'
p976
sS'term'
p977
S'terme'
p978
sS'shouted'
p979
S'cria'
p980
sS'name'
p981
S'nom'
p982
sS'chuckled'
p983
S'ricana'
p984
sS'james'
p985
g985
sS'drop'
p986
S'tomber'
p987
sS'eh'
p988
S'hein'
p989
sS'year'
p990
S'ann\xc3\xa9e'
p991
sS'happen'
p992
S'arriver'
p993
sS'morning'
p994
S'matin'
p995
sS'troll'
p996
S'troll'
p997
sS'living'
p998
S'vie'
p999
sS'opened'
p1000
S'ouvert'
p1001
sS'looking'
p1002
S'recherche'
p1003
sS'hufflepuff'
p1004
S'poufsouffle'
p1005
sS'albus'
p1006
S'albus'
p1007
sS'cart'
p1008
S'chariot'
p1009
sS'quite'
p1010
S'assez'
p1011
sS'severus'
p1012
S'severus'
p1013
sS'card'
p1014
S'carte'
p1015
sS'ministry'
p1016
S'minist\xc3\xa8re'
p1017
sS'turn'
p1018
S'tour'
p1019
sS'place'
p1020
S'lieu'
p1021
sS'waited'
p1022
S'attendu'
p1023
sS'first'
p1024
S'premier'
p1025
sS'romania'
p1026
S'roumanie'
p1027
sS'vernons'
p1028
g447
sS'potter'
p1029
g1029
sS'merrily'
p1030
S'joyeusement'
p1031
sS'long'
p1032
S'longue'
p1033
sS'carry'
p1034
S'porter'
p1035
sS'impossible'
p1036
S'impossible'
p1037
sS'drove'
p1038
S'conduite'
p1039
sS'open'
p1040
S'ouvert'
p1041
sS'dursleys'
p1042
S'dursley'
p1043
sS'size'
p1044
S'taille'
p1045
sS'given'
p1046
S'donn\xc3\xa9'
p1047
sS'silent'
p1048
S'silencieux'
p1049
sS'bite'
p1050
S'mordre'
p1051
sS'plastic'
p1052
S'plastique'
p1053
sS'anyone'
p1054
S'personne'
p1055
sS'white'
p1056
S'blanc'
p1057
sS'friend'
p1058
S'ami'
p1059
sS'gives'
p1060
S'donne'
p1061
sS'eyes'
p1062
S'yeux'
p1063
sS'than'
p1064
S'que'
p1065
sS'wide'
p1066
S'large'
p1067
sS'television'
p1068
S't\xc3\xa9l\xc3\xa9vision'
p1069
sS'unfortunately'
p1070
S'malheureusement'
p1071
sS'gotta'
p1072
S'dois'
p1073
sS'cards'
p1074
S'cartes'
p1075
sS'turned'
p1076
S'tourn\xc3\xa9'
p1077
sS'voices'
p1078
S'voix'
p1079
sS'say'
p1080
S'dire'
p1081
sS'anger'
p1082
S'col\xc3\xa8re'
p1083
sS'any'
p1084
S'tout'
p1085
sS'shocked'
p1086
S'choqu\xc3\xa9'
p1087
sS'zoo'
p1088
S'zoo'
p1089
sS'note'
p1090
S'note'
p1091
sS'take'
p1092
S'prendre'
p1093
sS'wanting'
p1094
S'vouloir'
p1095
sS'sure'
p1096
S's\xc3\xbbr'
p1097
sS'pain'
p1098
S'douleur'
p1099
sS'normal'
p1100
S'normal'
p1101
sS'knew'
p1102
S'savait'
p1103
sS'sheets'
p1104
S'feuilles'
p1105
sS'pair'
p1106
S'paire'
p1107
sS'knee'
p1108
S'genou'
p1109
sS'cleared'
p1110
S'd\xc3\xa9gag\xc3\xa9'
p1111
sS'forever'
p1112
S'toujours'
p1113
sS'proud'
p1114
S'fier'
p1115
sS'hungry'
p1116
S'avide'
p1117
sS'wing'
p1118
S'aile'
p1119
sS'shop'
p1120
S'boutique'
p1121
sS'walking'
p1122
S'marche'
p1123
sS'shot'
p1124
S'coup'
p1125
sS'show'
p1126
S'spectacle'
p1127
sS'fifty'
p1128
S'cinquante'
p1129
sS'percy'
p1130
S'percy'
p1131
sS'bright'
p1132
S'clair'
p1133
sS'prefects'
p1134
S'pr\xc3\xa9fets'
p1135
sS'corner'
p1136
S'coin'
p1137
sS'ground'
p1138
S'terrain'
p1139
sS'cloak'
p1140
S'manteau'
p1141
sS'tears'
p1142
S'larmes'
p1143
sS'wood'
p1144
S'bois'
p1145
sS'black'
p1146
S'noir'
p1147
sS'pumpkin'
p1148
S'citrouille'
p1149
sS'nearly'
p1150
S'presque'
p1151
sS'worried'
p1152
S'inquiet'
p1153
sS'stupid'
p1154
S'stupide'
p1155
sS'where'
p1156
S'o\xc3\xb9'
p1157
sS'silently'
p1158
S'silencieusement'
p1159
sS'burst'
p1160
S'\xc3\xa9clat'
p1161
sS'dived'
p1162
S'plong\xc3\xa9'
p1163
sS'seat'
p1164
S'si\xc3\xa8ge'
p1165
sS'asleep'
p1166
S'endormi'
p1167
sS'ways'
p1168
S'moyens'
p1169
sS'jumped'
p1170
S'saut\xc3\xa9'
p1171
sS'seekers'
p1172
S'attrapeurs'
p1173
sS'dormitory'
p1174
S'dortoir'
p1175
sS'outside'
p1176
S'ext\xc3\xa9rieur'
p1177
sS'between'
p1178
S'entre'
p1179
sS'reading'
p1180
S'lecture'
p1181
sS'moaned'
p1182
S'g\xc3\xa9mit'
p1183
sS'whispered'
p1184
S'murmura'
p1185
sS'notice'
p1186
S'avis'
p1187
sS'concentrate'
p1188
S'concentrer'
p1189
sS'come'
p1190
S'venir'
p1191
sS'many'
p1192
S'beaucoup'
p1193
sS'quiet'
p1194
S'calme'
p1195
sS'loudly'
p1196
S'fort'
p1197
sS'desperately'
p1198
S'd\xc3\xa9sesp\xc3\xa9r\xc3\xa9ment'
p1199
sS'gringotts'
p1200
S'gringotts'
p1201
sS'among'
p1202
S'entre'
p1203
sS'color'
p1204
S'couleur'
p1205
sS'twin'
p1206
S'double'
p1207
sS'boat'
p1208
S'bateau'
p1209
sS'muttered'
p1210
S'murmura'
p1211
sS'destroyed'
p1212
S'd\xc3\xa9truit'
p1213
sS'arts'
p1214
S'lettres'
p1215
sS'oliver'
p1216
S'olivier'
p1217
sS'mark'
p1218
S'marque'
p1219
sS'breath'
p1220
S'souffle'
p1221
sS'punished'
p1222
S'puni'
p1223
sS'mars'
p1224
S'mars'
p1225
sS'wants'
p1226
S'veut'
p1227
sS'direction'
p1228
S'direction'
p1229
sS'offered'
p1230
S'pr\xc3\xa9sent\xc3\xa9'
p1231
sS'wake'
p1232
S'r\xc3\xa9veiller'
p1233
sS'careful'
p1234
S'prudent'
p1235
sS'hidden'
p1236
S'cach\xc3\xa9'
p1237
sS'those'
p1238
S'ceux'
p1239
sS'sound'
p1240
S'sonner'
p1241
sS'these'
p1242
S'ces'
p1243
sS'voldemort'
p1244
S'voldemort'
p1245
sS'squeezed'
p1246
S'comprim\xc3\xa9'
p1247
sS'shops'
p1248
S'boutiques'
p1249
sS'telephone'
p1250
S't\xc3\xa9l\xc3\xa9phone'
p1251
sS'middle'
p1252
S'milieu'
p1253
sS'evening'
p1254
S'soir\xc3\xa9e'
p1255
sS'petunia'
p1256
S'p\xc3\xa9tunia'
p1257
sS'worry'
p1258
S'inqui\xc3\xa9ter'
p1259
sS'different'
p1260
S'diff\xc3\xa9rent'
p1261
sS'pay'
p1262
S'payer'
p1263
sS'reminded'
p1264
S'rappel\xc3\xa9'
p1265
sS'same'
p1266
S'm\xc3\xaame'
p1267
sS'wizards'
p1268
S'sorciers'
p1269
sS'struggling'
p1270
S'difficult\xc3\xa9'
p1271
sS'week'
p1272
S'semaine'
p1273
sS'roughly'
p1274
S'grossi\xc3\xa8rement'
p1275
sS'without'
p1276
S'sans'
p1277
sS'bottle'
p1278
S'bouteille'
p1279
sS'amazed'
p1280
S'\xc3\xa9tonn\xc3\xa9'
p1281
sS'summer'
p1282
S'\xc3\xa9t\xc3\xa9'
p1283
sS'bludger'
p1284
S'cognard'
p1285
sS'being'
p1286
S'\xc3\xa9tant'
p1287
sS'money'
p1288
S'argent'
p1289
sS'rest'
p1290
S'reste'
p1291
sS'growled'
p1292
S'grogna'
p1293
sS'kill'
p1294
S'tuer'
p1295
sS'snarled'
p1296
S'gronda'
p1297
sS'touch'
p1298
S'toucher'
p1299
sS'speed'
p1300
S'vitesse'
p1301
sS'pomfrey'
p1302
S'pomfresh'
p1303
sS'death'
p1304
S'mort'
p1305
sS'thinking'
p1306
S'r\xc3\xa9flexion'
p1307
sS'rose'
p1308
S'rose'
p1309
sS'hufflepuffs'
p1310
S'poufsouffle'
p1311
sS'seems'
p1312
S'semble'
p1313
sS'except'
p1314
S'sauf'
p1315
sS'lets'
p1316
S'laisse'
p1317
sS'pile'
p1318
S'pile'
p1319
sS'struck'
p1320
S'frapp\xc3\xa9'
p1321
sS'real'
p1322
S'r\xc3\xa9el'
p1323
sS'marcus'
p1324
S'marcus'
p1325
sS'read'
p1326
S'lire'
p1327
sS'gonna'
p1328
S'va'
p1329
sS'dark'
p1330
S'sombre'
p1331
sS'listening'
p1332
S'\xc3\xa9coute'
p1333
sS'world'
p1334
S'monde'
p1335
sS'snare'
p1336
S'pi\xc3\xa8ge'
p1337
sS'lady'
p1338
S'dame'
p1339
sS'grin'
p1340
S'sourire'
p1341
sS'stranger'
p1342
S'\xc3\xa9tranger'
p1343
sS'chamber'
p1344
S'chambre'
p1345
sS'laughing'
p1346
S'rire'
p1347
sS'bewitched'
p1348
S'enchant\xc3\xa9'
p1349
sS'friar'
p1350
S'moine'
p1351
sS'tower'
p1352
S'tour'
p1353
sS'twelve'
p1354
S'douze'
p1355
sS'joking'
p1356
S'plaisanterie'
p1357
sS'witchcraft'
p1358
S'sorcellerie'
p1359
sS'snatched'
p1360
S'arrach\xc3\xa9'
p1361
sS'thinks'
p1362
S'pense'
p1363
sS'mood'
p1364
S'humeur'
p1365
sS'moon'
p1366
S'lune'
p1367
sS'throat'
p1368
S'gorge'
p1369
sS'tomorrow'
p1370
S'demain'
p1371
sS'business'
p1372
S'entreprise'
p1373
sS'seconds'
p1374
S'secondes'
p1375
sS'unusual'
p1376
S'inhabituel'
p1377
sS'broken'
p1378
S'cass\xc3\xa9'
p1379
sS'terrified'
p1380
S'terrifi\xc3\xa9'
p1381
sS'throw'
p1382
S'jeter'
p1383
sS'stone'
p1384
S'pierre'
p1385
sS'oh'
p1386
S'oh'
p1387
sS'favorite'
p1388
S'favori'
p1389
sS'stand'
p1390
S'supporter'
p1391
sS'pockets'
p1392
S'poches'
p1393
sS'road'
p1394
S'route'
p1395
sS'quietly'
p1396
S'tranquillement'
p1397
sS'cursed'
p1398
S'maudit'
p1399
sS'stare'
p1400
S'regard'
p1401
sS'hey'
p1402
S'h\xc3\xa9'
p1403
sS'start'
p1404
S'd\xc3\xa9but'
p1405
sS'cats'
p1406
S'chats'
p1407
sS'low'
p1408
S'faible'
p1409
sS'stars'
p1410
S'\xc3\xa9toiles'
p1411
sS'complete'
p1412
S'complet'
p1413
sS'enough'
p1414
S'assez'
p1415
sS'jus'
p1416
S'jus'
p1417
sS'trying'
p1418
S'essayer'
p1419
sS'pull'
p1420
S'tirer'
p1421
sS'rage'
p1422
S'rage'
p1423
sS'drills'
p1424
S'perceuses'
p1425
sS'dirty'
p1426
S'sale'
p1427
sS'grass'
p1428
S'herbe'
p1429
sS'age'
p1430
S'\xc3\xa2ge'
p1431
sS'gone'
p1432
S'disparu'
p1433
sS'ah'
p1434
S'ah'
p1435
sS'moved'
p1436
S'd\xc3\xa9m\xc3\xa9nag\xc3\xa9'
p1437
sS'deep'
p1438
S'profond'
p1439
sS'planets'
p1440
S'plan\xc3\xa8tes'
p1441
sS'watched'
p1442
S'regard\xc3\xa9'
p1443
sS'horse'
p1444
S'cheval'
p1445
sS'hurtled'
p1446
S'fon\xc3\xa7ait'
p1447
sS'idiot'
p1448
S'idiot'
p1449
sS'field'
p1450
S'terrain'
p1451
sS'thousand'
p1452
S'mille'
p1453
sS'poor'
p1454
S'pauvres'
p1455
sS'championship'
p1456
S'championnat'
p1457
sS'students'
p1458
S'\xc3\xa9tudiants'
p1459
sS'teeth'
p1460
S'dents'
p1461
sS'peas'
p1462
S'pois'
p1463
sS'waving'
p1464
S'agitant'
p1465
sS'herbs'
p1466
S'herbes'
p1467
sS'important'
p1468
S'important'
p1469
sS'snitch'
p1470
S'vif'
p1471
sS'starting'
p1472
S'd\xc3\xa9part'
p1473
sS'forget'
p1474
S'oublier'
p1475
sS'forbidden'
p1476
S'interdit'
p1477
sS'follow'
p1478
S'suivre'
p1479
sS'beaters'
p1480
S'batteurs'
p1481
sS'tail'
p1482
S'queue'
p1483
sS'smile'
p1484
S'sourire'
p1485
sS'case'
p1486
S'cas'
p1487
sS'woman'
p1488
S'femme'
p1489
sS'worse'
p1490
S'pire'
p1491
sS'sitting'
p1492
S's\xc3\xa9ance'
p1493
sS'far'
p1494
S'loin'
p1495
sS'horror'
p1496
S'horreur'
p1497
sS'robes'
p1498
S'robes'
p1499
sS'worst'
p1500
S'pire'
p1501
sS'decide'
p1502
S'd\xc3\xa9cider'
p1503
sS'fall'
p1504
S'tomber'
p1505
sS'ticket'
p1506
S'billet'
p1507
sS'difference'
p1508
S'diff\xc3\xa9rence'
p1509
sS'list'
p1510
S'liste'
p1511
sS'large'
p1512
S'grand'
p1513
sS'harry'
p1514
g1514
sS'small'
p1515
S'petit'
p1516
sS'rats'
p1517
S'rats'
p1518
sS'ten'
p1519
S'dix'
p1520
sS'tea'
p1521
S'th\xc3\xa9'
p1522
sS'past'
p1523
S'pass\xc3\xa9'
p1524
sS'pass'
p1525
S'passer'
p1526
sS'dumbledores'
p1527
S'dumbledore'
p1528
sS'stood'
p1529
S'r\xc3\xa9sist\xc3\xa9'
p1530
sS'darkness'
p1531
S'obscurit\xc3\xa9'
p1532
sS'clock'
p1533
S'horloge'
p1534
sS'deeply'
p1535
S'profond\xc3\xa9ment'
p1536
sS'section'
p1537
S'section'
p1538
sS'stool'
p1539
S'tabouret'
p1540
sS'racing'
p1541
S'courses'
p1542
sS'full'
p1543
S'plein'
p1544
sS'hours'
p1545
S'heures'
p1546
sS'newspaper'
p1547
S'journal'
p1548
sS'squashy'
p1549
S'moelleux'
p1550
sS'search'
p1551
S'recherche'
p1552
sS'ahead'
p1553
S'devant'
p1554
sS'narrow'
p1555
S'\xc3\xa9troit'
p1556
sS'followed'
p1557
S'suivi'
p1558
sS'family'
p1559
S'famille'
p1560
sS'suddenly'
p1561
S'soudain'
p1562
sS'emptied'
p1563
S'vide'
p1564
sS'ask'
p1565
S'demander'
p1566
sS'faint'
p1567
S'faible'
p1568
sS'two'
p1569
S'deux'
p1570
sS'mysterious'
p1571
S'myst\xc3\xa9rieux'
p1572
sS'more'
p1573
S'plus'
p1574
sS'flat'
p1575
S'plat'
p1576
sS'door'
p1577
S'porte'
p1578
sS'knows'
p1579
S'sait'
p1580
sS'nimbus'
p1581
S'nimbus'
p1582
sS'excuse'
p1583
S'excuse'
p1584
sS'stick'
p1585
S'b\xc3\xa2ton'
p1586
sS'broke'
p1587
S'cass\xc3\xa9'
p1588
sS'known'
p1589
S'connu'
p1590
sS'gold'
p1591
S'or'
p1592
sS'glad'
p1593
S'heureux'
p1594
sS'town'
p1595
S'ville'
p1596
sS'ronan'
p1597
S'ronan'
p1598
sS'none'
p1599
S'aucun'
p1600
sS'hour'
p1601
S'heure'
p1602
sS'sudden'
p1603
S'soudain'
p1604
sS'nine'
p1605
S'neuf'
p1606
sS'hermione'
p1607
S'hermione'
p1608
sS'learn'
p1609
S'apprendre'
p1610
sS'knocked'
p1611
S'frapp\xc3\xa9'
p1612
sS'marble'
p1613
S'marbre'
p1614
sS'history'
p1615
S'histoire'
p1616
sS'beautiful'
p1617
S'beau'
p1618
sS'hamburger'
p1619
S'hamburger'
p1620
sS'share'
p1621
S'part'
p1622
sS'sense'
p1623
S'sens'
p1624
sS'sharp'
p1625
S'net'
p1626
sS'scar'
p1627
S'cicatrice'
p1628
sS'huge'
p1629
S'\xc3\xa9norme'
p1630
sS'rather'
p1631
S'plut\xc3\xb4t'
p1632
sS'waved'
p1633
S'agita'
p1634
sS'plant'
p1635
S'plante'
p1636
sS'okay'
p1637
S'bien'
p1638
sS'rude'
p1639
S'grossier'
p1640
sS'knuts'
p1641
S'noises'
p1642
sS'blood'
p1643
S'sang'
p1644
sS'short'
p1645
S'court'
p1646
sS'crowded'
p1647
S'bond\xc3\xa9'
p1648
sS'coat'
p1649
S'manteau'
p1650
sS'dragon'
p1651
S'dragon'
p1652
sS'dream'
p1653
S'r\xc3\xaaver'
p1654
sS'playing'
p1655
S'jouer'
p1656
sS'rounded'
p1657
S'arrondie'
p1658
sS'help'
p1659
S'aider'
p1660
sS'bowl'
p1661
S'bol'
p1662
sS'finnigan'
p1663
S'finnigan'
p1664
sS'soon'
p1665
S'bient\xc3\xb4t'
p1666
sS'cross'
p1667
S'traverser'
p1668
sS'paper'
p1669
S'papier'
p1670
sS'hell'
p1671
S'enfer'
p1672
sS'smiling'
p1673
S'souriant'
p1674
sS'late'
p1675
S'tard'
p1676
sS'soccer'
p1677
S'football'
p1678
sS'might'
p1679
S'puissance'
p1680
sS'fool'
p1681
S'tromper'
p1682
sS'good'
p1683
S'bon'
p1684
sS'return'
p1685
S'retour'
p1686
sS'food'
p1687
S'nourriture'
p1688
sS'walls'
p1689
S'murs'
p1690
sS'foot'
p1691
S'pied'
p1692
sS'complain'
p1693
S'plaindre'
p1694
sS'mystery'
p1695
S'myst\xc3\xa8re'
p1696
sS'easily'
p1697
S'facilement'
p1698
sS'always'
p1699
S'toujours'
p1700
sS'fluttered'
p1701
S'flottaient'
p1702
sS'stopped'
p1703
S'arr\xc3\xaat\xc3\xa9'
p1704
sS'found'
p1705
S'trouv\xc3\xa9'
p1706
sS'heavy'
p1707
S'lourd'
p1708
sS'delicious'
p1709
S'd\xc3\xa9licieux'
p1710
sS'house'
p1711
S'maison'
p1712
sS'hard'
p1713
S'dur'
p1714
sS'idea'
p1715
S'id\xc3\xa9e'
p1716
sS'expect'
p1717
S'attendre'
p1718
sS'thick'
p1719
S'\xc3\xa9pais'
p1720
sS'really'
p1721
S'vraiment'
p1722
sS'missed'
p1723
S'manqu\xc3\xa9'
p1724
sS'wondered'
p1725
S'demand\xc3\xa9'
p1726
sS'since'
p1727
S'depuis'
p1728
sS'forgive'
p1729
S'pardonner'
p1730
sS'quirrells'
p1731
S'quirrell'
p1732
sS'houses'
p1733
S'maisons'
p1734
sS'reason'
p1735
S'raison'
p1736
sS'imagine'
p1737
S'imaginer'
p1738
sS'put'
p1739
S'mettre'
p1740
sS'thrown'
p1741
S'jet\xc3\xa9'
p1742
sS'pairs'
p1743
S'paires'
p1744
sS'terrible'
p1745
S'terrible'
p1746
sS'castle'
p1747
S'ch\xc3\xa2teau'
p1748
sS'slipped'
p1749
S'gliss\xc3\xa9'
p1750
sS'feel'
p1751
S'sentir'
p1752
sS'number'
p1753
S'nombre'
p1754
sS'feet'
p1755
S'pieds'
p1756
sS'murmured'
p1757
S'murmura'
p1758
sS'done'
p1759
S'fini'
p1760
sS'miss'
p1761
S'manquer'
p1762
sS'guess'
p1763
S'deviner'
p1764
sS'heads'
p1765
S't\xc3\xaates'
p1766
sS'become'
p1767
S'devenir'
p1768
sS'twenty'
p1769
S'vingt'
p1770
sS'threatening'
p1771
S'mena\xc3\xa7ant'
p1772
sS'least'
p1773
S'moins'
p1774
sS'pinned'
p1775
S'\xc3\xa9pingl\xc3\xa9'
p1776
sS'storm'
p1777
S'temp\xc3\xaate'
p1778
sS'compartment'
p1779
S'compartiment'
p1780
sS'passed'
p1781
S'pass\xc3\xa9'
p1782
sS'behind'
p1783
S'derri\xc3\xa8re'
p1784
sS'relieved'
p1785
S'soulag\xc3\xa9'
p1786
sS'part'
p1787
S'partie'
p1788
sS'jordan'
p1789
g1789
sS'trolls'
p1790
S'trolls'
p1791
sS'believe'
p1792
S'croire'
p1793
sS'stairs'
p1794
S'escaliers'
p1795
sS'kind'
p1796
S'genre'
p1797
sS'hundred'
p1798
S'cent'
p1799
sS'gotten'
p1800
S'obtenu'
p1801
sS'toward'
p1802
S'vers'
p1803
sS'ages'
p1804
S'\xc3\xa2ge'
p1805
sS'magical'
p1806
S'magique'
p1807
sS'guarding'
p1808
S'garde'
p1809
sS'mountain'
p1810
S'montagne'
p1811
sS'flaming'
p1812
S'flamboyant'
p1813
sS'silvery'
p1814
S'argent\xc3\xa9'
p1815
sS'also'
p1816
S'aussi'
p1817
sS'sandwiches'
p1818
S'sandwiches'
p1819
sS'finding'
p1820
S'd\xc3\xa9couverte'
p1821
sS'play'
p1822
S'jouer'
p1823
sS'snapes'
p1824
g910
sS'reckon'
p1825
S'compter'
p1826
sS'headmaster'
p1827
S'directeur'
p1828
sS'flute'
p1829
S'fl\xc3\xbbte'
p1830
sS'most'
p1831
S'plus'
p1832
sS'plan'
p1833
S'plan'
p1834
sS'eaten'
p1835
S'mang\xc3\xa9'
p1836
sS'nothing'
p1837
S'rien'
p1838
sS'extremely'
p1839
S'extr\xc3\xaamement'
p1840
sS'windows'
p1841
S'fen\xc3\xaatres'
p1842
sS'clear'
p1843
S'clair'
p1844
sS'sometimes'
p1845
S'parfois'
p1846
sS'clean'
p1847
S'propre'
p1848
sS'particularly'
p1849
S'particuli\xc3\xa8rement'
p1850
sS'stunned'
p1851
S'\xc3\xa9tourdi'
p1852
sS'slytherin'
p1853
S'serpentard'
p1854
sS'carefully'
p1855
S'soigneusement'
p1856
sS'find'
p1857
S'trouver'
p1858
sS'giant'
p1859
S'g\xc3\xa9ant'
p1860
sS'nervous'
p1861
S'nerveux'
p1862
sS'pretty'
p1863
S'assez'
p1864
sS'hit'
p1865
S'frapper'
p1866
sS'trees'
p1867
S'arbres'
p1868
sS'whistle'
p1869
S'sifflet'
p1870
sS'courage'
p1871
S'courage'
p1872
sS'during'
p1873
S'pendant'
p1874
sS'sleeve'
p1875
S'manche'
p1876
sS'tabby'
p1877
S'tigr\xc3\xa9'
p1878
sS'common'
p1879
S'commun'
p1880
sS'witches'
p1881
S'sorci\xc3\xa8res'
p1882
sS'set'
p1883
S'ensemble'
p1884
sS'sea'
p1885
S'mer'
p1886
sS'close'
p1887
S'pr\xc3\xa8s'
p1888
sS'arm'
p1889
S'bras'
p1890
sS'knees'
p1891
S'genoux'
p1892
sS'probably'
p1893
S'probablement'
p1894
sS'spells'
p1895
S'sorts'
p1896
sS'knowing'
p1897
S'connaissance'
p1898
sS'attention'
p1899
S'attention'
p1900
sS'invisible'
p1901
S'invisible'
p1902
sS'bronze'
p1903
S'bronze'
p1904
sS'last'
p1905
S'dernier'
p1906
sS'enchantments'
p1907
S'enchantements'
p1908
sS'forgotten'
p1909
S'oubli\xc3\xa9'
p1910
sS'whole'
p1911
S'ensemble'
p1912
sS'finds'
p1913
S'd\xc3\xa9couvertes'
p1914
sS'cakes'
p1915
S'g\xc3\xa2teaux'
p1916
sS'point'
p1917
S'point'
p1918
sS'simply'
p1919
S'simplement'
p1920
sS'stamp'
p1921
S'timbre'
p1922
sS'damp'
p1923
S'humide'
p1924
sS'secret'
p1925
S'secret'
p1926
sS'bludgers'
p1927
S'cognards'
p1928
sS'empty'
p1929
S'vide'
p1930
sS'lived'
p1931
S'v\xc3\xa9cu'
p1932
sS'fire'
p1933
S'feu'
p1934
sS'else'
p1935
S'autre'
p1936
sS'awake'
p1937
S'\xc3\xa9veill\xc3\xa9'
p1938
sS'thirty'
p1939
S'trente'
p1940
sS'solid'
p1941
S'solide'
p1942
sS'straight'
p1943
S'droit'
p1944
sS'match'
p1945
S'match'
p1946
sS'leaning'
p1947
S'pench\xc3\xa9'
p1948
sS'hoping'
p1949
S'esp\xc3\xa9rant'
p1950
sS'century'
p1951
S'si\xc3\xa8cle'
p1952
sS'vol'
p1953
S'vol'
p1954
sS'ready'
p1955
S'pr\xc3\xaat'
p1956
sS'rid'
p1957
S'd\xc3\xa9barrasser'
p1958
sS'funny'
p1959
S'dr\xc3\xb4le'
p1960
sS'anymore'
p1961
S'plus'
p1962
sS'rules'
p1963
S'r\xc3\xa8gles'
p1964
sS'corridor'
p1965
S'couloir'
p1966
sS'keys'
p1967
S'cl\xc3\xa9s'
p1968
sS'yesterday'
p1969
S'hier'
p1970
sS'holidays'
p1971
S'f\xc3\xaates'
p1972
sS'moment'
p1973
S'moment'
p1974
sS'leapt'
p1975
S'bondit'
p1976
sS'arrived'
p1977
S'arriv\xc3\xa9e'
p1978
sS'purpose'
p1979
S'but'
p1980
sS'boa'
p1981
S'boa'
p1982
sS'early'
p1983
S't\xc3\xb4t'
p1984
sS'werewolf'
p1985
S'garou'
p1986
sS'obviously'
p1987
S'\xc3\xa9videmment'
p1988
sS'person'
p1989
S'personne'
p1990
sS'edge'
p1991
S'bord'
p1992
sS'mom'
p1993
S'maman'
p1994
sS'questions'
p1995
g1995
sS'tables'
p1996
S'tableaux'
p1997
sS'cut'
p1998
S'coupe'
p1999
sS'cup'
p2000
S'tasse'
p2001
sS'blankets'
p2002
S'couvertures'
p2003
sS'broomsticks'
p2004
S'balais'
p2005
sS'parents'
p2006
S'parents'
p2007
sS'dare'
p2008
S'oser'
p2009
sS'crying'
p2010
S'pleurs'
p2011
sS'excited'
p2012
S'excit\xc3\xa9'
p2013
sS'surprised'
p2014
S'surpris'
p2015
sS'bin'
p2016
S'coffre'
p2017
sS'big'
p2018
S'grand'
p2019
sS'game'
p2020
S'jeu'
p2021
sS'knock'
p2022
S'frapper'
p2023
sS'foolish'
p2024
S'stupide'
p2025
sS'often'
p2026
S'souvent'
p2027
sS'some'
p2028
S'certains'
p2029
sS'wizarding'
p2030
S'sorciers'
p2031
sS'lips'
p2032
S'l\xc3\xa8vres'
p2033
sS'malfoy'
p2034
g505
sS'sight'
p2035
S'vue'
p2036
sS'mirror'
p2037
S'miroir'
p2038
sS'curious'
p2039
S'curieux'
p2040
sS'pale'
p2041
S'p\xc3\xa2le'
p2042
sS'nose'
p2043
S'nez'
p2044
sS'eating'
p2045
S'nourriture'
p2046
sS'elixir'
p2047
S'\xc3\xa9lixir'
p2048
sS'anything'
p2049
S'rien'
p2050
sS'beans'
p2051
S'haricots'
p2052
sS'silence'
p2053
S'silence'
p2054
sS'seeing'
p2055
S'vue'
p2056
sS'weasleys'
p2057
S'weasley'
p2058
sS'lesson'
p2059
S'le\xc3\xa7on'
p2060
sS'impressed'
p2061
S'impressionn\xc3\xa9'
p2062
sS'parvati'
p2063
g2063
sS'few'
p2064
S'peu'
p2065
sS'question'
p2066
S'question'
p2067
sS'fast'
p2068
S'rapide'
p2069
sS'forward'
p2070
S'avant'
p2071
sS'fer'
p2072
S'fer'
p2073
sS'hoped'
p2074
S'esp\xc3\xa9r\xc3\xa9'
p2075
sS'boys'
p2076
S'gar\xc3\xa7ons'
p2077
sS'library'
p2078
S'biblioth\xc3\xa8que'
p2079
sS'line'
p2080
S'ligne'
p2081
sS'us'
p2082
S'nous'
p2083
sS'called'
p2084
S'appel\xc3\xa9'
p2085
sS'yelled'
p2086
S'hurla'
p2087
sS'possession'
p2088
S'possession'
p2089
sS'entrance'
p2090
S'entr\xc3\xa9e'
p2091
sS'chessmen'
p2092
S'\xc3\xa9checs'
p2093
sS'scarlet'
p2094
S'\xc3\xa9carlate'
p2095
sS'single'
p2096
S'unique'
p2097
sS'warning'
p2098
S'avertissement'
p2099
sS'stiffly'
p2100
S'raide'
p2101
sS'lemon'
p2102
S'citron'
p2103
sS'nice'
p2104
S'agr\xc3\xa9able'
p2105
sS'potion'
p2106
S'potion'
p2107
sS'smiled'
p2108
S'sourit'
p2109
sS'lent'
p2110
S'pr\xc3\xaat\xc3\xa9'
p2111
sS'potters'
p2112
g1029
sS'walked'
p2113
S'march\xc3\xa9'
p2114
sS'carrying'
p2115
S'portant'
p2116
sS'having'
p2117
S'ayant'
p2118
sS'results'
p2119
S'r\xc3\xa9sultats'
p2120
sS'seemed'
p2121
S'semblait'
p2122
sS'baron'
p2123
S'baron'
p2124
sS'wizard'
p2125
S'sorcier'
p2126
sS'young'
p2127
S'jeune'
p2128
sS'send'
p2129
S'envoyer'
p2130
sS'brooms'
p2131
S'balais'
p2132
sS'patil'
p2133
S'patil'
p2134
sS'breathing'
p2135
S'respiration'
p2136
sS'garden'
p2137
S'jardin'
p2138
sS'wave'
p2139
S'vague'
p2140
sS'prefect'
p2141
S'pr\xc3\xa9fet'
p2142
sS'magic'
p2143
S'magie'
p2144
sS'notes'
p2145
S'notes'
p2146
sS'shock'
p2147
S'choc'
p2148
sS'try'
p2149
S'essayer'
p2150
sS'boots'
p2151
S'bottes'
p2152
sS'jump'
p2153
S'sauter'
p2154
sS'picked'
p2155
S'choisi'
p2156
sS'power'
p2157
S'puissance'
p2158
sS'giving'
p2159
S'donnant'
p2160
sS'twins'
p2161
S'jumeaux'
p2162
sS'nicholas'
p2163
S'nicholas'
p2164
sS'ginny'
p2165
S'ginny'
p2166
sS'body'
p2167
S'corps'
p2168
sS'lessons'
p2169
S'le\xc3\xa7ons'
p2170
sS'lee'
p2171
S'lee'
p2172
sS'leg'
p2173
S'jambe'
p2174
sS'following'
p2175
S'suivant'
p2176
sS'let'
p2177
S'laisser'
p2178
sS'others'
p2179
S'autres'
p2180
sS'great'
p2181
S'grand'
p2182
sS'leaving'
p2183
S'd\xc3\xa9part'
p2184
sS'makes'
p2185
S'marques'
p2186
sS'danger'
p2187
S'danger'
p2188
sS'win'
p2189
S'victoire'
p2190
sS'addressed'
p2191
S'adress\xc3\xa9e'
p2192
sS'names'
p2193
S'noms'
p2194
sS'standing'
p2195
S'debout'
p2196
sS'next'
p2197
S'prochaine'
p2198
sS'eleven'
p2199
S'onze'
p2200
sS'doubt'
p2201
S'doute'
p2202
sg1732
g1732
sS'sort'
p2203
S'genre'
p2204
sS'started'
p2205
S'commenc\xc3\xa9'
p2206
sS'train'
p2207
S'train'
p2208
sS'sharply'
p2209
S'nettement'
p2210
sS'baby'
p2211
S'b\xc3\xa9b\xc3\xa9'
p2212
sS'swooping'
p2213
S'plongeant'
p2214
sS'animals'
p2215
S'animaux'
p2216
sS'package'
p2217
S'paquet'
p2218
sS'shrieked'
p2219
S'hurla'
p2220
sS'obvious'
p2221
S'\xc3\xa9vident'
p2222
sS'thin'
p2223
S'mince'
p2224
sS'meet'
p2225
S'rencontrer'
p2226
sS'control'
p2227
S'contr\xc3\xb4le'
p2228
sS'slid'
p2229
S'gliss\xc3\xa9'
p2230
sS'hagrid'
p2231
S'hagrid'
p2232
sS'tap'
p2233
S'robinet'
p2234
sS'lock'
p2235
S'bloquer'
p2236
sS'halloween'
p2237
g2237
sS'pieces'
p2238
S'pi\xc3\xa8ces'
p2239
sS'high'
p2240
S'\xc3\xa9lev\xc3\xa9'
p2241
sS'sir'
p2242
S'monsieur'
p2243
sS'six'
p2244
S'six'
p2245
sS'mumbled'
p2246
S'marmonn\xc3\xa9'
p2247
sS'lamp'
p2248
S'lampe'
p2249
sS'muggle'
p2250
S'moldu'
p2251
sS'forest'
p2252
S'for\xc3\xaat'
p2253
sS'instead'
p2254
S'plut\xc3\xb4t'
p2255
sS'panic'
p2256
S'panique'
p2257
sS'furiously'
p2258
S'furieusement'
p2259
sS'cupboard'
p2260
S'placard'
p2261
sS'watch'
p2262
S'regarder'
p2263
sS'wrist'
p2264
S'poignet'
p2265
sS'famous'
p2266
S'c\xc3\xa9l\xc3\xa8bre'
p2267
sS'light'
p2268
S'lumi\xc3\xa8re'
p2269
sS'lines'
p2270
S'lignes'
p2271
sS'trembling'
p2272
S'tremblant'
p2273
sS'furious'
p2274
S'furieux'
p2275
sS'mustache'
p2276
S'moustache'
p2277
sS'move'
p2278
S'mouvement'
p2279
sS'looks'
p2280
S'regards'
p2281
sS'perfect'
p2282
S'parfait'
p2283
sS'chosen'
p2284
S'choisi'
p2285
sS'broom'
p2286
S'balai'
p2287
sS'turban'
p2288
S'turban'
p2289
sS'covered'
p2290
S'couvert'
p2291
sS'ravenclaw'
p2292
S'serdaigle'
p2293
sS'crabbe'
p2294
S'crabbe'
p2295
sS'dad'
p2296
S'papa'
p2297
sS'crash'
p2298
S'fracas'
p2299
sS'practice'
p2300
S'pratique'
p2301
sS'flew'
p2302
S'vol\xc3\xa9'
p2303
sS'sweets'
p2304
S'bonbons'
p2305
sS'snake'
p2306
S'serpent'
p2307
sS'hands'
p2308
S'mains'
p2309
sS'front'
p2310
S'avant'
p2311
sS'cage'
p2312
S'cage'
p2313
sS'day'
p2314
S'jour'
p2315
sS'warned'
p2316
S'averti'
p2317
sS'feast'
p2318
S'f\xc3\xaate'
p2319
sS'truth'
p2320
S'v\xc3\xa9rit\xc3\xa9'
p2321
sS'beneath'
p2322
S'sous'
p2323
sS'glasses'
p2324
S'lunettes'
p2325
sS'cry'
p2326
S'cri'
p2327
sS'doing'
p2328
S'faire'
p2329
sS'adventure'
p2330
S'aventure'
p2331
sS'books'
p2332
S'livres'
p2333
sS'our'
p2334
S'notre'
p2335
sS'armor'
p2336
S'armure'
p2337
sS'cause'
p2338
S'cause'
p2339
sS'red'
p2340
S'rouge'
p2341
sS'umbrella'
p2342
S'parapluie'
p2343
sS'completely'
p2344
S'compl\xc3\xa8tement'
p2345
sS'hogwarts'
p2346
S'poudlard'
p2347
sS'times'
p2348
S'fois'
p2349
sS'powerful'
p2350
S'puissant'
p2351
sS'reached'
p2352
S'atteint'
p2353
sS'wrapped'
p2354
S'envelopp\xc3\xa9'
p2355
sS'perfectly'
p2356
S'parfaitement'
p2357
sS'beard'
p2358
S'barbe'
p2359
sS'stomach'
p2360
S'estomac'
p2361
sS'exactly'
p2362
S'exactement'
p2363
sS'motorcycle'
p2364
S'moto'
p2365
sS'goblin'
p2366
S'gobelin'
p2367
sS'noses'
p2368
S'nez'
p2369
sS'loud'
p2370
S'fort'
p2371
sS'bed'
p2372
S'lit'
p2373
sS'gently'
p2374
S'doucement'
p2375
sS'portrait'
p2376
S'portrait'
p2377
sS'need'
p2378
S'besoin'
p2379
sS'clearly'
p2380
S'clairement'
p2381
sS'afraid'
p2382
S'peur'
p2383
sS'able'
p2384
S'capable'
p2385
sS'which'
p2386
S'qui'
p2387
sS'lily'
p2388
g2388
sS'eight'
p2389
S'huit'
p2390
sS'why'
p2391
S'pourquoi'
p2392
sS'face'
p2393
S'visage'
p2394
sS'looked'
p2395
S'regard\xc3\xa9'
p2396
sS'fact'
p2397
S'fait'
p2398
sS'agreed'
p2399
S'convenu'
p2400
sS'bring'
p2401
S'apporter'
p2402
sS'fear'
p2403
S'peur'
p2404
sS'pleased'
p2405
S'heureux'
p2406
sS'ear'
p2407
S'oreille'
p2408
sS'grabbed'
p2409
S'saisi'
p2410
sS'clutching'
p2411
S'serrant'
p2412
sS'should'
p2413
S'devrait'
p2414
sS'tape'
p2415
S'bande'
p2416
sS'thousands'
p2417
S'milliers'
p2418
sS'meant'
p2419
S'signifiait'
p2420
sS'watching'
p2421
S'regarder'
p2422
sS'beat'
p2423
S'battre'
p2424
sS'muttering'
p2425
S'murmurant'
p2426
sS'lucky'
p2427
S'heureux'
p2428
sS'bear'
p2429
S'porter'
p2430
sS'ones'
p2431
S'ceux'
p2432
sS'words'
p2433
S'paroles'
p2434
sS'gray'
p2435
S'gris'
p2436
sS'teams'
p2437
S'\xc3\xa9quipes'
p2438
sS'stuff'
p2439
S'truc'
p2440
sS'she'
p2441
S'elle'
p2442
sS'dangerous'
p2443
S'dangereux'
p2444
sS'grab'
p2445
S'saisir'
p2446
sS'fixed'
p2447
S'fix\xc3\xa9'
p2448
sS'view'
p2449
S'vue'
p2450
sS'madam'
p2451
S'madame'
p2452
sS'computer'
p2453
S'ordinateur'
p2454
sS'desperate'
p2455
S'd\xc3\xa9sesp\xc3\xa9r\xc3\xa9'
p2456
sS'clearing'
p2457
S'clairi\xc3\xa8re'
p2458
sS'written'
p2459
S'\xc3\xa9crit'
p2460
sS'horrible'
p2461
S'horrible'
p2462
sS'neither'
p2463
S'ni'
p2464
sS'bought'
p2465
S'achet\xc3\xa9'
p2466
sS'ends'
p2467
S'extr\xc3\xa9mit\xc3\xa9s'
p2468
sS'key'
p2469
S'cl\xc3\xa9'
p2470
sS'staring'
p2471
S'regarder'
p2472
sS'norbert'
p2473
S'norbert'
p2474
sS'joke'
p2475
S'blague'
p2476
sS'taking'
p2477
S'prise'
p2478
sS'dumbledore'
p2479
g2479
sS'doorway'
p2480
S'porte'
p2481
sS'passing'
p2482
S'passage'
p2483
sS'wall'
p2484
S'mur'
p2485
sS'walk'
p2486
S'marcher'
p2487
sS'laugh'
p2488
S'rire'
p2489
sS'whispering'
p2490
S'chuchotement'
p2491
sS'table'
p2492
S'table'
p2493
sS'slowly'
p2494
S'lentement'
p2495
sS'feather'
p2496
S'plume'
p2497
sS'shoulders'
p2498
S'\xc3\xa9paules'
p2499
sS'finished'
p2500
S'fini'
p2501
sS'sausages'
p2502
S'saucisses'
p2503
sS'present'
p2504
S'pr\xc3\xa9sent'
p2505
sS'fault'
p2506
S'faute'
p2507
sS'wild'
p2508
S'sauvage'
p2509
sS'almost'
p2510
S'presque'
p2511
sS'helped'
p2512
S'aid\xc3\xa9'
p2513
sS'gryffindors'
p2514
S'gryffondor'
p2515
sS'weasley'
p2516
S'weasley'
p2517
sS'strange'
p2518
S'\xc3\xa9trange'
p2519
sS'underground'
p2520
S'souterrain'
p2521
sS'difficult'
p2522
S'difficile'
p2523
sS'ball'
p2524
S'balle'
p2525
sS'bald'
p2526
S'chauve'
p2527
sS'binoculars'
p2528
S'jumelles'
p2529
sS'fierce'
p2530
S'f\xc3\xa9roce'
p2531
sS'reflection'
p2532
S'r\xc3\xa9flexion'
p2533
sS'fighting'
p2534
S'combat'
p2535
sS'thought'
p2536
S'pens\xc3\xa9e'
p2537
sS'drawing'
p2538
S'dessin'
p2539
sS'usual'
p2540
S'habituel'
p2541
sS'cried'
p2542
S'cria'
p2543
sS'less'
p2544
S'moins'
p2545
sS'moments'
p2546
S'moments'
p2547
sS'liked'
p2548
S'aim\xc3\xa9'
p2549
sS'distant'
p2550
S'lointain'
p2551
sS'seats'
p2552
S'si\xc3\xa8ges'
p2553
sS'parchment'
p2554
S'parchemin'
p2555
sS'broomstick'
p2556
S'balai'
p2557
sS'tight'
p2558
S'serr\xc3\xa9'
p2559
sS'bell'
p2560
S'cloche'
p2561
sS'sky'
p2562
S'ciel'
p2563
sS'lake'
p2564
S'lac'
p2565
sS'realize'
p2566
S'r\xc3\xa9aliser'
p2567
sS'book'
p2568
S'livre'
p2569
sS'wet'
p2570
S'humide'
p2571
sS'ought'
p2572
S'devrait'
p2573
sS'longbottom'
p2574
S'londubat'
p2575
sS'homework'
p2576
S'devoirs'
p2577
sS'five'
p2578
S'cinq'
p2579
sS'desk'
p2580
S'bureau'
p2581
sS'immediately'
p2582
S'imm\xc3\xa9diatement'
p2583
sS'lost'
p2584
S'perdu'
p2585
sS'candy'
p2586
S'bonbons'
p2587
sS'lose'
p2588
S'perdre'
p2589
sS'nerves'
p2590
S'nerfs'
p2591
sS'soft'
p2592
S'doux'
p2593
sS'shed'
p2594
S'hangar'
p2595
sS'scared'
p2596
S'effray\xc3\xa9'
p2597
sS'alive'
p2598
S'vivant'
p2599
sS'hair'
p2600
S'cheveux'
p2601
sS'proper'
p2602
S'propre'
p2603
sS'home'
p2604
S'maison'
p2605
sS'happens'
p2606
S'arrive'
p2607
sS'quidditch'
p2608
S'quidditch'
p2609
sS'lead'
p2610
S'conduire'
p2611
sS'shone'
p2612
S'brillant'
p2613
sS'marched'
p2614
S'marcha'
p2615
sS'goyle'
p2616
S'goyle'
p2617
sS'noise'
p2618
S'bruit'
p2619
sS'centaur'
p2620
S'centaure'
p2621
sS'snapped'
p2622
S'cass\xc3\xa9'
p2623
sS'coldly'
p2624
S'froidement'
p2625
sS'sister'
p2626
S'soeur'
p2627
sS'quills'
p2628
S'plumes'
p2629
sS'recognized'
p2630
S'reconnu'
p2631
sS'owl'
p2632
S'hibou'
p2633
sS'own'
p2634
S'propre'
p2635
sS'letters'
p2636
S'courrier'
p2637
sS'socks'
p2638
S'chaussettes'
p2639
sS'screamed'
p2640
S'hurla'
p2641
sS'guard'
p2642
S'garde'
p2643
sS'rushed'
p2644
S'pr\xc3\xa9cipit\xc3\xa9'
p2645
sS'noticed'
p2646
S'remarqu\xc3\xa9'
p2647
sS'invisibility'
p2648
S'invisibilit\xc3\xa9'
p2649
sS'buy'
p2650
S'acheter'
p2651
sS'repeated'
p2652
S'r\xc3\xa9p\xc3\xa9t\xc3\xa9'
p2653
sS'ha'
p2654
S'ha'
p2655
sS'eat'
p2656
S'manger'
p2657
sS'he'
p2658
S'il'
p2659
sS'made'
p2660
S'fabriqu\xc3\xa9'
p2661
sS'places'
p2662
S'lieux'
p2663
sS'whether'
p2664
S'si'
p2665
sS'wish'
p2666
S'souhaiter'
p2667
sS'excitement'
p2668
S'excitation'
p2669
sS'below'
p2670
S'dessous'
p2671
sS'woke'
p2672
S'r\xc3\xa9veill\xc3\xa9'
p2673
sS'cake'
p2674
S'g\xc3\xa2teau'
p2675
sS'problem'
p2676
S'probl\xc3\xa8me'
p2677
sS'piece'
p2678
S'pi\xc3\xa8ce'
p2679
sS'whisper'
p2680
S'chuchotement'
p2681
sS'pig'
p2682
S'cochon'
p2683
sS'ink'
p2684
S'encre'
p2685
sS'draco'
p2686
S'drago'
p2687
sS'girl'
p2688
S'fille'
p2689
sS'spell'
p2690
S'sortil\xc3\xa8ge'
p2691
sS'slytherins'
p2692
S'serpentard'
p2693
sS'dursley'
p2694
S'dursley'
p2695
sS'oak'
p2696
S'ch\xc3\xaane'
p2697
sS'other'
p2698
S'autre'
p2699
sS'sick'
p2700
S'malade'
p2701
sS'stay'
p2702
S'rester'
p2703
sS'chance'
p2704
S'chance'
p2705
sS'friends'
p2706
S'amis'
p2707
sS'grunted'
p2708
S'grogna'
p2709
sS'ghost'
p2710
S'fant\xc3\xb4me'
p2711
sS'rule'
p2712
S'r\xc3\xa8gle'
p2713
sS'understand'
p2714
S'comprendre'
p2715
sS'yell'
p2716
S'crier'
p2717
s.