(dp0
(S'en_bi2'
p1
S'fr_bi4'
p2
tp3
F0.0
s(S'en_bi3'
p4
S'fr_uni2'
p5
tp6
F0.0
s(S'en_unif4'
p7
S'fr_uni4'
p8
tp9
F0.0
s(S'en_unif3'
p10
g8
tp11
F0.0
s(S'en_unif2'
p12
S'fr_unif3'
p13
tp14
F0.0
s(S'en_uni3'
p15
g8
tp16
F0.0
s(S'en_bi4'
p17
g2
tp18
F0.0
s(S'en_uni4'
p19
g2
tp20
F0.0
s(g10
S'fr_unif2'
p21
tp22
Finf
s(g7
g21
tp23
Finf
s(g17
g13
tp24
F0.0
s(g19
g5
tp25
F0.0
s(g4
g8
tp26
F0.0
s(S'en_uni2'
p27
g5
tp28
F0.0
s(g19
S'fr_bi2'
p29
tp30
F0.0
s(g17
g21
tp31
Finf
s(g4
g13
tp32
F0.0
s(g19
g8
tp33
F0.0
s(g1
g21
tp34
Finf
s(g12
g21
tp35
Finf
s(g27
g8
tp36
F0.0
s(g17
S'fr_bi3'
p37
tp38
F0.0
s(g7
g2
tp39
F0.0
s(g12
g5
tp40
F0.0
s(g10
g2
tp41
F0.0
s(g12
g2
tp42
F0.0
s(g12
g37
tp43
F0.0
s(g10
g37
tp44
F0.0
s(g4
g2
tp45
F0.0
s(g19
g21
tp46
Finf
s(g17
g29
tp47
F0.0
s(g4
S'fr_unif4'
p48
tp49
F0.0
s(g4
g21
tp50
Finf
s(g10
S'fr_uni3'
p51
tp52
F0.0
s(g15
g21
tp53
Finf
s(g7
g5
tp54
F0.0
s(g1
g13
tp55
F0.0
s(g7
g37
tp56
F0.0
s(g1
g5
tp57
F0.0
s(g7
g29
tp58
F0.0
s(g12
g51
tp59
F0.0
s(g10
g48
tp60
F0.0
s(g4
g51
tp61
F0.0
s(g12
g29
tp62
F0.0
s(g27
g21
tp63
Finf
s(g15
g48
tp64
F0.0
s(g15
g13
tp65
F0.0
s(g17
g48
tp66
F0.0
s(g19
g13
tp67
F0.0
s(g27
g13
tp68
F0.0
s(g15
g51
tp69
F0.0
s(g4
g29
tp70
F0.0
s(g10
g5
tp71
F0.0
s(g27
g29
tp72
F0.0
s(g1
g37
tp73
F0.0
s(g7
g51
tp74
F0.0
s(g27
g48
tp75
F0.0
s(g1
g51
tp76
F0.0
s(g7
g48
tp77
F0.0
s(g4
g37
tp78
F0.0
s(g17
g8
tp79
F0.0
s(g27
g51
tp80
F0.0
s(g10
g29
tp81
F0.0
s(g1
g48
tp82
F0.0
s(g15
g29
tp83
F0.0
s(g27
g2
tp84
F0.0
s(g12
g48
tp85
F0.0
s(g19
g37
tp86
F0.0
s(g1
g29
tp87
F0.0
s(g19
g48
tp88
F0.0
s(g7
g13
tp89
F0.0
s(g17
g51
tp90
F0.0
s(g15
g37
tp91
F0.0
s(g27
g37
tp92
F0.0
s(g15
g5
tp93
F0.0
s(g19
g51
tp94
F0.0
s(g12
g8
tp95
F0.0
s(g1
g8
tp96
F0.0
s(g10
g13
tp97
F0.0
s(g15
g2
tp98
F0.0
s(g17
g5
tp99
F0.0
s.