(dp0
(S'en_bi2'
p1
S'fr_bi4'
p2
tp3
F4.222289545979688
s(S'en_bi3'
p4
S'fr_uni2'
p5
tp6
F4.398729960169068
s(S'en_unif4'
p7
S'fr_uni4'
p8
tp9
F17.132100953822608
s(S'en_unif3'
p10
g8
tp11
F7.354401871791178
s(S'en_unif2'
p12
S'fr_unif3'
p13
tp14
F4.260841376187396
s(S'en_uni3'
p15
g8
tp16
F4.481763109145061
s(S'en_bi4'
p17
g2
tp18
F4.991128100181214
s(S'en_uni4'
p19
g2
tp20
F4.677979839772227
s(g10
S'fr_unif2'
p21
tp22
F7.120814025024887
s(g7
g21
tp23
F17.061734335854023
s(g17
g13
tp24
F5.10919089008185
s(g19
g5
tp25
F4.626555471693238
s(g4
g8
tp26
F4.486991381097021
s(S'en_uni2'
p27
g5
tp28
F4.381669196217691
s(g19
S'fr_bi2'
p29
tp30
F4.427792753357202
s(g17
g21
tp31
F4.629576015089142
s(g4
g13
tp32
F4.669702350259293
s(g19
g8
tp33
F4.696268721892673
s(g1
g21
tp34
F3.7323029871736035
s(g12
g21
tp35
F3.49402611187041
s(g27
g8
tp36
F4.551576076101128
s(g17
S'fr_bi3'
p37
tp38
F4.8812973786101574
s(g7
g2
tp39
F17.120767891134555
s(g12
g5
tp40
F3.886336846834776
s(g10
g2
tp41
F7.405234051326495
s(g12
g2
tp42
F4.000364067680784
s(g12
g37
tp43
F3.9142081293880993
s(g10
g37
tp44
F7.295164485228548
s(g4
g2
tp45
F4.466688865525886
s(g19
g21
tp46
F4.279434036804314
s(g17
g29
tp47
F4.767810249208642
s(g4
S'fr_unif4'
p48
tp49
F17.83166584697818
s(g4
g21
tp50
F4.06785629339762
s(g10
S'fr_uni3'
p51
tp52
F7.43814980330395
s(g15
g21
tp53
F4.0455564088019464
s(g7
g5
tp54
F17.137283221778663
s(g1
g13
tp55
F4.475920330689481
s(g7
g37
tp56
F17.103821913477976
s(g1
g5
tp57
F4.087006401626247
s(g7
g29
tp58
F17.10220515578104
s(g12
g51
tp59
F4.0639486349359935
s(g10
g48
tp60
F17.88501144252189
s(g4
g51
tp61
F4.49865545541217
s(g12
g29
tp62
F3.6802853082944345
s(g27
g21
tp63
F4.0765277260064545
s(g15
g48
tp64
F17.81778172326213
s(g15
g13
tp65
F4.677598444616433
s(g17
g48
tp66
F17.82237677034875
s(g19
g13
tp67
F4.866577772365956
s(g27
g13
tp68
F4.771267930450784
s(g15
g51
tp69
F4.502314133829774
s(g4
g29
tp70
F4.201173392846942
s(g10
g5
tp71
F7.423522190901965
s(g27
g29
tp72
F4.2193454276398965
s(g1
g37
tp73
F4.133652326955565
s(g7
g51
tp74
F17.1480112535324
s(g27
g48
tp75
F17.881862889877848
s(g1
g51
tp76
F4.2778798267523745
s(g7
g48
tp77
F16.45605810715746
s(g4
g37
tp78
F4.37978402018478
s(g17
g8
tp79
F4.961226167384766
s(g27
g51
tp80
F4.581485948693595
s(g10
g29
tp81
F7.239729233519035
s(g1
g48
tp82
F17.813320264162346
s(g15
g29
tp83
F4.207684458017121
s(g27
g2
tp84
F4.557745309591618
s(g12
g48
tp85
F17.795497985966893
s(g19
g37
tp86
F4.574064512028078
s(g1
g29
tp87
F3.8833681437586898
s(g19
g48
tp88
F17.8750545865286
s(g7
g13
tp89
F17.170852679801033
s(g17
g51
tp90
F5.013386023753151
s(g15
g37
tp91
F4.37160618902793
s(g27
g37
tp92
F4.457435717373905
s(g15
g5
tp93
F4.384651762883651
s(g19
g51
tp94
F4.715691483296387
s(g12
g8
tp95
F4.031735995449256
s(g1
g8
tp96
F4.2302387471532406
s(g10
g13
tp97
F7.4362723893120535
s(g15
g2
tp98
F4.478449319134489
s(g17
g5
tp99
F4.954785688313434
s.