(dp0
(S'en_bi2'
p1
S'fr_bi4'
p2
tp3
(F2.1598494313383307
F2.698027530734488
tp4
s(S'en_bi3'
p5
S'fr_uni2'
p6
tp7
(F2.4752367788840663
F3.108489545508499
tp8
s(S'en_unif4'
p9
S'fr_uni4'
p10
tp11
(F2.3146535449614483
F3.450971603326663
tp12
s(S'en_unif3'
p13
g10
tp14
(F2.287673803584443
F3.082072191717133
tp15
s(S'en_unif2'
p16
S'fr_unif3'
p17
tp18
(F2.444936257884202
F4.719546506936053
tp19
s(S'en_uni3'
p20
g10
tp21
(F2.289886037152294
F3.0774619199624045
tp22
s(S'en_bi4'
p23
g2
tp24
(F2.163643765381161
F2.8129334000231268
tp25
s(S'en_uni4'
p26
g2
tp27
(F2.1620133544082907
F3.034158675916309
tp28
s(g13
S'fr_unif2'
p29
tp30
(F5.111891668239951
F5.515847501024896
tp31
s(g9
g29
tp32
(F5.113838097986563
F5.713106484524821
tp33
s(g23
g17
tp34
(F2.3678368444168303
F2.9699641415462565
tp35
s(g26
g6
tp36
(F2.4723251453617086
F3.265460498970184
tp37
s(g5
g10
tp38
(F2.288011258134628
F2.955583406071803
tp39
s(S'en_uni2'
p40
g6
tp41
(F2.4737155025055304
F3.038609435891414
tp42
s(g26
S'fr_bi2'
p43
tp44
(F2.2582150426892755
F3.1044874756330496
tp45
s(g23
g29
tp46
(F5.11206817107432
F5.42419917580482
tp47
s(g5
g17
tp48
(F2.369768563610097
F3.028373018184722
tp49
s(g26
g10
tp50
(F2.2860682431120116
F3.1192399483536497
tp51
s(g1
g29
tp52
(F5.113642838188617
F5.36923676203768
tp53
s(g16
g29
tp54
(F5.1120779075295895
F6.543492604205228
tp55
s(g40
g10
tp56
(F2.284169152219943
F2.888111514484693
tp57
s(g23
S'fr_bi3'
p58
tp59
(F2.0472833387485503
F2.715226688009968
tp60
s(g9
g2
tp61
(F2.20104761506102
F3.3749148034822873
tp62
s(g16
g6
tp63
(F2.5461235505265427
F4.771905052126169
tp64
s(g13
g2
tp65
(F2.1638291896786015
F2.9910217921474964
tp66
s(g16
g2
tp67
(F2.26222441510158
F4.626296311083858
tp68
s(g16
g58
tp69
(F2.1729815122620244
F4.5629788424676025
tp70
s(g13
g58
tp71
(F2.049328690318796
F2.909971501803256
tp72
s(g5
g2
tp73
(F2.163681899591209
F2.866618772309237
tp74
s(g26
g29
tp75
(F5.111353240159049
F5.545274757246895
tp76
s(g23
g43
tp77
(F2.259672136677255
F2.8909708912070684
tp78
s(g5
S'fr_unif4'
p79
tp80
(F2.412630955017595
F3.0653318878012996
tp81
s(g5
g29
tp82
(F5.112255573718571
F5.455526490034148
tp83
s(g13
S'fr_uni3'
p84
tp85
(F2.3524003322764737
F3.1327741178644453
tp86
s(g20
g29
tp87
(F5.111373091872379
F5.5089120840811665
tp88
s(g9
g6
tp89
(F2.50327480195786
F3.557927592354256
tp90
s(g1
g17
tp91
(F2.3663793244795275
F2.872564301999656
tp92
s(g9
g58
tp93
(F2.08149097957581
F3.290642677582738
tp94
s(g1
g6
tp95
(F2.4732714756833407
F2.9483857765743635
tp96
s(g9
g43
tp97
(F2.292332761366238
F3.435073076962197
tp98
s(g16
g84
tp99
(F2.42863509497064
F4.704615635691323
tp100
s(g13
g79
tp101
(F2.41396340078218
F3.1823092357046785
tp102
s(g5
g84
tp103
(F2.350786444671913
F3.0043714711520506
tp104
s(g16
g43
tp105
(F2.3290035328626675
F4.655660649760834
tp106
s(g40
g29
tp107
(F5.113314706550943
F5.408147808047193
tp108
s(g20
g79
tp109
(F2.411727870704957
F3.17329173507798
tp110
s(g20
g17
tp111
(F2.370026371201725
F3.1410654080228544
tp112
s(g23
g79
tp113
(F2.412320083165845
F2.9980593899436836
tp114
s(g26
g17
tp115
(F2.3678037776208742
F3.1862702481770127
tp116
s(g40
g17
tp117
(F2.3662457300253315
F2.957261602173118
tp118
s(g20
g84
tp119
(F2.3523485521128755
F3.1186287630650797
tp120
s(g5
g43
tp121
(F2.259788313362877
F2.9387212012621395
tp122
s(g13
g6
tp123
(F2.474248851552879
F3.228277401560584
tp124
s(g40
g43
tp125
(F2.2571155186065224
F2.860798946934277
tp126
s(g1
g58
tp127
(F2.0439918467218225
F2.609586182806841
tp128
s(g9
g84
tp129
(F2.3832572949099045
F3.490547953839259
tp130
s(g40
g79
tp131
(F2.410480518931944
F2.977312432823567
tp132
s(g1
g84
tp133
(F2.3484280476492785
F2.8542446315916283
tp134
s(g9
g79
tp135
(F2.447894511483186
F3.5249351407820666
tp136
s(g5
g58
tp137
(F2.048279525647108
F2.771070050447585
tp138
s(g23
g10
tp139
(F2.286416835292629
F2.898680405912805
tp140
s(g40
g84
tp141
(F2.3482984004496656
F2.9409255512315204
tp142
s(g13
g43
tp143
(F2.259675296192994
F3.0611461821481734
tp144
s(g1
g79
tp145
(F2.4116787011561587
F2.9070374198129136
tp146
s(g20
g43
tp147
(F2.259866828484
F3.05809122289721
tp148
s(g40
g2
tp149
(F2.159942769651443
F2.7927978670361866
tp150
s(g16
g79
tp151
(F2.4783170406632755
F4.7387648849528095
tp152
s(g26
g58
tp153
(F2.0462669130580147
F2.9504900781160512
tp154
s(g1
g43
tp155
(F2.2568531154718996
F2.7721307375350843
tp156
s(g26
g79
tp157
(F2.41140326198009
F3.2149713130383346
tp158
s(g9
g17
tp159
(F2.3971175433802645
F3.491420111338704
tp160
s(g23
g84
tp161
(F2.3503375955057155
F2.9589456845938313
tp162
s(g20
g58
tp163
(F2.0505404507710976
F2.9063964514072795
tp164
s(g40
g58
tp165
(F2.0424813773015216
F2.6975187198864137
tp166
s(g20
g6
tp167
(F2.4738630692672277
F3.2078839938289088
tp168
s(g26
g84
tp169
(F2.3501331876190537
F3.1719492525326243
tp170
s(g16
g10
tp171
(F2.395018456200398
F4.678393153842904
tp172
s(g1
g10
tp173
(F2.28542861439231
F2.8061962716201787
tp174
s(g13
g17
tp175
(F2.372546808093703
F3.1403100431852504
tp176
s(g20
g2
tp177
(F2.1637867941565503
F2.9904051737965847
tp178
s(g23
g6
tp179
(F2.4723126413245984
F3.0494936416960994
tp180
s.